

Microchip MPLAB XC8 Assembler V2.40 build 20220703182018 
                                                                                               Wed Nov 23 18:41:43 2022

Microchip MPLAB XC8 C Compiler v2.40 (Free license) build 20220703182018 Og1 
     1                           	processor	16F887
     2                           	pagewidth 120
     3                           	opt	flic
     4                           	psect	idataBANK0,global,class=CODE,delta=2,noexec
     5                           	psect	strings,global,class=STRING,delta=2,noexec
     6                           	psect	cinit,global,class=CODE,merge=1,delta=2
     7                           	psect	bssCOMMON,global,class=COMMON,space=1,delta=1,noexec
     8                           	psect	bssBANK0,global,class=BANK0,space=1,delta=1,noexec
     9                           	psect	dataBANK0,global,class=BANK0,space=1,delta=1,noexec
    10                           	psect	clrtext,global,class=CODE,delta=2
    11                           	psect	cstackCOMMON,global,class=COMMON,space=1,delta=1,noexec
    12                           	psect	cstackBANK0,global,class=BANK0,space=1,delta=1,noexec
    13                           	psect	maintext,global,class=CODE,split=1,delta=2
    14                           	psect	text1,local,class=CODE,merge=1,delta=2
    15                           	psect	text2,local,class=CODE,merge=1,delta=2
    16                           	psect	text3,local,class=CODE,merge=1,delta=2
    17                           	psect	text4,local,class=CODE,merge=1,delta=2,group=2
    18                           	psect	text5,local,class=CODE,merge=1,delta=2
    19                           	psect	text6,local,class=CODE,merge=1,delta=2
    20                           	psect	intentry,global,class=CODE,delta=2
    21                           	psect	text7,local,class=CODE,merge=1,delta=2
    22                           	psect	config,global,abs,ovrld,class=CONFIG,space=4,delta=2,noexec
    23                           	dabs	1,0x7E,2
    24     0000                     
    25                           ; Version 2.40
    26                           ; Generated 04/07/2022 GMT
    27                           ; 
    28                           ; Copyright © 2022, Microchip Technology Inc. and its subsidiaries ("Microchip")
    29                           ; All rights reserved.
    30                           ; 
    31                           ; This software is developed by Microchip Technology Inc. and its subsidiaries ("Microch
      +                          ip").
    32                           ; 
    33                           ; Redistribution and use in source and binary forms, with or without modification, are
    34                           ; permitted provided that the following conditions are met:
    35                           ; 
    36                           ;     1. Redistributions of source code must retain the above copyright notice, this lis
      +                          t of
    37                           ;        conditions and the following disclaimer.
    38                           ; 
    39                           ;     2. Redistributions in binary form must reproduce the above copyright notice, this 
      +                          list
    40                           ;        of conditions and the following disclaimer in the documentation and/or other
    41                           ;        materials provided with the distribution. Publication is not required when
    42                           ;        this file is used in an embedded application.
    43                           ; 
    44                           ;     3. Microchip's name may not be used to endorse or promote products derived from th
      +                          is
    45                           ;        software without specific prior written permission.
    46                           ; 
    47                           ; THIS SOFTWARE IS PROVIDED BY MICROCHIP "AS IS" AND ANY EXPRESS OR IMPLIED WARRANTIES,
    48                           ; INCLUDING, BUT NOT LIMITED TO, THE IMPLIED WARRANTIES OF MERCHANTABILITY AND FITNESS F
      +                          OR
    49                           ; PURPOSE ARE DISCLAIMED.  IN NO EVENT SHALL MICROCHIP BE LIABLE FOR ANY DIRECT, INDIREC
      +                          T,
    50                           ; INCIDENTAL, SPECIAL, EXEMPLARY, OR CONSEQUENTIAL DAMAGES (INCLUDING BUT NOT LIMITED TO
    51                           ; PROCUREMENT OF SUBSTITUTE GOODS OR SERVICES; LOSS OF USE, DATA OR PROFITS; OR BUSINESS
    52                           ; INTERRUPTION) HOWSOEVER CAUSED AND ON ANY THEORY OF LIABILITY, WHETHER IN CONTRACT, ST
      +                          RICT
    53                           ; LIABILITY, OR TORT (INCLUDING NEGLIGENCE OR OTHERWISE) ARISING IN ANY WAY OUT OF THE U
      +                          SE OF
    54                           ; THIS SOFTWARE, EVEN IF ADVISED OF THE POSSIBILITY OF SUCH DAMAGE.
    55                           ; 
    56                           ; 
    57                           ; Code-generator required, PIC16F887 Definitions
    58                           ; 
    59                           ; SFR Addresses
    60     0000                     	;# 
    61     0001                     	;# 
    62     0002                     	;# 
    63     0003                     	;# 
    64     0004                     	;# 
    65     0005                     	;# 
    66     0006                     	;# 
    67     0007                     	;# 
    68     0008                     	;# 
    69     0009                     	;# 
    70     000A                     	;# 
    71     000B                     	;# 
    72     000C                     	;# 
    73     000D                     	;# 
    74     000E                     	;# 
    75     000E                     	;# 
    76     000F                     	;# 
    77     0010                     	;# 
    78     0011                     	;# 
    79     0012                     	;# 
    80     0013                     	;# 
    81     0014                     	;# 
    82     0015                     	;# 
    83     0015                     	;# 
    84     0016                     	;# 
    85     0017                     	;# 
    86     0018                     	;# 
    87     0019                     	;# 
    88     001A                     	;# 
    89     001B                     	;# 
    90     001B                     	;# 
    91     001C                     	;# 
    92     001D                     	;# 
    93     001E                     	;# 
    94     001F                     	;# 
    95     0081                     	;# 
    96     0085                     	;# 
    97     0086                     	;# 
    98     0087                     	;# 
    99     0088                     	;# 
   100     0089                     	;# 
   101     008C                     	;# 
   102     008D                     	;# 
   103     008E                     	;# 
   104     008F                     	;# 
   105     0090                     	;# 
   106     0091                     	;# 
   107     0092                     	;# 
   108     0093                     	;# 
   109     0093                     	;# 
   110     0093                     	;# 
   111     0094                     	;# 
   112     0095                     	;# 
   113     0096                     	;# 
   114     0097                     	;# 
   115     0098                     	;# 
   116     0099                     	;# 
   117     009A                     	;# 
   118     009B                     	;# 
   119     009C                     	;# 
   120     009D                     	;# 
   121     009E                     	;# 
   122     009F                     	;# 
   123     0105                     	;# 
   124     0107                     	;# 
   125     0108                     	;# 
   126     0109                     	;# 
   127     010C                     	;# 
   128     010C                     	;# 
   129     010D                     	;# 
   130     010E                     	;# 
   131     010F                     	;# 
   132     0185                     	;# 
   133     0187                     	;# 
   134     0188                     	;# 
   135     0189                     	;# 
   136     018C                     	;# 
   137     018D                     	;# 
   138     0000                     	;# 
   139     0001                     	;# 
   140     0002                     	;# 
   141     0003                     	;# 
   142     0004                     	;# 
   143     0005                     	;# 
   144     0006                     	;# 
   145     0007                     	;# 
   146     0008                     	;# 
   147     0009                     	;# 
   148     000A                     	;# 
   149     000B                     	;# 
   150     000C                     	;# 
   151     000D                     	;# 
   152     000E                     	;# 
   153     000E                     	;# 
   154     000F                     	;# 
   155     0010                     	;# 
   156     0011                     	;# 
   157     0012                     	;# 
   158     0013                     	;# 
   159     0014                     	;# 
   160     0015                     	;# 
   161     0015                     	;# 
   162     0016                     	;# 
   163     0017                     	;# 
   164     0018                     	;# 
   165     0019                     	;# 
   166     001A                     	;# 
   167     001B                     	;# 
   168     001B                     	;# 
   169     001C                     	;# 
   170     001D                     	;# 
   171     001E                     	;# 
   172     001F                     	;# 
   173     0081                     	;# 
   174     0085                     	;# 
   175     0086                     	;# 
   176     0087                     	;# 
   177     0088                     	;# 
   178     0089                     	;# 
   179     008C                     	;# 
   180     008D                     	;# 
   181     008E                     	;# 
   182     008F                     	;# 
   183     0090                     	;# 
   184     0091                     	;# 
   185     0092                     	;# 
   186     0093                     	;# 
   187     0093                     	;# 
   188     0093                     	;# 
   189     0094                     	;# 
   190     0095                     	;# 
   191     0096                     	;# 
   192     0097                     	;# 
   193     0098                     	;# 
   194     0099                     	;# 
   195     009A                     	;# 
   196     009B                     	;# 
   197     009C                     	;# 
   198     009D                     	;# 
   199     009E                     	;# 
   200     009F                     	;# 
   201     0105                     	;# 
   202     0107                     	;# 
   203     0108                     	;# 
   204     0109                     	;# 
   205     010C                     	;# 
   206     010C                     	;# 
   207     010D                     	;# 
   208     010E                     	;# 
   209     010F                     	;# 
   210     0185                     	;# 
   211     0187                     	;# 
   212     0188                     	;# 
   213     0189                     	;# 
   214     018C                     	;# 
   215     018D                     	;# 
   216     0000                     	;# 
   217     0001                     	;# 
   218     0002                     	;# 
   219     0003                     	;# 
   220     0004                     	;# 
   221     0005                     	;# 
   222     0006                     	;# 
   223     0007                     	;# 
   224     0008                     	;# 
   225     0009                     	;# 
   226     000A                     	;# 
   227     000B                     	;# 
   228     000C                     	;# 
   229     000D                     	;# 
   230     000E                     	;# 
   231     000E                     	;# 
   232     000F                     	;# 
   233     0010                     	;# 
   234     0011                     	;# 
   235     0012                     	;# 
   236     0013                     	;# 
   237     0014                     	;# 
   238     0015                     	;# 
   239     0015                     	;# 
   240     0016                     	;# 
   241     0017                     	;# 
   242     0018                     	;# 
   243     0019                     	;# 
   244     001A                     	;# 
   245     001B                     	;# 
   246     001B                     	;# 
   247     001C                     	;# 
   248     001D                     	;# 
   249     001E                     	;# 
   250     001F                     	;# 
   251     0081                     	;# 
   252     0085                     	;# 
   253     0086                     	;# 
   254     0087                     	;# 
   255     0088                     	;# 
   256     0089                     	;# 
   257     008C                     	;# 
   258     008D                     	;# 
   259     008E                     	;# 
   260     008F                     	;# 
   261     0090                     	;# 
   262     0091                     	;# 
   263     0092                     	;# 
   264     0093                     	;# 
   265     0093                     	;# 
   266     0093                     	;# 
   267     0094                     	;# 
   268     0095                     	;# 
   269     0096                     	;# 
   270     0097                     	;# 
   271     0098                     	;# 
   272     0099                     	;# 
   273     009A                     	;# 
   274     009B                     	;# 
   275     009C                     	;# 
   276     009D                     	;# 
   277     009E                     	;# 
   278     009F                     	;# 
   279     0105                     	;# 
   280     0107                     	;# 
   281     0108                     	;# 
   282     0109                     	;# 
   283     010C                     	;# 
   284     010C                     	;# 
   285     010D                     	;# 
   286     010E                     	;# 
   287     010F                     	;# 
   288     0185                     	;# 
   289     0187                     	;# 
   290     0188                     	;# 
   291     0189                     	;# 
   292     018C                     	;# 
   293     018D                     	;# 
   294     0000                     	;# 
   295     0001                     	;# 
   296     0002                     	;# 
   297     0003                     	;# 
   298     0004                     	;# 
   299     0005                     	;# 
   300     0006                     	;# 
   301     0007                     	;# 
   302     0008                     	;# 
   303     0009                     	;# 
   304     000A                     	;# 
   305     000B                     	;# 
   306     000C                     	;# 
   307     000D                     	;# 
   308     000E                     	;# 
   309     000E                     	;# 
   310     000F                     	;# 
   311     0010                     	;# 
   312     0011                     	;# 
   313     0012                     	;# 
   314     0013                     	;# 
   315     0014                     	;# 
   316     0015                     	;# 
   317     0015                     	;# 
   318     0016                     	;# 
   319     0017                     	;# 
   320     0018                     	;# 
   321     0019                     	;# 
   322     001A                     	;# 
   323     001B                     	;# 
   324     001B                     	;# 
   325     001C                     	;# 
   326     001D                     	;# 
   327     001E                     	;# 
   328     001F                     	;# 
   329     0081                     	;# 
   330     0085                     	;# 
   331     0086                     	;# 
   332     0087                     	;# 
   333     0088                     	;# 
   334     0089                     	;# 
   335     008C                     	;# 
   336     008D                     	;# 
   337     008E                     	;# 
   338     008F                     	;# 
   339     0090                     	;# 
   340     0091                     	;# 
   341     0092                     	;# 
   342     0093                     	;# 
   343     0093                     	;# 
   344     0093                     	;# 
   345     0094                     	;# 
   346     0095                     	;# 
   347     0096                     	;# 
   348     0097                     	;# 
   349     0098                     	;# 
   350     0099                     	;# 
   351     009A                     	;# 
   352     009B                     	;# 
   353     009C                     	;# 
   354     009D                     	;# 
   355     009E                     	;# 
   356     009F                     	;# 
   357     0105                     	;# 
   358     0107                     	;# 
   359     0108                     	;# 
   360     0109                     	;# 
   361     010C                     	;# 
   362     010C                     	;# 
   363     010D                     	;# 
   364     010E                     	;# 
   365     010F                     	;# 
   366     0185                     	;# 
   367     0187                     	;# 
   368     0188                     	;# 
   369     0189                     	;# 
   370     018C                     	;# 
   371     018D                     	;# 
   372     0000                     	;# 
   373     0001                     	;# 
   374     0002                     	;# 
   375     0003                     	;# 
   376     0004                     	;# 
   377     0005                     	;# 
   378     0006                     	;# 
   379     0007                     	;# 
   380     0008                     	;# 
   381     0009                     	;# 
   382     000A                     	;# 
   383     000B                     	;# 
   384     000C                     	;# 
   385     000D                     	;# 
   386     000E                     	;# 
   387     000E                     	;# 
   388     000F                     	;# 
   389     0010                     	;# 
   390     0011                     	;# 
   391     0012                     	;# 
   392     0013                     	;# 
   393     0014                     	;# 
   394     0015                     	;# 
   395     0015                     	;# 
   396     0016                     	;# 
   397     0017                     	;# 
   398     0018                     	;# 
   399     0019                     	;# 
   400     001A                     	;# 
   401     001B                     	;# 
   402     001B                     	;# 
   403     001C                     	;# 
   404     001D                     	;# 
   405     001E                     	;# 
   406     001F                     	;# 
   407     0081                     	;# 
   408     0085                     	;# 
   409     0086                     	;# 
   410     0087                     	;# 
   411     0088                     	;# 
   412     0089                     	;# 
   413     008C                     	;# 
   414     008D                     	;# 
   415     008E                     	;# 
   416     008F                     	;# 
   417     0090                     	;# 
   418     0091                     	;# 
   419     0092                     	;# 
   420     0093                     	;# 
   421     0093                     	;# 
   422     0093                     	;# 
   423     0094                     	;# 
   424     0095                     	;# 
   425     0096                     	;# 
   426     0097                     	;# 
   427     0098                     	;# 
   428     0099                     	;# 
   429     009A                     	;# 
   430     009B                     	;# 
   431     009C                     	;# 
   432     009D                     	;# 
   433     009E                     	;# 
   434     009F                     	;# 
   435     0105                     	;# 
   436     0107                     	;# 
   437     0108                     	;# 
   438     0109                     	;# 
   439     010C                     	;# 
   440     010C                     	;# 
   441     010D                     	;# 
   442     010E                     	;# 
   443     010F                     	;# 
   444     0185                     	;# 
   445     0187                     	;# 
   446     0188                     	;# 
   447     0189                     	;# 
   448     018C                     	;# 
   449     018D                     	;# 
   450     0000                     	;# 
   451     0001                     	;# 
   452     0002                     	;# 
   453     0003                     	;# 
   454     0004                     	;# 
   455     0005                     	;# 
   456     0006                     	;# 
   457     0007                     	;# 
   458     0008                     	;# 
   459     0009                     	;# 
   460     000A                     	;# 
   461     000B                     	;# 
   462     000C                     	;# 
   463     000D                     	;# 
   464     000E                     	;# 
   465     000E                     	;# 
   466     000F                     	;# 
   467     0010                     	;# 
   468     0011                     	;# 
   469     0012                     	;# 
   470     0013                     	;# 
   471     0014                     	;# 
   472     0015                     	;# 
   473     0015                     	;# 
   474     0016                     	;# 
   475     0017                     	;# 
   476     0018                     	;# 
   477     0019                     	;# 
   478     001A                     	;# 
   479     001B                     	;# 
   480     001B                     	;# 
   481     001C                     	;# 
   482     001D                     	;# 
   483     001E                     	;# 
   484     001F                     	;# 
   485     0081                     	;# 
   486     0085                     	;# 
   487     0086                     	;# 
   488     0087                     	;# 
   489     0088                     	;# 
   490     0089                     	;# 
   491     008C                     	;# 
   492     008D                     	;# 
   493     008E                     	;# 
   494     008F                     	;# 
   495     0090                     	;# 
   496     0091                     	;# 
   497     0092                     	;# 
   498     0093                     	;# 
   499     0093                     	;# 
   500     0093                     	;# 
   501     0094                     	;# 
   502     0095                     	;# 
   503     0096                     	;# 
   504     0097                     	;# 
   505     0098                     	;# 
   506     0099                     	;# 
   507     009A                     	;# 
   508     009B                     	;# 
   509     009C                     	;# 
   510     009D                     	;# 
   511     009E                     	;# 
   512     009F                     	;# 
   513     0105                     	;# 
   514     0107                     	;# 
   515     0108                     	;# 
   516     0109                     	;# 
   517     010C                     	;# 
   518     010C                     	;# 
   519     010D                     	;# 
   520     010E                     	;# 
   521     010F                     	;# 
   522     0185                     	;# 
   523     0187                     	;# 
   524     0188                     	;# 
   525     0189                     	;# 
   526     018C                     	;# 
   527     018D                     	;# 
   528     0000                     	;# 
   529     0001                     	;# 
   530     0002                     	;# 
   531     0003                     	;# 
   532     0004                     	;# 
   533     0005                     	;# 
   534     0006                     	;# 
   535     0007                     	;# 
   536     0008                     	;# 
   537     0009                     	;# 
   538     000A                     	;# 
   539     000B                     	;# 
   540     000C                     	;# 
   541     000D                     	;# 
   542     000E                     	;# 
   543     000E                     	;# 
   544     000F                     	;# 
   545     0010                     	;# 
   546     0011                     	;# 
   547     0012                     	;# 
   548     0013                     	;# 
   549     0014                     	;# 
   550     0015                     	;# 
   551     0015                     	;# 
   552     0016                     	;# 
   553     0017                     	;# 
   554     0018                     	;# 
   555     0019                     	;# 
   556     001A                     	;# 
   557     001B                     	;# 
   558     001B                     	;# 
   559     001C                     	;# 
   560     001D                     	;# 
   561     001E                     	;# 
   562     001F                     	;# 
   563     0081                     	;# 
   564     0085                     	;# 
   565     0086                     	;# 
   566     0087                     	;# 
   567     0088                     	;# 
   568     0089                     	;# 
   569     008C                     	;# 
   570     008D                     	;# 
   571     008E                     	;# 
   572     008F                     	;# 
   573     0090                     	;# 
   574     0091                     	;# 
   575     0092                     	;# 
   576     0093                     	;# 
   577     0093                     	;# 
   578     0093                     	;# 
   579     0094                     	;# 
   580     0095                     	;# 
   581     0096                     	;# 
   582     0097                     	;# 
   583     0098                     	;# 
   584     0099                     	;# 
   585     009A                     	;# 
   586     009B                     	;# 
   587     009C                     	;# 
   588     009D                     	;# 
   589     009E                     	;# 
   590     009F                     	;# 
   591     0105                     	;# 
   592     0107                     	;# 
   593     0108                     	;# 
   594     0109                     	;# 
   595     010C                     	;# 
   596     010C                     	;# 
   597     010D                     	;# 
   598     010E                     	;# 
   599     010F                     	;# 
   600     0185                     	;# 
   601     0187                     	;# 
   602     0188                     	;# 
   603     0189                     	;# 
   604     018C                     	;# 
   605     018D                     	;# 
   606     0000                     	;# 
   607     0001                     	;# 
   608     0002                     	;# 
   609     0003                     	;# 
   610     0004                     	;# 
   611     0005                     	;# 
   612     0006                     	;# 
   613     0007                     	;# 
   614     0008                     	;# 
   615     0009                     	;# 
   616     000A                     	;# 
   617     000B                     	;# 
   618     000C                     	;# 
   619     000D                     	;# 
   620     000E                     	;# 
   621     000E                     	;# 
   622     000F                     	;# 
   623     0010                     	;# 
   624     0011                     	;# 
   625     0012                     	;# 
   626     0013                     	;# 
   627     0014                     	;# 
   628     0015                     	;# 
   629     0015                     	;# 
   630     0016                     	;# 
   631     0017                     	;# 
   632     0018                     	;# 
   633     0019                     	;# 
   634     001A                     	;# 
   635     001B                     	;# 
   636     001B                     	;# 
   637     001C                     	;# 
   638     001D                     	;# 
   639     001E                     	;# 
   640     001F                     	;# 
   641     0081                     	;# 
   642     0085                     	;# 
   643     0086                     	;# 
   644     0087                     	;# 
   645     0088                     	;# 
   646     0089                     	;# 
   647     008C                     	;# 
   648     008D                     	;# 
   649     008E                     	;# 
   650     008F                     	;# 
   651     0090                     	;# 
   652     0091                     	;# 
   653     0092                     	;# 
   654     0093                     	;# 
   655     0093                     	;# 
   656     0093                     	;# 
   657     0094                     	;# 
   658     0095                     	;# 
   659     0096                     	;# 
   660     0097                     	;# 
   661     0098                     	;# 
   662     0099                     	;# 
   663     009A                     	;# 
   664     009B                     	;# 
   665     009C                     	;# 
   666     009D                     	;# 
   667     009E                     	;# 
   668     009F                     	;# 
   669     0105                     	;# 
   670     0107                     	;# 
   671     0108                     	;# 
   672     0109                     	;# 
   673     010C                     	;# 
   674     010C                     	;# 
   675     010D                     	;# 
   676     010E                     	;# 
   677     010F                     	;# 
   678     0185                     	;# 
   679     0187                     	;# 
   680     0188                     	;# 
   681     0189                     	;# 
   682     018C                     	;# 
   683     018D                     	;# 
   684     0000                     	;# 
   685     0001                     	;# 
   686     0002                     	;# 
   687     0003                     	;# 
   688     0004                     	;# 
   689     0005                     	;# 
   690     0006                     	;# 
   691     0007                     	;# 
   692     0008                     	;# 
   693     0009                     	;# 
   694     000A                     	;# 
   695     000B                     	;# 
   696     000C                     	;# 
   697     000D                     	;# 
   698     000E                     	;# 
   699     000E                     	;# 
   700     000F                     	;# 
   701     0010                     	;# 
   702     0011                     	;# 
   703     0012                     	;# 
   704     0013                     	;# 
   705     0014                     	;# 
   706     0015                     	;# 
   707     0015                     	;# 
   708     0016                     	;# 
   709     0017                     	;# 
   710     0018                     	;# 
   711     0019                     	;# 
   712     001A                     	;# 
   713     001B                     	;# 
   714     001B                     	;# 
   715     001C                     	;# 
   716     001D                     	;# 
   717     001E                     	;# 
   718     001F                     	;# 
   719     0081                     	;# 
   720     0085                     	;# 
   721     0086                     	;# 
   722     0087                     	;# 
   723     0088                     	;# 
   724     0089                     	;# 
   725     008C                     	;# 
   726     008D                     	;# 
   727     008E                     	;# 
   728     008F                     	;# 
   729     0090                     	;# 
   730     0091                     	;# 
   731     0092                     	;# 
   732     0093                     	;# 
   733     0093                     	;# 
   734     0093                     	;# 
   735     0094                     	;# 
   736     0095                     	;# 
   737     0096                     	;# 
   738     0097                     	;# 
   739     0098                     	;# 
   740     0099                     	;# 
   741     009A                     	;# 
   742     009B                     	;# 
   743     009C                     	;# 
   744     009D                     	;# 
   745     009E                     	;# 
   746     009F                     	;# 
   747     0105                     	;# 
   748     0107                     	;# 
   749     0108                     	;# 
   750     0109                     	;# 
   751     010C                     	;# 
   752     010C                     	;# 
   753     010D                     	;# 
   754     010E                     	;# 
   755     010F                     	;# 
   756     0185                     	;# 
   757     0187                     	;# 
   758     0188                     	;# 
   759     0189                     	;# 
   760     018C                     	;# 
   761     018D                     	;# 
   762     0000                     	;# 
   763     0001                     	;# 
   764     0002                     	;# 
   765     0003                     	;# 
   766     0004                     	;# 
   767     0005                     	;# 
   768     0006                     	;# 
   769     0007                     	;# 
   770     0008                     	;# 
   771     0009                     	;# 
   772     000A                     	;# 
   773     000B                     	;# 
   774     000C                     	;# 
   775     000D                     	;# 
   776     000E                     	;# 
   777     000E                     	;# 
   778     000F                     	;# 
   779     0010                     	;# 
   780     0011                     	;# 
   781     0012                     	;# 
   782     0013                     	;# 
   783     0014                     	;# 
   784     0015                     	;# 
   785     0015                     	;# 
   786     0016                     	;# 
   787     0017                     	;# 
   788     0018                     	;# 
   789     0019                     	;# 
   790     001A                     	;# 
   791     001B                     	;# 
   792     001B                     	;# 
   793     001C                     	;# 
   794     001D                     	;# 
   795     001E                     	;# 
   796     001F                     	;# 
   797     0081                     	;# 
   798     0085                     	;# 
   799     0086                     	;# 
   800     0087                     	;# 
   801     0088                     	;# 
   802     0089                     	;# 
   803     008C                     	;# 
   804     008D                     	;# 
   805     008E                     	;# 
   806     008F                     	;# 
   807     0090                     	;# 
   808     0091                     	;# 
   809     0092                     	;# 
   810     0093                     	;# 
   811     0093                     	;# 
   812     0093                     	;# 
   813     0094                     	;# 
   814     0095                     	;# 
   815     0096                     	;# 
   816     0097                     	;# 
   817     0098                     	;# 
   818     0099                     	;# 
   819     009A                     	;# 
   820     009B                     	;# 
   821     009C                     	;# 
   822     009D                     	;# 
   823     009E                     	;# 
   824     009F                     	;# 
   825     0105                     	;# 
   826     0107                     	;# 
   827     0108                     	;# 
   828     0109                     	;# 
   829     010C                     	;# 
   830     010C                     	;# 
   831     010D                     	;# 
   832     010E                     	;# 
   833     010F                     	;# 
   834     0185                     	;# 
   835     0187                     	;# 
   836     0188                     	;# 
   837     0189                     	;# 
   838     018C                     	;# 
   839     018D                     	;# 
   840     0000                     	;# 
   841     0001                     	;# 
   842     0002                     	;# 
   843     0003                     	;# 
   844     0004                     	;# 
   845     0005                     	;# 
   846     0006                     	;# 
   847     0007                     	;# 
   848     0008                     	;# 
   849     0009                     	;# 
   850     000A                     	;# 
   851     000B                     	;# 
   852     000C                     	;# 
   853     000D                     	;# 
   854     000E                     	;# 
   855     000E                     	;# 
   856     000F                     	;# 
   857     0010                     	;# 
   858     0011                     	;# 
   859     0012                     	;# 
   860     0013                     	;# 
   861     0014                     	;# 
   862     0015                     	;# 
   863     0015                     	;# 
   864     0016                     	;# 
   865     0017                     	;# 
   866     0018                     	;# 
   867     0019                     	;# 
   868     001A                     	;# 
   869     001B                     	;# 
   870     001B                     	;# 
   871     001C                     	;# 
   872     001D                     	;# 
   873     001E                     	;# 
   874     001F                     	;# 
   875     0081                     	;# 
   876     0085                     	;# 
   877     0086                     	;# 
   878     0087                     	;# 
   879     0088                     	;# 
   880     0089                     	;# 
   881     008C                     	;# 
   882     008D                     	;# 
   883     008E                     	;# 
   884     008F                     	;# 
   885     0090                     	;# 
   886     0091                     	;# 
   887     0092                     	;# 
   888     0093                     	;# 
   889     0093                     	;# 
   890     0093                     	;# 
   891     0094                     	;# 
   892     0095                     	;# 
   893     0096                     	;# 
   894     0097                     	;# 
   895     0098                     	;# 
   896     0099                     	;# 
   897     009A                     	;# 
   898     009B                     	;# 
   899     009C                     	;# 
   900     009D                     	;# 
   901     009E                     	;# 
   902     009F                     	;# 
   903     0105                     	;# 
   904     0107                     	;# 
   905     0108                     	;# 
   906     0109                     	;# 
   907     010C                     	;# 
   908     010C                     	;# 
   909     010D                     	;# 
   910     010E                     	;# 
   911     010F                     	;# 
   912     0185                     	;# 
   913     0187                     	;# 
   914     0188                     	;# 
   915     0189                     	;# 
   916     018C                     	;# 
   917     018D                     	;# 
   918     0000                     	;# 
   919     0001                     	;# 
   920     0002                     	;# 
   921     0003                     	;# 
   922     0004                     	;# 
   923     0005                     	;# 
   924     0006                     	;# 
   925     0007                     	;# 
   926     0008                     	;# 
   927     0009                     	;# 
   928     000A                     	;# 
   929     000B                     	;# 
   930     000C                     	;# 
   931     000D                     	;# 
   932     000E                     	;# 
   933     000E                     	;# 
   934     000F                     	;# 
   935     0010                     	;# 
   936     0011                     	;# 
   937     0012                     	;# 
   938     0013                     	;# 
   939     0014                     	;# 
   940     0015                     	;# 
   941     0015                     	;# 
   942     0016                     	;# 
   943     0017                     	;# 
   944     0018                     	;# 
   945     0019                     	;# 
   946     001A                     	;# 
   947     001B                     	;# 
   948     001B                     	;# 
   949     001C                     	;# 
   950     001D                     	;# 
   951     001E                     	;# 
   952     001F                     	;# 
   953     0081                     	;# 
   954     0085                     	;# 
   955     0086                     	;# 
   956     0087                     	;# 
   957     0088                     	;# 
   958     0089                     	;# 
   959     008C                     	;# 
   960     008D                     	;# 
   961     008E                     	;# 
   962     008F                     	;# 
   963     0090                     	;# 
   964     0091                     	;# 
   965     0092                     	;# 
   966     0093                     	;# 
   967     0093                     	;# 
   968     0093                     	;# 
   969     0094                     	;# 
   970     0095                     	;# 
   971     0096                     	;# 
   972     0097                     	;# 
   973     0098                     	;# 
   974     0099                     	;# 
   975     009A                     	;# 
   976     009B                     	;# 
   977     009C                     	;# 
   978     009D                     	;# 
   979     009E                     	;# 
   980     009F                     	;# 
   981     0105                     	;# 
   982     0107                     	;# 
   983     0108                     	;# 
   984     0109                     	;# 
   985     010C                     	;# 
   986     010C                     	;# 
   987     010D                     	;# 
   988     010E                     	;# 
   989     010F                     	;# 
   990     0185                     	;# 
   991     0187                     	;# 
   992     0188                     	;# 
   993     0189                     	;# 
   994     018C                     	;# 
   995     018D                     	;# 
   996     0000                     	;# 
   997     0001                     	;# 
   998     0002                     	;# 
   999     0003                     	;# 
  1000     0004                     	;# 
  1001     0005                     	;# 
  1002     0006                     	;# 
  1003     0007                     	;# 
  1004     0008                     	;# 
  1005     0009                     	;# 
  1006     000A                     	;# 
  1007     000B                     	;# 
  1008     000C                     	;# 
  1009     000D                     	;# 
  1010     000E                     	;# 
  1011     000E                     	;# 
  1012     000F                     	;# 
  1013     0010                     	;# 
  1014     0011                     	;# 
  1015     0012                     	;# 
  1016     0013                     	;# 
  1017     0014                     	;# 
  1018     0015                     	;# 
  1019     0015                     	;# 
  1020     0016                     	;# 
  1021     0017                     	;# 
  1022     0018                     	;# 
  1023     0019                     	;# 
  1024     001A                     	;# 
  1025     001B                     	;# 
  1026     001B                     	;# 
  1027     001C                     	;# 
  1028     001D                     	;# 
  1029     001E                     	;# 
  1030     001F                     	;# 
  1031     0081                     	;# 
  1032     0085                     	;# 
  1033     0086                     	;# 
  1034     0087                     	;# 
  1035     0088                     	;# 
  1036     0089                     	;# 
  1037     008C                     	;# 
  1038     008D                     	;# 
  1039     008E                     	;# 
  1040     008F                     	;# 
  1041     0090                     	;# 
  1042     0091                     	;# 
  1043     0092                     	;# 
  1044     0093                     	;# 
  1045     0093                     	;# 
  1046     0093                     	;# 
  1047     0094                     	;# 
  1048     0095                     	;# 
  1049     0096                     	;# 
  1050     0097                     	;# 
  1051     0098                     	;# 
  1052     0099                     	;# 
  1053     009A                     	;# 
  1054     009B                     	;# 
  1055     009C                     	;# 
  1056     009D                     	;# 
  1057     009E                     	;# 
  1058     009F                     	;# 
  1059     0105                     	;# 
  1060     0107                     	;# 
  1061     0108                     	;# 
  1062     0109                     	;# 
  1063     010C                     	;# 
  1064     010C                     	;# 
  1065     010D                     	;# 
  1066     010E                     	;# 
  1067     010F                     	;# 
  1068     0185                     	;# 
  1069     0187                     	;# 
  1070     0188                     	;# 
  1071     0189                     	;# 
  1072     018C                     	;# 
  1073     018D                     	;# 
  1074     0000                     	;# 
  1075     0001                     	;# 
  1076     0002                     	;# 
  1077     0003                     	;# 
  1078     0004                     	;# 
  1079     0005                     	;# 
  1080     0006                     	;# 
  1081     0007                     	;# 
  1082     0008                     	;# 
  1083     0009                     	;# 
  1084     000A                     	;# 
  1085     000B                     	;# 
  1086     000C                     	;# 
  1087     000D                     	;# 
  1088     000E                     	;# 
  1089     000E                     	;# 
  1090     000F                     	;# 
  1091     0010                     	;# 
  1092     0011                     	;# 
  1093     0012                     	;# 
  1094     0013                     	;# 
  1095     0014                     	;# 
  1096     0015                     	;# 
  1097     0015                     	;# 
  1098     0016                     	;# 
  1099     0017                     	;# 
  1100     0018                     	;# 
  1101     0019                     	;# 
  1102     001A                     	;# 
  1103     001B                     	;# 
  1104     001B                     	;# 
  1105     001C                     	;# 
  1106     001D                     	;# 
  1107     001E                     	;# 
  1108     001F                     	;# 
  1109     0081                     	;# 
  1110     0085                     	;# 
  1111     0086                     	;# 
  1112     0087                     	;# 
  1113     0088                     	;# 
  1114     0089                     	;# 
  1115     008C                     	;# 
  1116     008D                     	;# 
  1117     008E                     	;# 
  1118     008F                     	;# 
  1119     0090                     	;# 
  1120     0091                     	;# 
  1121     0092                     	;# 
  1122     0093                     	;# 
  1123     0093                     	;# 
  1124     0093                     	;# 
  1125     0094                     	;# 
  1126     0095                     	;# 
  1127     0096                     	;# 
  1128     0097                     	;# 
  1129     0098                     	;# 
  1130     0099                     	;# 
  1131     009A                     	;# 
  1132     009B                     	;# 
  1133     009C                     	;# 
  1134     009D                     	;# 
  1135     009E                     	;# 
  1136     009F                     	;# 
  1137     0105                     	;# 
  1138     0107                     	;# 
  1139     0108                     	;# 
  1140     0109                     	;# 
  1141     010C                     	;# 
  1142     010C                     	;# 
  1143     010D                     	;# 
  1144     010E                     	;# 
  1145     010F                     	;# 
  1146     0185                     	;# 
  1147     0187                     	;# 
  1148     0188                     	;# 
  1149     0189                     	;# 
  1150     018C                     	;# 
  1151     018D                     	;# 
  1152     0000                     	;# 
  1153     0001                     	;# 
  1154     0002                     	;# 
  1155     0003                     	;# 
  1156     0004                     	;# 
  1157     0005                     	;# 
  1158     0006                     	;# 
  1159     0007                     	;# 
  1160     0008                     	;# 
  1161     0009                     	;# 
  1162     000A                     	;# 
  1163     000B                     	;# 
  1164     000C                     	;# 
  1165     000D                     	;# 
  1166     000E                     	;# 
  1167     000E                     	;# 
  1168     000F                     	;# 
  1169     0010                     	;# 
  1170     0011                     	;# 
  1171     0012                     	;# 
  1172     0013                     	;# 
  1173     0014                     	;# 
  1174     0015                     	;# 
  1175     0015                     	;# 
  1176     0016                     	;# 
  1177     0017                     	;# 
  1178     0018                     	;# 
  1179     0019                     	;# 
  1180     001A                     	;# 
  1181     001B                     	;# 
  1182     001B                     	;# 
  1183     001C                     	;# 
  1184     001D                     	;# 
  1185     001E                     	;# 
  1186     001F                     	;# 
  1187     0081                     	;# 
  1188     0085                     	;# 
  1189     0086                     	;# 
  1190     0087                     	;# 
  1191     0088                     	;# 
  1192     0089                     	;# 
  1193     008C                     	;# 
  1194     008D                     	;# 
  1195     008E                     	;# 
  1196     008F                     	;# 
  1197     0090                     	;# 
  1198     0091                     	;# 
  1199     0092                     	;# 
  1200     0093                     	;# 
  1201     0093                     	;# 
  1202     0093                     	;# 
  1203     0094                     	;# 
  1204     0095                     	;# 
  1205     0096                     	;# 
  1206     0097                     	;# 
  1207     0098                     	;# 
  1208     0099                     	;# 
  1209     009A                     	;# 
  1210     009B                     	;# 
  1211     009C                     	;# 
  1212     009D                     	;# 
  1213     009E                     	;# 
  1214     009F                     	;# 
  1215     0105                     	;# 
  1216     0107                     	;# 
  1217     0108                     	;# 
  1218     0109                     	;# 
  1219     010C                     	;# 
  1220     010C                     	;# 
  1221     010D                     	;# 
  1222     010E                     	;# 
  1223     010F                     	;# 
  1224     0185                     	;# 
  1225     0187                     	;# 
  1226     0188                     	;# 
  1227     0189                     	;# 
  1228     018C                     	;# 
  1229     018D                     	;# 
  1230     0000                     	;# 
  1231     0001                     	;# 
  1232     0002                     	;# 
  1233     0003                     	;# 
  1234     0004                     	;# 
  1235     0005                     	;# 
  1236     0006                     	;# 
  1237     0007                     	;# 
  1238     0008                     	;# 
  1239     0009                     	;# 
  1240     000A                     	;# 
  1241     000B                     	;# 
  1242     000C                     	;# 
  1243     000D                     	;# 
  1244     000E                     	;# 
  1245     000E                     	;# 
  1246     000F                     	;# 
  1247     0010                     	;# 
  1248     0011                     	;# 
  1249     0012                     	;# 
  1250     0013                     	;# 
  1251     0014                     	;# 
  1252     0015                     	;# 
  1253     0015                     	;# 
  1254     0016                     	;# 
  1255     0017                     	;# 
  1256     0018                     	;# 
  1257     0019                     	;# 
  1258     001A                     	;# 
  1259     001B                     	;# 
  1260     001B                     	;# 
  1261     001C                     	;# 
  1262     001D                     	;# 
  1263     001E                     	;# 
  1264     001F                     	;# 
  1265     0081                     	;# 
  1266     0085                     	;# 
  1267     0086                     	;# 
  1268     0087                     	;# 
  1269     0088                     	;# 
  1270     0089                     	;# 
  1271     008C                     	;# 
  1272     008D                     	;# 
  1273     008E                     	;# 
  1274     008F                     	;# 
  1275     0090                     	;# 
  1276     0091                     	;# 
  1277     0092                     	;# 
  1278     0093                     	;# 
  1279     0093                     	;# 
  1280     0093                     	;# 
  1281     0094                     	;# 
  1282     0095                     	;# 
  1283     0096                     	;# 
  1284     0097                     	;# 
  1285     0098                     	;# 
  1286     0099                     	;# 
  1287     009A                     	;# 
  1288     009B                     	;# 
  1289     009C                     	;# 
  1290     009D                     	;# 
  1291     009E                     	;# 
  1292     009F                     	;# 
  1293     0105                     	;# 
  1294     0107                     	;# 
  1295     0108                     	;# 
  1296     0109                     	;# 
  1297     010C                     	;# 
  1298     010C                     	;# 
  1299     010D                     	;# 
  1300     010E                     	;# 
  1301     010F                     	;# 
  1302     0185                     	;# 
  1303     0187                     	;# 
  1304     0188                     	;# 
  1305     0189                     	;# 
  1306     018C                     	;# 
  1307     018D                     	;# 
  1308                           
  1309                           	psect	idataBANK0
  1310     04CD                     __pidataBANK0:
  1311                           
  1312                           ;initializer for _Array_LCDLineNumAddress
  1313     04CD  3480               	retlw	128
  1314     04CE  34C0               	retlw	192
  1315     04CF  3490               	retlw	144
  1316     04D0  34D0               	retlw	208
  1317     0019                     _TXREG	set	25
  1318     001A                     _RCREG	set	26
  1319     000C                     _PIR1bits	set	12
  1320     000E                     _TMR1L	set	14
  1321     000F                     _TMR1H	set	15
  1322     001B                     _CCPR2L	set	27
  1323     0015                     _CCPR1L	set	21
  1324     0005                     _PORTAbits	set	5
  1325     001D                     _CCP2CON	set	29
  1326     0018                     _RCSTA	set	24
  1327     0017                     _CCP1CON	set	23
  1328     0012                     _T2CON	set	18
  1329     0010                     _T1CON	set	16
  1330     000D                     _PIR2	set	13
  1331     000C                     _PIR1	set	12
  1332     0009                     _PORTE	set	9
  1333     0008                     _PORTD	set	8
  1334     0007                     _PORTC	set	7
  1335     0006                     _PORTB	set	6
  1336     0005                     _PORTA	set	5
  1337     0013                     _SSPBUF	set	19
  1338     0014                     _SSPCON	set	20
  1339     001E                     _ADRESH	set	30
  1340     001F                     _ADCON0bits	set	31
  1341     001F                     _ADCON0	set	31
  1342     000B                     _INTCON	set	11
  1343     0001                     _TMR0	set	1
  1344     000B                     _INTCONbits	set	11
  1345     0092                     _TMR2ON	set	146
  1346     0068                     _CCP2IF	set	104
  1347     006A                     _ULPWUIF	set	106
  1348     006B                     _BCLIF	set	107
  1349     006C                     _EEIF	set	108
  1350     006D                     _C1IF	set	109
  1351     006E                     _C2IF	set	110
  1352     006F                     _OSFIF	set	111
  1353     0060                     _TMR1IF	set	96
  1354     0061                     _TMR2IF	set	97
  1355     005A                     _TMR0IF	set	90
  1356     0062                     _CCP1IF	set	98
  1357     0063                     _SSPIF	set	99
  1358     0064                     _TXIF	set	100
  1359     0065                     _RCIF	set	101
  1360     0066                     _ADIF	set	102
  1361     0058                     _RBIF	set	88
  1362     0059                     _INTF	set	89
  1363     005A                     _T0IF	set	90
  1364     005F                     _GIE	set	95
  1365     00F9                     _GO_DONE	set	249
  1366     00F9                     _GO	set	249
  1367     00F8                     _ADON	set	248
  1368     0092                     _PR2	set	146
  1369     0085                     _TRISAbits	set	133
  1370     009F                     _ADCON1	set	159
  1371     009D                     _PSTRCON	set	157
  1372     009C                     _ECCPAS	set	156
  1373     009B                     _PWM1CON	set	155
  1374     009A                     _SPBRGH	set	154
  1375     0099                     _SPBRG	set	153
  1376     0098                     _TXSTA	set	152
  1377     0097                     _VRCON	set	151
  1378     0096                     _IOCB	set	150
  1379     0095                     _WPUB	set	149
  1380     0093                     _SSPMSK	set	147
  1381     0091                     _SSPCON2	set	145
  1382     0090                     _OSCTUNE	set	144
  1383     008F                     _OSCCON	set	143
  1384     008E                     _PCON	set	142
  1385     008D                     _PIE2	set	141
  1386     008C                     _PIE1	set	140
  1387     0089                     _TRISE	set	137
  1388     0088                     _TRISD	set	136
  1389     0087                     _TRISC	set	135
  1390     0086                     _TRISB	set	134
  1391     0085                     _TRISA	set	133
  1392     0081                     _OPTION_REG	set	129
  1393     0093                     _SSPADD	set	147
  1394     0094                     _SSPSTAT	set	148
  1395     009E                     _ADRESL	set	158
  1396     009F                     _ADCON1bits	set	159
  1397     048C                     _ACKEN	set	1164
  1398     048D                     _ACKDT	set	1165
  1399     04A2                     _R_W	set	1186
  1400     048B                     _RCEN	set	1163
  1401     04A0                     _BF	set	1184
  1402     048A                     _PEN	set	1162
  1403     0489                     _RSEN	set	1161
  1404     0488                     _SEN	set	1160
  1405     043C                     _TRISC4	set	1084
  1406     043B                     _TRISC3	set	1083
  1407     010F                     _EEADRH	set	271
  1408     010E                     _EEDATH	set	270
  1409     010C                     _EEDAT	set	268
  1410     0109                     _CM2CON1	set	265
  1411     0108                     _CM2CON0	set	264
  1412     0107                     _CM1CON0	set	263
  1413     0105                     _WDTCON	set	261
  1414     010C                     _EEDATA	set	268
  1415     010D                     _EEADR	set	269
  1416     0189                     _ANSELHbits	set	393
  1417     0188                     _ANSELbits	set	392
  1418     018D                     _EECON2	set	397
  1419     0C60                     _RD	set	3168
  1420     0C62                     _WREN	set	3170
  1421     0C61                     _WR	set	3169
  1422                           
  1423                           	psect	strings
  1424     0400                     __pstrings:
  1425     0400                     stringtab:
  1426     0400                     __stringtab:
  1427     0400                     stringcode:	
  1428                           ;	String table - string pointers are 1 byte each
  1429                           
  1430     0400                     stringdir:
  1431     0400  3004               	movlw	high stringdir
  1432     0401  008A               	movwf	10
  1433     0402  0804               	movf	4,w
  1434     0403  0A84               	incf	4,f
  1435     0404  0782               	addwf	2,f
  1436     0405                     __stringbase:
  1437     0405  3400               	retlw	0
  1438     0406                     __end_of__stringtab:
  1439     0406                     STR_3:
  1440     0406  3431               	retlw	49	;'1'
  1441     0407  3436               	retlw	54	;'6'
  1442     0408  3446               	retlw	70	;'F'
  1443     0409  3438               	retlw	56	;'8'
  1444     040A  3438               	retlw	56	;'8'
  1445     040B  3437               	retlw	55	;'7'
  1446     040C  3420               	retlw	32	;' '
  1447     040D  3426               	retlw	38	;'&'
  1448     040E  3420               	retlw	32	;' '
  1449     040F  3444               	retlw	68	;'D'
  1450     0410  3453               	retlw	83	;'S'
  1451     0411  3431               	retlw	49	;'1'
  1452     0412  3438               	retlw	56	;'8'
  1453     0413  3442               	retlw	66	;'B'
  1454     0414  3432               	retlw	50	;'2'
  1455     0415  3430               	retlw	48	;'0'
  1456     0416  340A               	retlw	10
  1457     0417  3454               	retlw	84	;'T'
  1458     0418  3465               	retlw	101	;'e'
  1459     0419  346D               	retlw	109	;'m'
  1460     041A  3470               	retlw	112	;'p'
  1461     041B  3465               	retlw	101	;'e'
  1462     041C  3472               	retlw	114	;'r'
  1463     041D  3461               	retlw	97	;'a'
  1464     041E  3474               	retlw	116	;'t'
  1465     041F  3475               	retlw	117	;'u'
  1466     0420  3472               	retlw	114	;'r'
  1467     0421  3465               	retlw	101	;'e'
  1468     0422  343A               	retlw	58	;':'
  1469     0423  3425               	retlw	37	;'%'
  1470     0424  3466               	retlw	102	;'f'
  1471     0425  3443               	retlw	67	;'C'
  1472     0426  340A               	retlw	10
  1473     0427  3400               	retlw	0
  1474     0428                     STR_6:
  1475     0428  3454               	retlw	84	;'T'
  1476     0429  3430               	retlw	48	;'0'
  1477     042A  3443               	retlw	67	;'C'
  1478     042B  344B               	retlw	75	;'K'
  1479     042C  3449               	retlw	73	;'I'
  1480     042D  3400               	retlw	0
  1481     042E                     STR_14:
  1482     042E  3454               	retlw	84	;'T'
  1483     042F  3431               	retlw	49	;'1'
  1484     0430  3443               	retlw	67	;'C'
  1485     0431  344B               	retlw	75	;'K'
  1486     0432  3449               	retlw	73	;'I'
  1487     0433  3400               	retlw	0
  1488     0434                     STR_1:
  1489     0434  3446               	retlw	70	;'F'
  1490     0435  344F               	retlw	79	;'O'
  1491     0436  3453               	retlw	83	;'S'
  1492     0437  3443               	retlw	67	;'C'
  1493     0438  3434               	retlw	52	;'4'
  1494     0439  3400               	retlw	0
  1495     043A                     STR_2:
  1496     043A  3448               	retlw	72	;'H'
  1497     043B  3449               	retlw	73	;'I'
  1498     043C  3447               	retlw	71	;'G'
  1499     043D  3448               	retlw	72	;'H'
  1500     043E  3400               	retlw	0
  1501     043F                     STR_10:
  1502     043F  344C               	retlw	76	;'L'
  1503     0440  344F               	retlw	79	;'O'
  1504     0441  3457               	retlw	87	;'W'
  1505     0442  3400               	retlw	0
  1506     0434                     
  1507                           	psect	cinit
  1508     0011                     start_initialization:	
  1509                           ; #config settings
  1510                           
  1511     0011                     __initialization:
  1512                           
  1513                           ; Initialize objects allocated to BANK0
  1514     0011  120A  118A  24CD  120A  118A  	fcall	__pidataBANK0	;fetch initializer
  1515     0016  00CB               	movwf	__pdataBANK0& (0+127)
  1516     0017  120A  118A  24CE  120A  118A  	fcall	__pidataBANK0+1	;fetch initializer
  1517     001C  00CC               	movwf	(__pdataBANK0+1)& (0+127)
  1518     001D  120A  118A  24CF  120A  118A  	fcall	__pidataBANK0+2	;fetch initializer
  1519     0022  00CD               	movwf	(__pdataBANK0+2)& (0+127)
  1520     0023  120A  118A  24D0  120A  118A  	fcall	__pidataBANK0+3	;fetch initializer
  1521     0028  00CE               	movwf	(__pdataBANK0+3)& (0+127)
  1522                           
  1523                           ; Clear objects allocated to BANK0
  1524     0029  1383               	bcf	3,7	;select IRP bank0
  1525     002A  3020               	movlw	low __pbssBANK0
  1526     002B  0084               	movwf	4
  1527     002C  3036               	movlw	low (__pbssBANK0+22)
  1528     002D  120A  118A  24C0  120A  118A  	fcall	clear_ram0
  1529                           
  1530                           ; Clear objects allocated to COMMON
  1531     0032  01F8               	clrf	__pbssCOMMON& (0+127)
  1532     0033  01F9               	clrf	(__pbssCOMMON+1)& (0+127)
  1533     0034  01FA               	clrf	(__pbssCOMMON+2)& (0+127)
  1534     0035  01FB               	clrf	(__pbssCOMMON+3)& (0+127)
  1535     0036                     end_of_initialization:	
  1536                           ;End of C runtime variable initialization code
  1537                           
  1538     0036                     __end_of__initialization:
  1539     0036  0183               	clrf	3
  1540     0037  120A  118A  2C79   	ljmp	_main	;jump to C main() function
  1541                           
  1542                           	psect	bssCOMMON
  1543     0078                     __pbssCOMMON:
  1544     0078                     _LastSensorFount:
  1545     0078                     	ds	1
  1546     0079                     _DoneFlag:
  1547     0079                     	ds	1
  1548     007A                     _LcdTrackCursorPos:
  1549     007A                     	ds	1
  1550     007B                     _LcdTrackLineNum:
  1551     007B                     	ds	1
  1552                           
  1553                           	psect	bssBANK0
  1554     0020                     __pbssBANK0:
  1555     0020                     _LCDConfig:
  1556     0020                     	ds	14
  1557     002E                     _Sensor_Address:
  1558     002E                     	ds	8
  1559                           
  1560                           	psect	dataBANK0
  1561     004B                     __pdataBANK0:
  1562     004B                     _Array_LCDLineNumAddress:
  1563     004B                     	ds	4
  1564                           
  1565                           	psect	clrtext
  1566     04C0                     clear_ram0:	
  1567                           ;	Called with FSR containing the base address, and
  1568                           ;	W with the last address+1
  1569                           
  1570     04C0  0064               	clrwdt	;clear the watchdog before getting into this loop
  1571     04C1                     clrloop0:
  1572     04C1  0180               	clrf	0	;clear RAM location pointed to by FSR
  1573     04C2  0A84               	incf	4,f	;increment pointer
  1574     04C3  0604               	xorwf	4,w	;XOR with final address
  1575     04C4  1903               	btfsc	3,2	;have we reached the end yet?
  1576     04C5  3400               	retlw	0	;all done for this memory range, return
  1577     04C6  0604               	xorwf	4,w	;XOR again to restore value
  1578     04C7  2CC1               	goto	clrloop0	;do the next byte
  1579                           
  1580                           	psect	cstackCOMMON
  1581     0070                     __pcstackCOMMON:
  1582     0070                     ?_ExternalClock_Init:
  1583     0070                     ?_test:	
  1584                           ; 1 bytes @ 0x0
  1585                           
  1586     0070                     ?_main:	
  1587                           ; 1 bytes @ 0x0
  1588                           
  1589     0070                     ?i1_write_Digital:	
  1590                           ; 1 bytes @ 0x0
  1591                           
  1592     0070                     i1write_Digital@value:	
  1593                           ; 1 bytes @ 0x0
  1594                           
  1595                           
  1596                           ; 1 bytes @ 0x0
  1597     0070                     	ds	1
  1598     0071                     ??i1_write_Digital:
  1599                           
  1600                           ; 1 bytes @ 0x1
  1601     0071                     	ds	2
  1602     0073                     i1write_Digital@var_PortNumber:
  1603                           
  1604                           ; 1 bytes @ 0x3
  1605     0073                     	ds	1
  1606     0074                     i1write_Digital@var_pin:
  1607                           
  1608                           ; 1 bytes @ 0x4
  1609     0074                     	ds	1
  1610     0075                     ??_test:
  1611                           
  1612                           ; 1 bytes @ 0x5
  1613     0075                     	ds	3
  1614                           
  1615                           	psect	cstackBANK0
  1616     0036                     __pcstackBANK0:
  1617     0036                     ?_write_Digital:
  1618     0036                     ?_pin_Direction:	
  1619                           ; 1 bytes @ 0x0
  1620                           
  1621     0036                     ??_ExternalClock_Init:	
  1622                           ; 1 bytes @ 0x0
  1623                           
  1624     0036                     ?_strcmp:	
  1625                           ; 1 bytes @ 0x0
  1626                           
  1627     0036                     pin_Direction@var_derection:	
  1628                           ; 2 bytes @ 0x0
  1629                           
  1630     0036                     write_Digital@value:	
  1631                           ; 1 bytes @ 0x0
  1632                           
  1633     0036                     strcmp@s2:	
  1634                           ; 1 bytes @ 0x0
  1635                           
  1636                           
  1637                           ; 1 bytes @ 0x0
  1638     0036                     	ds	1
  1639     0037                     ??_write_Digital:
  1640     0037                     ??_pin_Direction:	
  1641                           ; 1 bytes @ 0x1
  1642                           
  1643                           
  1644                           ; 1 bytes @ 0x1
  1645     0037                     	ds	1
  1646     0038                     ??_strcmp:
  1647                           
  1648                           ; 1 bytes @ 0x2
  1649     0038                     	ds	1
  1650     0039                     pin_Direction@var_PortNumber:
  1651     0039                     write_Digital@var_PortNumber:	
  1652                           ; 1 bytes @ 0x3
  1653                           
  1654                           
  1655                           ; 1 bytes @ 0x3
  1656     0039                     	ds	1
  1657     003A                     pin_Direction@var_pin:
  1658     003A                     write_Digital@var_pin:	
  1659                           ; 1 bytes @ 0x4
  1660                           
  1661     003A                     strcmp@r:	
  1662                           ; 1 bytes @ 0x4
  1663                           
  1664                           
  1665                           ; 1 bytes @ 0x4
  1666     003A                     	ds	1
  1667     003B                     strcmp@s1:
  1668                           
  1669                           ; 1 bytes @ 0x5
  1670     003B                     	ds	1
  1671     003C                     ?_TMR0_enable:
  1672     003C                     TMR0_enable@Prescaler:	
  1673                           ; 1 bytes @ 0x6
  1674                           
  1675                           
  1676                           ; 2 bytes @ 0x6
  1677     003C                     	ds	2
  1678     003E                     TMR0_enable@clk_src:
  1679                           
  1680                           ; 1 bytes @ 0x8
  1681     003E                     	ds	1
  1682     003F                     TMR0_enable@edge_src:
  1683                           
  1684                           ; 1 bytes @ 0x9
  1685     003F                     	ds	1
  1686     0040                     ??_TMR0_enable:
  1687                           
  1688                           ; 1 bytes @ 0xA
  1689     0040                     	ds	1
  1690     0041                     TMR0_enable@PSA:
  1691                           
  1692                           ; 1 bytes @ 0xB
  1693     0041                     	ds	1
  1694     0042                     TMR0_enable@x_clk_src:
  1695                           
  1696                           ; 2 bytes @ 0xC
  1697     0042                     	ds	2
  1698     0044                     TMR0_enable@x_edge_src:
  1699                           
  1700                           ; 2 bytes @ 0xE
  1701     0044                     	ds	2
  1702     0046                     TMR0_enable@var_OPTIONS:
  1703                           
  1704                           ; 1 bytes @ 0x10
  1705     0046                     	ds	1
  1706     0047                     TMR0_enable@var_Settings:
  1707                           
  1708                           ; 1 bytes @ 0x11
  1709     0047                     	ds	1
  1710     0048                     TMR0_enable@x_PSA:
  1711                           
  1712                           ; 2 bytes @ 0x12
  1713     0048                     	ds	2
  1714     004A                     TMR0_enable@var_Prescaler:
  1715                           
  1716                           ; 1 bytes @ 0x14
  1717     004A                     	ds	1
  1718     004B                     ??_main:
  1719                           
  1720                           	psect	maintext
  1721     0479                     __pmaintext:	
  1722                           ; 1 bytes @ 0x15
  1723 ;;
  1724 ;;Main: autosize = 0, tempsize = 0, incstack = 0, save=0
  1725 ;;
  1726 ;; *************** function _main *****************
  1727 ;; Defined at:
  1728 ;;		line 28 in file "main.c"
  1729 ;; Parameters:    Size  Location     Type
  1730 ;;		None
  1731 ;; Auto vars:     Size  Location     Type
  1732 ;;		None
  1733 ;; Return value:  Size  Location     Type
  1734 ;;                  1    wreg      void 
  1735 ;; Registers used:
  1736 ;;		wreg, fsr0l, fsr0h, status,2, status,0, pclath, cstack
  1737 ;; Tracked objects:
  1738 ;;		On entry : B00/0
  1739 ;;		On exit  : 0/0
  1740 ;;		Unchanged: 0/0
  1741 ;; Data sizes:     COMMON   BANK0   BANK1   BANK3   BANK2
  1742 ;;      Params:         0       0       0       0       0
  1743 ;;      Locals:         0       0       0       0       0
  1744 ;;      Temps:          0       0       0       0       0
  1745 ;;      Totals:         0       0       0       0       0
  1746 ;;Total ram usage:        0 bytes
  1747 ;; Hardware stack levels required when called: 4
  1748 ;; This function calls:
  1749 ;;		_ExternalClock_Init
  1750 ;;		_TMR0_enable
  1751 ;;		_pin_Direction
  1752 ;;		_write_Digital
  1753 ;; This function is called by:
  1754 ;;		Startup code after reset
  1755 ;; This function uses a non-reentrant model
  1756 ;;
  1757                           
  1758     0479                     _main:	
  1759                           ;psect for function _main
  1760                           
  1761     0479                     l4450:	
  1762                           ;incstack = 0
  1763                           ; Regs used in _main: [wreg-fsr0h+status,2+status,0+pclath+cstack]
  1764                           
  1765                           
  1766                           ;main.c: 29:     pin_Direction(RD_1,0x00);
  1767     0479  1283               	bcf	3,5	;RP0=0, select bank0
  1768     047A  1303               	bcf	3,6	;RP1=0, select bank0
  1769     047B  01B6               	clrf	pin_Direction@var_derection
  1770     047C  3019               	movlw	25
  1771     047D  120A  118A  214F  120A  118A  	fcall	_pin_Direction
  1772     0482                     l4452:
  1773                           
  1774                           ;main.c: 30:     INTCON = 0xA0;
  1775     0482  30A0               	movlw	160
  1776     0483  008B               	movwf	11	;volatile
  1777     0484                     l4454:
  1778                           
  1779                           ;main.c: 31:     TMR0_enable(0,1,"FOSC4","HIGH");
  1780     0484  3001               	movlw	1
  1781     0485  1283               	bcf	3,5	;RP0=0, select bank0
  1782     0486  1303               	bcf	3,6	;RP1=0, select bank0
  1783     0487  00BC               	movwf	TMR0_enable@Prescaler
  1784     0488  3000               	movlw	0
  1785     0489  00BD               	movwf	TMR0_enable@Prescaler+1
  1786     048A  302F               	movlw	(low ((STR_1-__stringbase)| (0+32768)))& (0+255)
  1787     048B  00BE               	movwf	TMR0_enable@clk_src
  1788     048C  3035               	movlw	(low ((STR_2-__stringbase)| (0+32768)))& (0+255)
  1789     048D  00BF               	movwf	TMR0_enable@edge_src
  1790     048E  3000               	movlw	0
  1791     048F  120A  118A  203A  120A  118A  	fcall	_TMR0_enable
  1792     0494                     l4456:
  1793                           
  1794                           ;main.c: 32:     ExternalClock_Init();
  1795     0494  120A  118A  24C8  120A  118A  	fcall	_ExternalClock_Init
  1796     0499                     l4458:
  1797                           
  1798                           ;main.c: 33:     write_Digital(RD_1,0x01);
  1799     0499  1283               	bcf	3,5	;RP0=0, select bank0
  1800     049A  1303               	bcf	3,6	;RP1=0, select bank0
  1801     049B  01B6               	clrf	write_Digital@value
  1802     049C  0AB6               	incf	write_Digital@value,f
  1803     049D  3019               	movlw	25
  1804     049E  120A  118A  231F  120A  118A  	fcall	_write_Digital
  1805     04A3                     l27:	
  1806                           ;main.c: 35:     while(1){
  1807                           
  1808     04A3                     l28:	
  1809                           ;main.c: 37:     }
  1810                           
  1811     04A3  2CA3               	goto	l27
  1812     04A4  120A  118A  280E   	ljmp	start
  1813     04A7                     __end_of_main:
  1814                           
  1815                           	psect	text1
  1816     031F                     __ptext1:	
  1817 ;; *************** function _write_Digital *****************
  1818 ;; Defined at:
  1819 ;;		line 168 in file "../../Sources/16F887/io.c"
  1820 ;; Parameters:    Size  Location     Type
  1821 ;;  var_pin         1    wreg     enum E1456
  1822 ;;  value           1    0[BANK0 ] unsigned char 
  1823 ;; Auto vars:     Size  Location     Type
  1824 ;;  var_pin         1    4[BANK0 ] enum E1456
  1825 ;;  var_PortNumb    1    3[BANK0 ] unsigned char 
  1826 ;; Return value:  Size  Location     Type
  1827 ;;                  1    wreg      void 
  1828 ;; Registers used:
  1829 ;;		wreg, fsr0l, fsr0h, status,2, status,0
  1830 ;; Tracked objects:
  1831 ;;		On entry : 0/0
  1832 ;;		On exit  : 0/0
  1833 ;;		Unchanged: 0/0
  1834 ;; Data sizes:     COMMON   BANK0   BANK1   BANK3   BANK2
  1835 ;;      Params:         0       1       0       0       0
  1836 ;;      Locals:         0       2       0       0       0
  1837 ;;      Temps:          0       2       0       0       0
  1838 ;;      Totals:         0       5       0       0       0
  1839 ;;Total ram usage:        5 bytes
  1840 ;; Hardware stack levels used: 1
  1841 ;; Hardware stack levels required when called: 2
  1842 ;; This function calls:
  1843 ;;		Nothing
  1844 ;; This function is called by:
  1845 ;;		_main
  1846 ;;		_write_byte
  1847 ;;		_lcd_BusyCheck
  1848 ;;		_lcd_SendCMDSignlas
  1849 ;;		_lcd_SendDataSignlas
  1850 ;;		_lcd_SendHigherData
  1851 ;;		_lcd_SendLowerData
  1852 ;; This function uses a non-reentrant model
  1853 ;;
  1854                           
  1855     031F                     _write_Digital:	
  1856                           ;psect for function _write_Digital
  1857                           
  1858                           
  1859                           ;incstack = 0
  1860                           ; Regs used in _write_Digital: [wreg-fsr0h+status,2+status,0]
  1861                           ;write_Digital@var_pin stored from wreg
  1862     031F  1283               	bcf	3,5	;RP0=0, select bank0
  1863     0320  1303               	bcf	3,6	;RP1=0, select bank0
  1864     0321  00BA               	movwf	write_Digital@var_pin
  1865     0322                     l3946:
  1866                           
  1867                           ;../../Sources/16F887/io.c: 169: ;../../Sources/16F887/io.c: 170:     switch(var_PortNum
      +                          ){
  1868     0322  083A               	movf	write_Digital@var_pin,w
  1869     0323  00B7               	movwf	??_write_Digital
  1870     0324  3003               	movlw	3
  1871     0325                     u3565:
  1872     0325  1003               	clrc
  1873     0326  0CB7               	rrf	??_write_Digital,f
  1874     0327  3EFF               	addlw	-1
  1875     0328  1D03               	skipz
  1876     0329  2B25               	goto	u3565
  1877     032A  0837               	movf	??_write_Digital,w
  1878     032B  00B9               	movwf	write_Digital@var_PortNumber
  1879     032C                     l3948:
  1880                           
  1881                           ;../../Sources/16F887/io.c: 171:         case 0:
  1882     032C  083A               	movf	write_Digital@var_pin,w
  1883     032D  3907               	andlw	7
  1884     032E  00BA               	movwf	write_Digital@var_pin
  1885                           
  1886                           ;../../Sources/16F887/io.c: 173:             break;
  1887     032F  2BDA               	goto	l3982
  1888     0330                     l3950:
  1889                           
  1890                           ;../../Sources/16F887/io.c: 175:             returnStatus = (((PORTB)&((1<<(var_pin))))!
      +                          =0u);
  1891     0330  0836               	movf	write_Digital@value,w
  1892     0331  1903               	btfsc	3,2
  1893     0332  2B34               	goto	u3571
  1894     0333  2B35               	goto	u3570
  1895     0334                     u3571:
  1896     0334  2B43               	goto	l3954
  1897     0335                     u3570:
  1898     0335                     l3952:
  1899     0335  3001               	movlw	1
  1900     0336  00B7               	movwf	??_write_Digital
  1901     0337  0A3A               	incf	write_Digital@var_pin,w
  1902     0338  2B3B               	goto	u3584
  1903     0339                     u3585:
  1904     0339  1003               	clrc
  1905     033A  0DB7               	rlf	??_write_Digital,f
  1906     033B                     u3584:
  1907     033B  3EFF               	addlw	-1
  1908     033C  1D03               	skipz
  1909     033D  2B39               	goto	u3585
  1910     033E  0837               	movf	??_write_Digital,w
  1911     033F  00B8               	movwf	??_write_Digital+1
  1912     0340  0838               	movf	??_write_Digital+1,w
  1913     0341  0485               	iorwf	5,f	;volatile
  1914     0342  2BF3               	goto	l469
  1915     0343                     l3954:
  1916     0343  3001               	movlw	1
  1917     0344  00B7               	movwf	??_write_Digital
  1918     0345  0A3A               	incf	write_Digital@var_pin,w
  1919     0346  2B49               	goto	u3594
  1920     0347                     u3595:
  1921     0347  1003               	clrc
  1922     0348  0DB7               	rlf	??_write_Digital,f
  1923     0349                     u3594:
  1924     0349  3EFF               	addlw	-1
  1925     034A  1D03               	skipz
  1926     034B  2B47               	goto	u3595
  1927     034C  0837               	movf	??_write_Digital,w
  1928     034D  3AFF               	xorlw	255
  1929     034E  00B8               	movwf	??_write_Digital+1
  1930     034F  0838               	movf	??_write_Digital+1,w
  1931     0350  0585               	andwf	5,f	;volatile
  1932     0351  2BF3               	goto	l469
  1933     0352                     l3956:
  1934                           
  1935                           ;../../Sources/16F887/io.c: 178:             returnStatus = (((PORTC)&((1<<(var_pin))))!
      +                          =0u);
  1936     0352  0836               	movf	write_Digital@value,w
  1937     0353  1903               	btfsc	3,2
  1938     0354  2B56               	goto	u3601
  1939     0355  2B57               	goto	u3600
  1940     0356                     u3601:
  1941     0356  2B65               	goto	l3960
  1942     0357                     u3600:
  1943     0357                     l3958:
  1944     0357  3001               	movlw	1
  1945     0358  00B7               	movwf	??_write_Digital
  1946     0359  0A3A               	incf	write_Digital@var_pin,w
  1947     035A  2B5D               	goto	u3614
  1948     035B                     u3615:
  1949     035B  1003               	clrc
  1950     035C  0DB7               	rlf	??_write_Digital,f
  1951     035D                     u3614:
  1952     035D  3EFF               	addlw	-1
  1953     035E  1D03               	skipz
  1954     035F  2B5B               	goto	u3615
  1955     0360  0837               	movf	??_write_Digital,w
  1956     0361  00B8               	movwf	??_write_Digital+1
  1957     0362  0838               	movf	??_write_Digital+1,w
  1958     0363  0486               	iorwf	6,f	;volatile
  1959     0364  2BF3               	goto	l469
  1960     0365                     l3960:
  1961     0365  3001               	movlw	1
  1962     0366  00B7               	movwf	??_write_Digital
  1963     0367  0A3A               	incf	write_Digital@var_pin,w
  1964     0368  2B6B               	goto	u3624
  1965     0369                     u3625:
  1966     0369  1003               	clrc
  1967     036A  0DB7               	rlf	??_write_Digital,f
  1968     036B                     u3624:
  1969     036B  3EFF               	addlw	-1
  1970     036C  1D03               	skipz
  1971     036D  2B69               	goto	u3625
  1972     036E  0837               	movf	??_write_Digital,w
  1973     036F  3AFF               	xorlw	255
  1974     0370  00B8               	movwf	??_write_Digital+1
  1975     0371  0838               	movf	??_write_Digital+1,w
  1976     0372  0586               	andwf	6,f	;volatile
  1977     0373  2BF3               	goto	l469
  1978     0374                     l3962:
  1979                           
  1980                           ;../../Sources/16F887/io.c: 181:             returnStatus = (((PORTD)&((1<<(var_pin))))!
      +                          =0u);
  1981     0374  0836               	movf	write_Digital@value,w
  1982     0375  1903               	btfsc	3,2
  1983     0376  2B78               	goto	u3631
  1984     0377  2B79               	goto	u3630
  1985     0378                     u3631:
  1986     0378  2B87               	goto	l3966
  1987     0379                     u3630:
  1988     0379                     l3964:
  1989     0379  3001               	movlw	1
  1990     037A  00B7               	movwf	??_write_Digital
  1991     037B  0A3A               	incf	write_Digital@var_pin,w
  1992     037C  2B7F               	goto	u3644
  1993     037D                     u3645:
  1994     037D  1003               	clrc
  1995     037E  0DB7               	rlf	??_write_Digital,f
  1996     037F                     u3644:
  1997     037F  3EFF               	addlw	-1
  1998     0380  1D03               	skipz
  1999     0381  2B7D               	goto	u3645
  2000     0382  0837               	movf	??_write_Digital,w
  2001     0383  00B8               	movwf	??_write_Digital+1
  2002     0384  0838               	movf	??_write_Digital+1,w
  2003     0385  0487               	iorwf	7,f	;volatile
  2004     0386  2BF3               	goto	l469
  2005     0387                     l3966:
  2006     0387  3001               	movlw	1
  2007     0388  00B7               	movwf	??_write_Digital
  2008     0389  0A3A               	incf	write_Digital@var_pin,w
  2009     038A  2B8D               	goto	u3654
  2010     038B                     u3655:
  2011     038B  1003               	clrc
  2012     038C  0DB7               	rlf	??_write_Digital,f
  2013     038D                     u3654:
  2014     038D  3EFF               	addlw	-1
  2015     038E  1D03               	skipz
  2016     038F  2B8B               	goto	u3655
  2017     0390  0837               	movf	??_write_Digital,w
  2018     0391  3AFF               	xorlw	255
  2019     0392  00B8               	movwf	??_write_Digital+1
  2020     0393  0838               	movf	??_write_Digital+1,w
  2021     0394  0587               	andwf	7,f	;volatile
  2022     0395  2BF3               	goto	l469
  2023     0396                     l3968:
  2024                           
  2025                           ;../../Sources/16F887/io.c: 184:             returnStatus = (((PORTE)&((1<<(var_pin))))!
      +                          =0u);
  2026     0396  0836               	movf	write_Digital@value,w
  2027     0397  1903               	btfsc	3,2
  2028     0398  2B9A               	goto	u3661
  2029     0399  2B9B               	goto	u3660
  2030     039A                     u3661:
  2031     039A  2BA9               	goto	l3972
  2032     039B                     u3660:
  2033     039B                     l3970:
  2034     039B  3001               	movlw	1
  2035     039C  00B7               	movwf	??_write_Digital
  2036     039D  0A3A               	incf	write_Digital@var_pin,w
  2037     039E  2BA1               	goto	u3674
  2038     039F                     u3675:
  2039     039F  1003               	clrc
  2040     03A0  0DB7               	rlf	??_write_Digital,f
  2041     03A1                     u3674:
  2042     03A1  3EFF               	addlw	-1
  2043     03A2  1D03               	skipz
  2044     03A3  2B9F               	goto	u3675
  2045     03A4  0837               	movf	??_write_Digital,w
  2046     03A5  00B8               	movwf	??_write_Digital+1
  2047     03A6  0838               	movf	??_write_Digital+1,w
  2048     03A7  0488               	iorwf	8,f	;volatile
  2049     03A8  2BF3               	goto	l469
  2050     03A9                     l3972:
  2051     03A9  3001               	movlw	1
  2052     03AA  00B7               	movwf	??_write_Digital
  2053     03AB  0A3A               	incf	write_Digital@var_pin,w
  2054     03AC  2BAF               	goto	u3684
  2055     03AD                     u3685:
  2056     03AD  1003               	clrc
  2057     03AE  0DB7               	rlf	??_write_Digital,f
  2058     03AF                     u3684:
  2059     03AF  3EFF               	addlw	-1
  2060     03B0  1D03               	skipz
  2061     03B1  2BAD               	goto	u3685
  2062     03B2  0837               	movf	??_write_Digital,w
  2063     03B3  3AFF               	xorlw	255
  2064     03B4  00B8               	movwf	??_write_Digital+1
  2065     03B5  0838               	movf	??_write_Digital+1,w
  2066     03B6  0588               	andwf	8,f	;volatile
  2067     03B7  2BF3               	goto	l469
  2068     03B8                     l3974:
  2069                           
  2070                           ;../../Sources/16F887/io.c: 187:     return returnStatus;
  2071     03B8  0836               	movf	write_Digital@value,w
  2072     03B9  1903               	btfsc	3,2
  2073     03BA  2BBC               	goto	u3691
  2074     03BB  2BBD               	goto	u3690
  2075     03BC                     u3691:
  2076     03BC  2BCB               	goto	l3978
  2077     03BD                     u3690:
  2078     03BD                     l3976:
  2079     03BD  3001               	movlw	1
  2080     03BE  00B7               	movwf	??_write_Digital
  2081     03BF  0A3A               	incf	write_Digital@var_pin,w
  2082     03C0  2BC3               	goto	u3704
  2083     03C1                     u3705:
  2084     03C1  1003               	clrc
  2085     03C2  0DB7               	rlf	??_write_Digital,f
  2086     03C3                     u3704:
  2087     03C3  3EFF               	addlw	-1
  2088     03C4  1D03               	skipz
  2089     03C5  2BC1               	goto	u3705
  2090     03C6  0837               	movf	??_write_Digital,w
  2091     03C7  00B8               	movwf	??_write_Digital+1
  2092     03C8  0838               	movf	??_write_Digital+1,w
  2093     03C9  0489               	iorwf	9,f	;volatile
  2094     03CA  2BF3               	goto	l469
  2095     03CB                     l3978:
  2096     03CB  3001               	movlw	1
  2097     03CC  00B7               	movwf	??_write_Digital
  2098     03CD  0A3A               	incf	write_Digital@var_pin,w
  2099     03CE  2BD1               	goto	u3714
  2100     03CF                     u3715:
  2101     03CF  1003               	clrc
  2102     03D0  0DB7               	rlf	??_write_Digital,f
  2103     03D1                     u3714:
  2104     03D1  3EFF               	addlw	-1
  2105     03D2  1D03               	skipz
  2106     03D3  2BCF               	goto	u3715
  2107     03D4  0837               	movf	??_write_Digital,w
  2108     03D5  3AFF               	xorlw	255
  2109     03D6  00B8               	movwf	??_write_Digital+1
  2110     03D7  0838               	movf	??_write_Digital+1,w
  2111     03D8  0589               	andwf	9,f	;volatile
  2112     03D9  2BF3               	goto	l469
  2113     03DA                     l3982:
  2114     03DA  0839               	movf	write_Digital@var_PortNumber,w
  2115     03DB  00B7               	movwf	??_write_Digital
  2116     03DC  01B8               	clrf	??_write_Digital+1
  2117                           
  2118                           ; Switch on 2 bytes has been partitioned into a top level switch of size 1, and 1 sub-sw
      +                          itches
  2119                           ; Switch size 1, requested type "simple"
  2120                           ; Number of cases is 1, Range of values is 0 to 0
  2121                           ; switch strategies available:
  2122                           ; Name         Instructions Cycles
  2123                           ; simple_byte            4     3 (average)
  2124                           ; direct_byte           11     8 (fixed)
  2125                           ; jumptable            260     6 (fixed)
  2126                           ;	Chosen strategy is simple_byte
  2127     03DD  0838               	movf	??_write_Digital+1,w
  2128     03DE  3A00               	xorlw	0	; case 0
  2129     03DF  1903               	skipnz
  2130     03E0  2BE2               	goto	l4880
  2131     03E1  2BF3               	goto	l469
  2132     03E2                     l4880:
  2133                           
  2134                           ; Switch size 1, requested type "simple"
  2135                           ; Number of cases is 5, Range of values is 0 to 4
  2136                           ; switch strategies available:
  2137                           ; Name         Instructions Cycles
  2138                           ; simple_byte           16     9 (average)
  2139                           ; direct_byte           23     8 (fixed)
  2140                           ; jumptable            260     6 (fixed)
  2141                           ;	Chosen strategy is simple_byte
  2142     03E2  0837               	movf	??_write_Digital,w
  2143     03E3  3A00               	xorlw	0	; case 0
  2144     03E4  1903               	skipnz
  2145     03E5  2B30               	goto	l3950
  2146     03E6  3A01               	xorlw	1	; case 1
  2147     03E7  1903               	skipnz
  2148     03E8  2B52               	goto	l3956
  2149     03E9  3A03               	xorlw	3	; case 2
  2150     03EA  1903               	skipnz
  2151     03EB  2B74               	goto	l3962
  2152     03EC  3A01               	xorlw	1	; case 3
  2153     03ED  1903               	skipnz
  2154     03EE  2B96               	goto	l3968
  2155     03EF  3A07               	xorlw	7	; case 4
  2156     03F0  1903               	skipnz
  2157     03F1  2BB8               	goto	l3974
  2158     03F2  2BF3               	goto	l469
  2159     03F3                     l469:
  2160     03F3  0008               	return
  2161     03F4                     __end_of_write_Digital:
  2162                           
  2163                           	psect	text2
  2164     014F                     __ptext2:	
  2165 ;; *************** function _pin_Direction *****************
  2166 ;; Defined at:
  2167 ;;		line 35 in file "../../Sources/16F887/io.c"
  2168 ;; Parameters:    Size  Location     Type
  2169 ;;  var_pin         1    wreg     enum E1456
  2170 ;;  var_derectio    1    0[BANK0 ] unsigned char 
  2171 ;; Auto vars:     Size  Location     Type
  2172 ;;  var_pin         1    4[BANK0 ] enum E1456
  2173 ;;  var_PortNumb    1    3[BANK0 ] unsigned char 
  2174 ;; Return value:  Size  Location     Type
  2175 ;;                  1    wreg      void 
  2176 ;; Registers used:
  2177 ;;		wreg, fsr0l, fsr0h, status,2, status,0
  2178 ;; Tracked objects:
  2179 ;;		On entry : 0/0
  2180 ;;		On exit  : 0/0
  2181 ;;		Unchanged: 0/0
  2182 ;; Data sizes:     COMMON   BANK0   BANK1   BANK3   BANK2
  2183 ;;      Params:         0       1       0       0       0
  2184 ;;      Locals:         0       2       0       0       0
  2185 ;;      Temps:          0       2       0       0       0
  2186 ;;      Totals:         0       5       0       0       0
  2187 ;;Total ram usage:        5 bytes
  2188 ;; Hardware stack levels used: 1
  2189 ;; Hardware stack levels required when called: 2
  2190 ;; This function calls:
  2191 ;;		Nothing
  2192 ;; This function is called by:
  2193 ;;		_main
  2194 ;;		_LCD_Setup
  2195 ;;		_lcd_BusyCheck
  2196 ;;		_UART_Init
  2197 ;; This function uses a non-reentrant model
  2198 ;;
  2199                           
  2200     014F                     _pin_Direction:	
  2201                           ;psect for function _pin_Direction
  2202                           
  2203                           
  2204                           ;incstack = 0
  2205                           ; Regs used in _pin_Direction: [wreg-fsr0h+status,2+status,0]
  2206                           ;pin_Direction@var_pin stored from wreg
  2207     014F  1283               	bcf	3,5	;RP0=0, select bank0
  2208     0150  1303               	bcf	3,6	;RP1=0, select bank0
  2209     0151  00BA               	movwf	pin_Direction@var_pin
  2210     0152                     l3988:
  2211                           
  2212                           ;../../Sources/16F887/io.c: 36:             }else{;../../Sources/16F887/io.c: 37:       
      +                                    ANSELbits.ANS0 = 0;
  2213     0152  083A               	movf	pin_Direction@var_pin,w
  2214     0153  00B7               	movwf	??_pin_Direction
  2215     0154  3003               	movlw	3
  2216     0155                     u3725:
  2217     0155  1003               	clrc
  2218     0156  0CB7               	rrf	??_pin_Direction,f
  2219     0157  3EFF               	addlw	-1
  2220     0158  1D03               	skipz
  2221     0159  2955               	goto	u3725
  2222     015A  0837               	movf	??_pin_Direction,w
  2223     015B  00B9               	movwf	pin_Direction@var_PortNumber
  2224     015C                     l3990:
  2225                           
  2226                           ;../../Sources/16F887/io.c: 38:             }
  2227     015C  083A               	movf	pin_Direction@var_pin,w
  2228     015D  3907               	andlw	7
  2229     015E  00BA               	movwf	pin_Direction@var_pin
  2230                           
  2231                           ;../../Sources/16F887/io.c: 40:         case RA_1:
  2232     015F  2A1E               	goto	l4024
  2233     0160                     l3992:
  2234                           
  2235                           ;../../Sources/16F887/io.c: 42:                 ANSELbits.ANS1 = 1;
  2236     0160  0836               	movf	pin_Direction@var_derection,w
  2237     0161  1903               	btfsc	3,2
  2238     0162  2964               	goto	u3731
  2239     0163  2965               	goto	u3730
  2240     0164                     u3731:
  2241     0164  2975               	goto	l3996
  2242     0165                     u3730:
  2243     0165                     l3994:
  2244     0165  3001               	movlw	1
  2245     0166  00B7               	movwf	??_pin_Direction
  2246     0167  0A3A               	incf	pin_Direction@var_pin,w
  2247     0168  296B               	goto	u3744
  2248     0169                     u3745:
  2249     0169  1003               	clrc
  2250     016A  0DB7               	rlf	??_pin_Direction,f
  2251     016B                     u3744:
  2252     016B  3EFF               	addlw	-1
  2253     016C  1D03               	skipz
  2254     016D  2969               	goto	u3745
  2255     016E  0837               	movf	??_pin_Direction,w
  2256     016F  00B8               	movwf	??_pin_Direction+1
  2257     0170  0838               	movf	??_pin_Direction+1,w
  2258     0171  1683               	bsf	3,5	;RP0=1, select bank1
  2259     0172  1303               	bcf	3,6	;RP1=0, select bank1
  2260     0173  0485               	iorwf	5,f	;volatile
  2261     0174  2A37               	goto	l392
  2262     0175                     l3996:
  2263     0175  3001               	movlw	1
  2264     0176  00B7               	movwf	??_pin_Direction
  2265     0177  0A3A               	incf	pin_Direction@var_pin,w
  2266     0178  297B               	goto	u3754
  2267     0179                     u3755:
  2268     0179  1003               	clrc
  2269     017A  0DB7               	rlf	??_pin_Direction,f
  2270     017B                     u3754:
  2271     017B  3EFF               	addlw	-1
  2272     017C  1D03               	skipz
  2273     017D  2979               	goto	u3755
  2274     017E  0837               	movf	??_pin_Direction,w
  2275     017F  3AFF               	xorlw	255
  2276     0180  00B8               	movwf	??_pin_Direction+1
  2277     0181  0838               	movf	??_pin_Direction+1,w
  2278     0182  1683               	bsf	3,5	;RP0=1, select bank1
  2279     0183  1303               	bcf	3,6	;RP1=0, select bank1
  2280     0184  0585               	andwf	5,f	;volatile
  2281     0185  2A37               	goto	l392
  2282     0186                     l3998:
  2283                           
  2284                           ;../../Sources/16F887/io.c: 45:             }
  2285     0186  0836               	movf	pin_Direction@var_derection,w
  2286     0187  1903               	btfsc	3,2
  2287     0188  298A               	goto	u3761
  2288     0189  298B               	goto	u3760
  2289     018A                     u3761:
  2290     018A  299B               	goto	l4002
  2291     018B                     u3760:
  2292     018B                     l4000:
  2293     018B  3001               	movlw	1
  2294     018C  00B7               	movwf	??_pin_Direction
  2295     018D  0A3A               	incf	pin_Direction@var_pin,w
  2296     018E  2991               	goto	u3774
  2297     018F                     u3775:
  2298     018F  1003               	clrc
  2299     0190  0DB7               	rlf	??_pin_Direction,f
  2300     0191                     u3774:
  2301     0191  3EFF               	addlw	-1
  2302     0192  1D03               	skipz
  2303     0193  298F               	goto	u3775
  2304     0194  0837               	movf	??_pin_Direction,w
  2305     0195  00B8               	movwf	??_pin_Direction+1
  2306     0196  0838               	movf	??_pin_Direction+1,w
  2307     0197  1683               	bsf	3,5	;RP0=1, select bank1
  2308     0198  1303               	bcf	3,6	;RP1=0, select bank1
  2309     0199  0486               	iorwf	6,f	;volatile
  2310     019A  2A37               	goto	l392
  2311     019B                     l4002:
  2312     019B  3001               	movlw	1
  2313     019C  00B7               	movwf	??_pin_Direction
  2314     019D  0A3A               	incf	pin_Direction@var_pin,w
  2315     019E  29A1               	goto	u3784
  2316     019F                     u3785:
  2317     019F  1003               	clrc
  2318     01A0  0DB7               	rlf	??_pin_Direction,f
  2319     01A1                     u3784:
  2320     01A1  3EFF               	addlw	-1
  2321     01A2  1D03               	skipz
  2322     01A3  299F               	goto	u3785
  2323     01A4  0837               	movf	??_pin_Direction,w
  2324     01A5  3AFF               	xorlw	255
  2325     01A6  00B8               	movwf	??_pin_Direction+1
  2326     01A7  0838               	movf	??_pin_Direction+1,w
  2327     01A8  1683               	bsf	3,5	;RP0=1, select bank1
  2328     01A9  1303               	bcf	3,6	;RP1=0, select bank1
  2329     01AA  0586               	andwf	6,f	;volatile
  2330     01AB  2A37               	goto	l392
  2331     01AC                     l4004:
  2332                           
  2333                           ;../../Sources/16F887/io.c: 48:             if(mode == 0x01){
  2334     01AC  0836               	movf	pin_Direction@var_derection,w
  2335     01AD  1903               	btfsc	3,2
  2336     01AE  29B0               	goto	u3791
  2337     01AF  29B1               	goto	u3790
  2338     01B0                     u3791:
  2339     01B0  29C1               	goto	l4008
  2340     01B1                     u3790:
  2341     01B1                     l4006:
  2342     01B1  3001               	movlw	1
  2343     01B2  00B7               	movwf	??_pin_Direction
  2344     01B3  0A3A               	incf	pin_Direction@var_pin,w
  2345     01B4  29B7               	goto	u3804
  2346     01B5                     u3805:
  2347     01B5  1003               	clrc
  2348     01B6  0DB7               	rlf	??_pin_Direction,f
  2349     01B7                     u3804:
  2350     01B7  3EFF               	addlw	-1
  2351     01B8  1D03               	skipz
  2352     01B9  29B5               	goto	u3805
  2353     01BA  0837               	movf	??_pin_Direction,w
  2354     01BB  00B8               	movwf	??_pin_Direction+1
  2355     01BC  0838               	movf	??_pin_Direction+1,w
  2356     01BD  1683               	bsf	3,5	;RP0=1, select bank1
  2357     01BE  1303               	bcf	3,6	;RP1=0, select bank1
  2358     01BF  0487               	iorwf	7,f	;volatile
  2359     01C0  2A37               	goto	l392
  2360     01C1                     l4008:
  2361     01C1  3001               	movlw	1
  2362     01C2  00B7               	movwf	??_pin_Direction
  2363     01C3  0A3A               	incf	pin_Direction@var_pin,w
  2364     01C4  29C7               	goto	u3814
  2365     01C5                     u3815:
  2366     01C5  1003               	clrc
  2367     01C6  0DB7               	rlf	??_pin_Direction,f
  2368     01C7                     u3814:
  2369     01C7  3EFF               	addlw	-1
  2370     01C8  1D03               	skipz
  2371     01C9  29C5               	goto	u3815
  2372     01CA  0837               	movf	??_pin_Direction,w
  2373     01CB  3AFF               	xorlw	255
  2374     01CC  00B8               	movwf	??_pin_Direction+1
  2375     01CD  0838               	movf	??_pin_Direction+1,w
  2376     01CE  1683               	bsf	3,5	;RP0=1, select bank1
  2377     01CF  1303               	bcf	3,6	;RP1=0, select bank1
  2378     01D0  0587               	andwf	7,f	;volatile
  2379     01D1  2A37               	goto	l392
  2380     01D2                     l4010:
  2381                           
  2382                           ;../../Sources/16F887/io.c: 51:                 ANSELbits.ANS2 = 0;
  2383     01D2  0836               	movf	pin_Direction@var_derection,w
  2384     01D3  1903               	btfsc	3,2
  2385     01D4  29D6               	goto	u3821
  2386     01D5  29D7               	goto	u3820
  2387     01D6                     u3821:
  2388     01D6  29E7               	goto	l4014
  2389     01D7                     u3820:
  2390     01D7                     l4012:
  2391     01D7  3001               	movlw	1
  2392     01D8  00B7               	movwf	??_pin_Direction
  2393     01D9  0A3A               	incf	pin_Direction@var_pin,w
  2394     01DA  29DD               	goto	u3834
  2395     01DB                     u3835:
  2396     01DB  1003               	clrc
  2397     01DC  0DB7               	rlf	??_pin_Direction,f
  2398     01DD                     u3834:
  2399     01DD  3EFF               	addlw	-1
  2400     01DE  1D03               	skipz
  2401     01DF  29DB               	goto	u3835
  2402     01E0  0837               	movf	??_pin_Direction,w
  2403     01E1  00B8               	movwf	??_pin_Direction+1
  2404     01E2  0838               	movf	??_pin_Direction+1,w
  2405     01E3  1683               	bsf	3,5	;RP0=1, select bank1
  2406     01E4  1303               	bcf	3,6	;RP1=0, select bank1
  2407     01E5  0488               	iorwf	8,f	;volatile
  2408     01E6  2A37               	goto	l392
  2409     01E7                     l4014:
  2410     01E7  3001               	movlw	1
  2411     01E8  00B7               	movwf	??_pin_Direction
  2412     01E9  0A3A               	incf	pin_Direction@var_pin,w
  2413     01EA  29ED               	goto	u3844
  2414     01EB                     u3845:
  2415     01EB  1003               	clrc
  2416     01EC  0DB7               	rlf	??_pin_Direction,f
  2417     01ED                     u3844:
  2418     01ED  3EFF               	addlw	-1
  2419     01EE  1D03               	skipz
  2420     01EF  29EB               	goto	u3845
  2421     01F0  0837               	movf	??_pin_Direction,w
  2422     01F1  3AFF               	xorlw	255
  2423     01F2  00B8               	movwf	??_pin_Direction+1
  2424     01F3  0838               	movf	??_pin_Direction+1,w
  2425     01F4  1683               	bsf	3,5	;RP0=1, select bank1
  2426     01F5  1303               	bcf	3,6	;RP1=0, select bank1
  2427     01F6  0588               	andwf	8,f	;volatile
  2428     01F7  2A37               	goto	l392
  2429     01F8                     l4016:
  2430                           
  2431                           ;../../Sources/16F887/io.c: 54:         case RA_3:
  2432     01F8  0836               	movf	pin_Direction@var_derection,w
  2433     01F9  1903               	btfsc	3,2
  2434     01FA  29FC               	goto	u3851
  2435     01FB  29FD               	goto	u3850
  2436     01FC                     u3851:
  2437     01FC  2A0D               	goto	l4020
  2438     01FD                     u3850:
  2439     01FD                     l4018:
  2440     01FD  3001               	movlw	1
  2441     01FE  00B7               	movwf	??_pin_Direction
  2442     01FF  0A3A               	incf	pin_Direction@var_pin,w
  2443     0200  2A03               	goto	u3864
  2444     0201                     u3865:
  2445     0201  1003               	clrc
  2446     0202  0DB7               	rlf	??_pin_Direction,f
  2447     0203                     u3864:
  2448     0203  3EFF               	addlw	-1
  2449     0204  1D03               	skipz
  2450     0205  2A01               	goto	u3865
  2451     0206  0837               	movf	??_pin_Direction,w
  2452     0207  00B8               	movwf	??_pin_Direction+1
  2453     0208  0838               	movf	??_pin_Direction+1,w
  2454     0209  1683               	bsf	3,5	;RP0=1, select bank1
  2455     020A  1303               	bcf	3,6	;RP1=0, select bank1
  2456     020B  0489               	iorwf	9,f	;volatile
  2457     020C  2A37               	goto	l392
  2458     020D                     l4020:
  2459     020D  3001               	movlw	1
  2460     020E  00B7               	movwf	??_pin_Direction
  2461     020F  0A3A               	incf	pin_Direction@var_pin,w
  2462     0210  2A13               	goto	u3874
  2463     0211                     u3875:
  2464     0211  1003               	clrc
  2465     0212  0DB7               	rlf	??_pin_Direction,f
  2466     0213                     u3874:
  2467     0213  3EFF               	addlw	-1
  2468     0214  1D03               	skipz
  2469     0215  2A11               	goto	u3875
  2470     0216  0837               	movf	??_pin_Direction,w
  2471     0217  3AFF               	xorlw	255
  2472     0218  00B8               	movwf	??_pin_Direction+1
  2473     0219  0838               	movf	??_pin_Direction+1,w
  2474     021A  1683               	bsf	3,5	;RP0=1, select bank1
  2475     021B  1303               	bcf	3,6	;RP1=0, select bank1
  2476     021C  0589               	andwf	9,f	;volatile
  2477     021D  2A37               	goto	l392
  2478     021E                     l4024:
  2479     021E  0839               	movf	pin_Direction@var_PortNumber,w
  2480     021F  00B7               	movwf	??_pin_Direction
  2481     0220  01B8               	clrf	??_pin_Direction+1
  2482                           
  2483                           ; Switch on 2 bytes has been partitioned into a top level switch of size 1, and 1 sub-sw
      +                          itches
  2484                           ; Switch size 1, requested type "simple"
  2485                           ; Number of cases is 1, Range of values is 0 to 0
  2486                           ; switch strategies available:
  2487                           ; Name         Instructions Cycles
  2488                           ; simple_byte            4     3 (average)
  2489                           ; direct_byte           11     8 (fixed)
  2490                           ; jumptable            260     6 (fixed)
  2491                           ;	Chosen strategy is simple_byte
  2492     0221  0838               	movf	??_pin_Direction+1,w
  2493     0222  3A00               	xorlw	0	; case 0
  2494     0223  1903               	skipnz
  2495     0224  2A26               	goto	l4882
  2496     0225  2A37               	goto	l392
  2497     0226                     l4882:
  2498                           
  2499                           ; Switch size 1, requested type "simple"
  2500                           ; Number of cases is 5, Range of values is 0 to 4
  2501                           ; switch strategies available:
  2502                           ; Name         Instructions Cycles
  2503                           ; simple_byte           16     9 (average)
  2504                           ; direct_byte           23     8 (fixed)
  2505                           ; jumptable            260     6 (fixed)
  2506                           ;	Chosen strategy is simple_byte
  2507     0226  0837               	movf	??_pin_Direction,w
  2508     0227  3A00               	xorlw	0	; case 0
  2509     0228  1903               	skipnz
  2510     0229  2960               	goto	l3992
  2511     022A  3A01               	xorlw	1	; case 1
  2512     022B  1903               	skipnz
  2513     022C  2986               	goto	l3998
  2514     022D  3A03               	xorlw	3	; case 2
  2515     022E  1903               	skipnz
  2516     022F  29AC               	goto	l4004
  2517     0230  3A01               	xorlw	1	; case 3
  2518     0231  1903               	skipnz
  2519     0232  29D2               	goto	l4010
  2520     0233  3A07               	xorlw	7	; case 4
  2521     0234  1903               	skipnz
  2522     0235  29F8               	goto	l4016
  2523     0236  2A37               	goto	l392
  2524     0237                     l392:
  2525     0237  0008               	return
  2526     0238                     __end_of_pin_Direction:
  2527                           
  2528                           	psect	text3
  2529     003A                     __ptext3:	
  2530 ;; *************** function _TMR0_enable *****************
  2531 ;; Defined at:
  2532 ;;		line 36 in file "../../Sources/16F887/timer.c"
  2533 ;; Parameters:    Size  Location     Type
  2534 ;;  PSA             1    wreg     _Bool 
  2535 ;;  Prescaler       2    6[BANK0 ] int 
  2536 ;;  clk_src         1    8[BANK0 ] PTR unsigned char 
  2537 ;;		 -> STR_1(6), 
  2538 ;;  edge_src        1    9[BANK0 ] PTR unsigned char 
  2539 ;;		 -> STR_2(5), 
  2540 ;; Auto vars:     Size  Location     Type
  2541 ;;  PSA             1   11[BANK0 ] _Bool 
  2542 ;;  x_PSA           2   18[BANK0 ] unsigned int 
  2543 ;;  x_edge_src      2   14[BANK0 ] unsigned int 
  2544 ;;  x_clk_src       2   12[BANK0 ] unsigned int 
  2545 ;;  var_Prescale    1   20[BANK0 ] unsigned char 
  2546 ;;  var_Settings    1   17[BANK0 ] unsigned char 
  2547 ;;  var_OPTIONS     1   16[BANK0 ] unsigned char 
  2548 ;; Return value:  Size  Location     Type
  2549 ;;                  1    wreg      void 
  2550 ;; Registers used:
  2551 ;;		wreg, fsr0l, fsr0h, status,2, status,0, pclath, cstack
  2552 ;; Tracked objects:
  2553 ;;		On entry : 0/0
  2554 ;;		On exit  : 0/0
  2555 ;;		Unchanged: 0/0
  2556 ;; Data sizes:     COMMON   BANK0   BANK1   BANK3   BANK2
  2557 ;;      Params:         0       4       0       0       0
  2558 ;;      Locals:         0      10       0       0       0
  2559 ;;      Temps:          0       1       0       0       0
  2560 ;;      Totals:         0      15       0       0       0
  2561 ;;Total ram usage:       15 bytes
  2562 ;; Hardware stack levels used: 1
  2563 ;; Hardware stack levels required when called: 3
  2564 ;; This function calls:
  2565 ;;		_strcmp
  2566 ;; This function is called by:
  2567 ;;		_main
  2568 ;; This function uses a non-reentrant model
  2569 ;;
  2570                           
  2571     003A                     _TMR0_enable:	
  2572                           ;psect for function _TMR0_enable
  2573                           
  2574                           
  2575                           ;incstack = 0
  2576                           ; Regs used in _TMR0_enable: [wreg-fsr0h+status,2+status,0+pclath+cstack]
  2577                           ;TMR0_enable@PSA stored from wreg
  2578     003A  1283               	bcf	3,5	;RP0=0, select bank0
  2579     003B  1303               	bcf	3,6	;RP1=0, select bank0
  2580     003C  00C1               	movwf	TMR0_enable@PSA
  2581     003D                     l4030:
  2582                           
  2583                           ;../../Sources/16F887/timer.c: 37:     bit x_PSA;;../../Sources/16F887/timer.c: 38:     
      +                          bit x_clk_src;;../../Sources/16F887/timer.c: 39:     bit x_edge_src;;../../Sources/16F88
      +                          7/timer.c: 40:     uint8_t var_OPTIONS;;../../Sources/16F887/timer.c: 41:     uint8_t va
      +                          r_Settings;;../../Sources/16F887/timer.c: 42:     uint8_t var_Prescaler;;../../Sources/1
      +                          6F887/timer.c: 44:     if(!strcmp(clk_src,"FOSC4")){
  2584     003D  302F               	movlw	(low ((STR_1-__stringbase)| (0+32768)))& (0+255)
  2585     003E  00B6               	movwf	strcmp@s2
  2586     003F  083E               	movf	TMR0_enable@clk_src,w
  2587     0040  120A  118A  2443  120A  118A  	fcall	_strcmp
  2588     0045  1283               	bcf	3,5	;RP0=0, select bank0
  2589     0046  1303               	bcf	3,6	;RP1=0, select bank0
  2590     0047  0836               	movf	?_strcmp,w
  2591     0048  0437               	iorwf	?_strcmp+1,w
  2592     0049  1D03               	btfss	3,2
  2593     004A  284C               	goto	u3881
  2594     004B  284D               	goto	u3880
  2595     004C                     u3881:
  2596     004C  2850               	goto	l4034
  2597     004D                     u3880:
  2598     004D                     l4032:
  2599                           
  2600                           ;../../Sources/16F887/timer.c: 45:         x_clk_src = 0;
  2601     004D  01C2               	clrf	TMR0_enable@x_clk_src
  2602     004E  01C3               	clrf	TMR0_enable@x_clk_src+1
  2603                           
  2604                           ;../../Sources/16F887/timer.c: 46:     }else if(!strcmp(clk_src,"T0CKI")){
  2605     004F  288D               	goto	l4046
  2606     0050                     l4034:
  2607     0050  3023               	movlw	(low ((STR_6-__stringbase)| (0+32768)))& (0+255)
  2608     0051  00B6               	movwf	strcmp@s2
  2609     0052  083E               	movf	TMR0_enable@clk_src,w
  2610     0053  120A  118A  2443  120A  118A  	fcall	_strcmp
  2611     0058  1283               	bcf	3,5	;RP0=0, select bank0
  2612     0059  1303               	bcf	3,6	;RP1=0, select bank0
  2613     005A  0836               	movf	?_strcmp,w
  2614     005B  0437               	iorwf	?_strcmp+1,w
  2615     005C  1D03               	btfss	3,2
  2616     005D  285F               	goto	u3891
  2617     005E  2860               	goto	u3890
  2618     005F                     u3891:
  2619     005F  2865               	goto	l4038
  2620     0060                     u3890:
  2621     0060                     l4036:
  2622                           
  2623                           ;../../Sources/16F887/timer.c: 47:         x_clk_src = 1;
  2624     0060  3001               	movlw	1
  2625     0061  00C2               	movwf	TMR0_enable@x_clk_src
  2626     0062  3000               	movlw	0
  2627     0063  00C3               	movwf	TMR0_enable@x_clk_src+1
  2628                           
  2629                           ;../../Sources/16F887/timer.c: 48:     }else if(!strcmp(edge_src,"HIGH")){
  2630     0064  288D               	goto	l4046
  2631     0065                     l4038:
  2632     0065  3035               	movlw	(low ((STR_2-__stringbase)| (0+32768)))& (0+255)
  2633     0066  00B6               	movwf	strcmp@s2
  2634     0067  083F               	movf	TMR0_enable@edge_src,w
  2635     0068  120A  118A  2443  120A  118A  	fcall	_strcmp
  2636     006D  1283               	bcf	3,5	;RP0=0, select bank0
  2637     006E  1303               	bcf	3,6	;RP1=0, select bank0
  2638     006F  0836               	movf	?_strcmp,w
  2639     0070  0437               	iorwf	?_strcmp+1,w
  2640     0071  1D03               	btfss	3,2
  2641     0072  2874               	goto	u3901
  2642     0073  2875               	goto	u3900
  2643     0074                     u3901:
  2644     0074  287A               	goto	l4042
  2645     0075                     u3900:
  2646     0075                     l4040:
  2647                           
  2648                           ;../../Sources/16F887/timer.c: 49:         x_edge_src = 1;
  2649     0075  3001               	movlw	1
  2650     0076  00C4               	movwf	TMR0_enable@x_edge_src
  2651     0077  3000               	movlw	0
  2652     0078  00C5               	movwf	TMR0_enable@x_edge_src+1
  2653                           
  2654                           ;../../Sources/16F887/timer.c: 50:     }else if(!strcmp(edge_src,"LOW")){
  2655     0079  288D               	goto	l4046
  2656     007A                     l4042:
  2657     007A  303A               	movlw	(low ((STR_10-__stringbase)| (0+32768)))& (0+255)
  2658     007B  00B6               	movwf	strcmp@s2
  2659     007C  083F               	movf	TMR0_enable@edge_src,w
  2660     007D  120A  118A  2443  120A  118A  	fcall	_strcmp
  2661     0082  1283               	bcf	3,5	;RP0=0, select bank0
  2662     0083  1303               	bcf	3,6	;RP1=0, select bank0
  2663     0084  0836               	movf	?_strcmp,w
  2664     0085  0437               	iorwf	?_strcmp+1,w
  2665     0086  1D03               	btfss	3,2
  2666     0087  2889               	goto	u3911
  2667     0088  288A               	goto	u3910
  2668     0089                     u3911:
  2669     0089  288D               	goto	l1010
  2670     008A                     u3910:
  2671     008A                     l4044:
  2672                           
  2673                           ;../../Sources/16F887/timer.c: 51:         x_edge_src = 0;
  2674     008A  01C4               	clrf	TMR0_enable@x_edge_src
  2675     008B  01C5               	clrf	TMR0_enable@x_edge_src+1
  2676     008C  288D               	goto	l4046
  2677     008D                     l1010:
  2678     008D                     l4046:
  2679                           
  2680                           ;../../Sources/16F887/timer.c: 54:     if(PSA){
  2681     008D  0841               	movf	TMR0_enable@PSA,w
  2682     008E  1903               	btfsc	3,2
  2683     008F  2891               	goto	u3921
  2684     0090  2892               	goto	u3920
  2685     0091                     u3921:
  2686     0091  2897               	goto	l4050
  2687     0092                     u3920:
  2688     0092                     l4048:
  2689                           
  2690                           ;../../Sources/16F887/timer.c: 55:         x_PSA = 1;
  2691     0092  3001               	movlw	1
  2692     0093  00C8               	movwf	TMR0_enable@x_PSA
  2693     0094  3000               	movlw	0
  2694     0095  00C9               	movwf	TMR0_enable@x_PSA+1
  2695                           
  2696                           ;../../Sources/16F887/timer.c: 56:     }else{
  2697     0096  2899               	goto	l4052
  2698     0097                     l4050:
  2699                           
  2700                           ;../../Sources/16F887/timer.c: 57:         x_PSA = 0;
  2701     0097  01C8               	clrf	TMR0_enable@x_PSA
  2702     0098  01C9               	clrf	TMR0_enable@x_PSA+1
  2703     0099                     l4052:
  2704                           
  2705                           ;../../Sources/16F887/timer.c: 60:     var_Settings = x_edge_src;
  2706     0099  0844               	movf	TMR0_enable@x_edge_src,w
  2707     009A  00C7               	movwf	TMR0_enable@var_Settings
  2708     009B                     l4054:
  2709                           
  2710                           ;../../Sources/16F887/timer.c: 61:     var_Settings = (var_Settings << 1) | x_clk_src;
  2711     009B  0847               	movf	TMR0_enable@var_Settings,w
  2712     009C  00C0               	movwf	??_TMR0_enable
  2713     009D  0740               	addwf	??_TMR0_enable,w
  2714     009E  0442               	iorwf	TMR0_enable@x_clk_src,w
  2715     009F  00C7               	movwf	TMR0_enable@var_Settings
  2716                           
  2717                           ;../../Sources/16F887/timer.c: 63:     switch(Prescaler){
  2718     00A0  2918               	goto	l4094
  2719     00A1                     l4056:
  2720                           
  2721                           ;../../Sources/16F887/timer.c: 65:             var_Prescaler = x_PSA;
  2722     00A1  0848               	movf	TMR0_enable@x_PSA,w
  2723     00A2  00CA               	movwf	TMR0_enable@var_Prescaler
  2724     00A3                     l4058:
  2725                           
  2726                           ;../../Sources/16F887/timer.c: 66:             var_Prescaler = (var_Prescaler << 3) | 0x
      +                          0;
  2727     00A3  084A               	movf	TMR0_enable@var_Prescaler,w
  2728     00A4  00C0               	movwf	??_TMR0_enable
  2729     00A5  3002               	movlw	2
  2730     00A6                     u3935:
  2731     00A6  1003               	clrc
  2732     00A7  0DC0               	rlf	??_TMR0_enable,f
  2733     00A8  3EFF               	addlw	-1
  2734     00A9  1D03               	skipz
  2735     00AA  28A6               	goto	u3935
  2736     00AB  1003               	clrc
  2737     00AC  0D40               	rlf	??_TMR0_enable,w
  2738     00AD  00CA               	movwf	TMR0_enable@var_Prescaler
  2739                           
  2740                           ;../../Sources/16F887/timer.c: 67:             break;
  2741     00AE  293C               	goto	l4096
  2742     00AF                     l4060:
  2743                           
  2744                           ;../../Sources/16F887/timer.c: 69:             var_Prescaler = x_PSA;
  2745     00AF  0848               	movf	TMR0_enable@x_PSA,w
  2746     00B0  00CA               	movwf	TMR0_enable@var_Prescaler
  2747     00B1                     l4062:
  2748                           
  2749                           ;../../Sources/16F887/timer.c: 70:             var_Prescaler = (var_Prescaler << 3) | 0x
      +                          1;
  2750     00B1  084A               	movf	TMR0_enable@var_Prescaler,w
  2751     00B2  00C0               	movwf	??_TMR0_enable
  2752     00B3  3002               	movlw	2
  2753     00B4                     u3945:
  2754     00B4  1003               	clrc
  2755     00B5  0DC0               	rlf	??_TMR0_enable,f
  2756     00B6  3EFF               	addlw	-1
  2757     00B7  1D03               	skipz
  2758     00B8  28B4               	goto	u3945
  2759     00B9  1003               	clrc
  2760     00BA  0D40               	rlf	??_TMR0_enable,w
  2761     00BB  3801               	iorlw	1
  2762     00BC  00CA               	movwf	TMR0_enable@var_Prescaler
  2763                           
  2764                           ;../../Sources/16F887/timer.c: 71:             break;
  2765     00BD  293C               	goto	l4096
  2766     00BE                     l4064:
  2767                           
  2768                           ;../../Sources/16F887/timer.c: 73:             var_Prescaler = x_PSA;
  2769     00BE  0848               	movf	TMR0_enable@x_PSA,w
  2770     00BF  00CA               	movwf	TMR0_enable@var_Prescaler
  2771     00C0                     l4066:
  2772                           
  2773                           ;../../Sources/16F887/timer.c: 74:             var_Prescaler = (var_Prescaler << 3) | 0x
      +                          2;
  2774     00C0  084A               	movf	TMR0_enable@var_Prescaler,w
  2775     00C1  00C0               	movwf	??_TMR0_enable
  2776     00C2  3002               	movlw	2
  2777     00C3                     u3955:
  2778     00C3  1003               	clrc
  2779     00C4  0DC0               	rlf	??_TMR0_enable,f
  2780     00C5  3EFF               	addlw	-1
  2781     00C6  1D03               	skipz
  2782     00C7  28C3               	goto	u3955
  2783     00C8  1003               	clrc
  2784     00C9  0D40               	rlf	??_TMR0_enable,w
  2785     00CA  3802               	iorlw	2
  2786     00CB  00CA               	movwf	TMR0_enable@var_Prescaler
  2787                           
  2788                           ;../../Sources/16F887/timer.c: 75:             break;
  2789     00CC  293C               	goto	l4096
  2790     00CD                     l4068:
  2791                           
  2792                           ;../../Sources/16F887/timer.c: 77:             var_Prescaler = x_PSA;
  2793     00CD  0848               	movf	TMR0_enable@x_PSA,w
  2794     00CE  00CA               	movwf	TMR0_enable@var_Prescaler
  2795     00CF                     l4070:
  2796                           
  2797                           ;../../Sources/16F887/timer.c: 78:             var_Prescaler = (var_Prescaler << 3) | 0x
      +                          3;
  2798     00CF  084A               	movf	TMR0_enable@var_Prescaler,w
  2799     00D0  00C0               	movwf	??_TMR0_enable
  2800     00D1  3002               	movlw	2
  2801     00D2                     u3965:
  2802     00D2  1003               	clrc
  2803     00D3  0DC0               	rlf	??_TMR0_enable,f
  2804     00D4  3EFF               	addlw	-1
  2805     00D5  1D03               	skipz
  2806     00D6  28D2               	goto	u3965
  2807     00D7  1003               	clrc
  2808     00D8  0D40               	rlf	??_TMR0_enable,w
  2809     00D9  3803               	iorlw	3
  2810     00DA  00CA               	movwf	TMR0_enable@var_Prescaler
  2811                           
  2812                           ;../../Sources/16F887/timer.c: 79:             break;
  2813     00DB  293C               	goto	l4096
  2814     00DC                     l4072:
  2815                           
  2816                           ;../../Sources/16F887/timer.c: 81:             var_Prescaler = x_PSA;
  2817     00DC  0848               	movf	TMR0_enable@x_PSA,w
  2818     00DD  00CA               	movwf	TMR0_enable@var_Prescaler
  2819     00DE                     l4074:
  2820                           
  2821                           ;../../Sources/16F887/timer.c: 82:             var_Prescaler = (var_Prescaler << 3) | 0x
      +                          4;
  2822     00DE  084A               	movf	TMR0_enable@var_Prescaler,w
  2823     00DF  00C0               	movwf	??_TMR0_enable
  2824     00E0  3002               	movlw	2
  2825     00E1                     u3975:
  2826     00E1  1003               	clrc
  2827     00E2  0DC0               	rlf	??_TMR0_enable,f
  2828     00E3  3EFF               	addlw	-1
  2829     00E4  1D03               	skipz
  2830     00E5  28E1               	goto	u3975
  2831     00E6  1003               	clrc
  2832     00E7  0D40               	rlf	??_TMR0_enable,w
  2833     00E8  3804               	iorlw	4
  2834     00E9  00CA               	movwf	TMR0_enable@var_Prescaler
  2835                           
  2836                           ;../../Sources/16F887/timer.c: 83:             break;
  2837     00EA  293C               	goto	l4096
  2838     00EB                     l4076:
  2839                           
  2840                           ;../../Sources/16F887/timer.c: 85:             var_Prescaler = x_PSA;
  2841     00EB  0848               	movf	TMR0_enable@x_PSA,w
  2842     00EC  00CA               	movwf	TMR0_enable@var_Prescaler
  2843     00ED                     l4078:
  2844                           
  2845                           ;../../Sources/16F887/timer.c: 86:             var_Prescaler = (var_Prescaler << 3) | 0x
      +                          5;
  2846     00ED  084A               	movf	TMR0_enable@var_Prescaler,w
  2847     00EE  00C0               	movwf	??_TMR0_enable
  2848     00EF  3002               	movlw	2
  2849     00F0                     u3985:
  2850     00F0  1003               	clrc
  2851     00F1  0DC0               	rlf	??_TMR0_enable,f
  2852     00F2  3EFF               	addlw	-1
  2853     00F3  1D03               	skipz
  2854     00F4  28F0               	goto	u3985
  2855     00F5  1003               	clrc
  2856     00F6  0D40               	rlf	??_TMR0_enable,w
  2857     00F7  3805               	iorlw	5
  2858     00F8  00CA               	movwf	TMR0_enable@var_Prescaler
  2859                           
  2860                           ;../../Sources/16F887/timer.c: 87:             break;
  2861     00F9  293C               	goto	l4096
  2862     00FA                     l4080:
  2863                           
  2864                           ;../../Sources/16F887/timer.c: 89:             var_Prescaler = x_PSA;
  2865     00FA  0848               	movf	TMR0_enable@x_PSA,w
  2866     00FB  00CA               	movwf	TMR0_enable@var_Prescaler
  2867     00FC                     l4082:
  2868                           
  2869                           ;../../Sources/16F887/timer.c: 90:             var_Prescaler = (var_Prescaler << 3) | 0x
      +                          6;
  2870     00FC  084A               	movf	TMR0_enable@var_Prescaler,w
  2871     00FD  00C0               	movwf	??_TMR0_enable
  2872     00FE  3002               	movlw	2
  2873     00FF                     u3995:
  2874     00FF  1003               	clrc
  2875     0100  0DC0               	rlf	??_TMR0_enable,f
  2876     0101  3EFF               	addlw	-1
  2877     0102  1D03               	skipz
  2878     0103  28FF               	goto	u3995
  2879     0104  1003               	clrc
  2880     0105  0D40               	rlf	??_TMR0_enable,w
  2881     0106  3806               	iorlw	6
  2882     0107  00CA               	movwf	TMR0_enable@var_Prescaler
  2883                           
  2884                           ;../../Sources/16F887/timer.c: 91:             break;
  2885     0108  293C               	goto	l4096
  2886     0109                     l4084:
  2887                           
  2888                           ;../../Sources/16F887/timer.c: 93:             var_Prescaler = x_PSA;
  2889     0109  0848               	movf	TMR0_enable@x_PSA,w
  2890     010A  00CA               	movwf	TMR0_enable@var_Prescaler
  2891     010B                     l4086:
  2892                           
  2893                           ;../../Sources/16F887/timer.c: 94:             var_Prescaler = (var_Prescaler << 3) | 0x
      +                          7;
  2894     010B  084A               	movf	TMR0_enable@var_Prescaler,w
  2895     010C  00C0               	movwf	??_TMR0_enable
  2896     010D  3002               	movlw	2
  2897     010E                     u4005:
  2898     010E  1003               	clrc
  2899     010F  0DC0               	rlf	??_TMR0_enable,f
  2900     0110  3EFF               	addlw	-1
  2901     0111  1D03               	skipz
  2902     0112  290E               	goto	u4005
  2903     0113  1003               	clrc
  2904     0114  0D40               	rlf	??_TMR0_enable,w
  2905     0115  3807               	iorlw	7
  2906     0116  00CA               	movwf	TMR0_enable@var_Prescaler
  2907                           
  2908                           ;../../Sources/16F887/timer.c: 95:             break;
  2909     0117  293C               	goto	l4096
  2910     0118                     l4094:
  2911                           
  2912                           ; Switch on 2 bytes has been partitioned into a top level switch of size 1, and 2 sub-sw
      +                          itches
  2913                           ; Switch size 1, requested type "simple"
  2914                           ; Number of cases is 2, Range of values is 0 to 1
  2915                           ; switch strategies available:
  2916                           ; Name         Instructions Cycles
  2917                           ; simple_byte            7     4 (average)
  2918                           ; direct_byte           14     8 (fixed)
  2919                           ; jumptable            260     6 (fixed)
  2920                           ;	Chosen strategy is simple_byte
  2921     0118  083D               	movf	TMR0_enable@Prescaler+1,w
  2922     0119  3A00               	xorlw	0	; case 0
  2923     011A  1903               	skipnz
  2924     011B  2920               	goto	l4884
  2925     011C  3A01               	xorlw	1	; case 1
  2926     011D  1903               	skipnz
  2927     011E  2937               	goto	l4886
  2928     011F  28A1               	goto	l4056
  2929     0120                     l4884:
  2930                           
  2931                           ; Switch size 1, requested type "simple"
  2932                           ; Number of cases is 7, Range of values is 2 to 128
  2933                           ; switch strategies available:
  2934                           ; Name         Instructions Cycles
  2935                           ; simple_byte           22    12 (average)
  2936                           ; jumptable            263     9 (fixed)
  2937                           ;	Chosen strategy is simple_byte
  2938     0120  083C               	movf	TMR0_enable@Prescaler,w
  2939     0121  3A02               	xorlw	2	; case 2
  2940     0122  1903               	skipnz
  2941     0123  28A1               	goto	l4056
  2942     0124  3A06               	xorlw	6	; case 4
  2943     0125  1903               	skipnz
  2944     0126  28AF               	goto	l4060
  2945     0127  3A0C               	xorlw	12	; case 8
  2946     0128  1903               	skipnz
  2947     0129  28BE               	goto	l4064
  2948     012A  3A18               	xorlw	24	; case 16
  2949     012B  1903               	skipnz
  2950     012C  28CD               	goto	l4068
  2951     012D  3A30               	xorlw	48	; case 32
  2952     012E  1903               	skipnz
  2953     012F  28DC               	goto	l4072
  2954     0130  3A60               	xorlw	96	; case 64
  2955     0131  1903               	skipnz
  2956     0132  28EB               	goto	l4076
  2957     0133  3AC0               	xorlw	192	; case 128
  2958     0134  1903               	skipnz
  2959     0135  28FA               	goto	l4080
  2960     0136  28A1               	goto	l4056
  2961     0137                     l4886:
  2962                           
  2963                           ; Switch size 1, requested type "simple"
  2964                           ; Number of cases is 1, Range of values is 0 to 0
  2965                           ; switch strategies available:
  2966                           ; Name         Instructions Cycles
  2967                           ; simple_byte            4     3 (average)
  2968                           ; direct_byte           11     8 (fixed)
  2969                           ; jumptable            260     6 (fixed)
  2970                           ;	Chosen strategy is simple_byte
  2971     0137  083C               	movf	TMR0_enable@Prescaler,w
  2972     0138  3A00               	xorlw	0	; case 0
  2973     0139  1903               	skipnz
  2974     013A  2909               	goto	l4084
  2975     013B  28A1               	goto	l4056
  2976     013C                     l4096:
  2977                           
  2978                           ;../../Sources/16F887/timer.c: 102:     var_OPTIONS = var_Settings;
  2979     013C  0847               	movf	TMR0_enable@var_Settings,w
  2980     013D  00C6               	movwf	TMR0_enable@var_OPTIONS
  2981     013E                     l4098:
  2982                           
  2983                           ;../../Sources/16F887/timer.c: 103:     var_OPTIONS = (var_OPTIONS << 4) | var_Prescaler
      +                          ;
  2984     013E  0846               	movf	TMR0_enable@var_OPTIONS,w
  2985     013F  00C0               	movwf	??_TMR0_enable
  2986     0140  3003               	movlw	3
  2987     0141                     u4015:
  2988     0141  1003               	clrc
  2989     0142  0DC0               	rlf	??_TMR0_enable,f
  2990     0143  3EFF               	addlw	-1
  2991     0144  1D03               	skipz
  2992     0145  2941               	goto	u4015
  2993     0146  1003               	clrc
  2994     0147  0D40               	rlf	??_TMR0_enable,w
  2995     0148  044A               	iorwf	TMR0_enable@var_Prescaler,w
  2996     0149  00C6               	movwf	TMR0_enable@var_OPTIONS
  2997     014A                     l4100:
  2998                           
  2999                           ;../../Sources/16F887/timer.c: 105:     OPTION_REG = var_OPTIONS;
  3000     014A  0846               	movf	TMR0_enable@var_OPTIONS,w
  3001     014B  1683               	bsf	3,5	;RP0=1, select bank1
  3002     014C  1303               	bcf	3,6	;RP1=0, select bank1
  3003     014D  0081               	movwf	1	;volatile
  3004     014E                     l1027:
  3005     014E  0008               	return
  3006     014F                     __end_of_TMR0_enable:
  3007                           
  3008                           	psect	text4
  3009     0443                     __ptext4:	
  3010 ;; *************** function _strcmp *****************
  3011 ;; Defined at:
  3012 ;;		line 33 in file "A:\Program_Files\Microchip\xc8\v2.40\pic\sources\c90\common\strcmp.c"
  3013 ;; Parameters:    Size  Location     Type
  3014 ;;  s1              1    wreg     PTR const unsigned char 
  3015 ;;		 -> STR_2(5), STR_1(6), 
  3016 ;;  s2              1    0[BANK0 ] PTR const unsigned char 
  3017 ;;		 -> STR_15(6), STR_13(6), STR_11(4), STR_9(5), 
  3018 ;;		 -> STR_7(6), STR_5(6), 
  3019 ;; Auto vars:     Size  Location     Type
  3020 ;;  s1              1    5[BANK0 ] PTR const unsigned char 
  3021 ;;		 -> STR_2(5), STR_1(6), 
  3022 ;;  r               1    4[BANK0 ] char 
  3023 ;; Return value:  Size  Location     Type
  3024 ;;                  2    0[BANK0 ] int 
  3025 ;; Registers used:
  3026 ;;		wreg, fsr0l, fsr0h, status,2, status,0, pclath
  3027 ;; Tracked objects:
  3028 ;;		On entry : 0/0
  3029 ;;		On exit  : 0/0
  3030 ;;		Unchanged: 0/0
  3031 ;; Data sizes:     COMMON   BANK0   BANK1   BANK3   BANK2
  3032 ;;      Params:         0       2       0       0       0
  3033 ;;      Locals:         0       2       0       0       0
  3034 ;;      Temps:          0       2       0       0       0
  3035 ;;      Totals:         0       6       0       0       0
  3036 ;;Total ram usage:        6 bytes
  3037 ;; Hardware stack levels used: 1
  3038 ;; Hardware stack levels required when called: 2
  3039 ;; This function calls:
  3040 ;;		Nothing
  3041 ;; This function is called by:
  3042 ;;		_TMR0_enable
  3043 ;;		_TMR1_enable
  3044 ;; This function uses a non-reentrant model
  3045 ;;
  3046                           
  3047     0443                     _strcmp:	
  3048                           ;psect for function _strcmp
  3049                           
  3050                           
  3051                           ;incstack = 0
  3052                           ; Regs used in _strcmp: [wreg-fsr0h+status,2+status,0+pclath]
  3053                           ;strcmp@s1 stored from wreg
  3054     0443  1283               	bcf	3,5	;RP0=0, select bank0
  3055     0444  1303               	bcf	3,6	;RP1=0, select bank0
  3056     0445  00BB               	movwf	strcmp@s1
  3057     0446                     l3932:
  3058     0446  2C4F               	goto	l3938
  3059     0447                     l3934:
  3060     0447  3001               	movlw	1
  3061     0448  00B8               	movwf	??_strcmp
  3062     0449  0838               	movf	??_strcmp,w
  3063     044A  07BB               	addwf	strcmp@s1,f
  3064     044B                     l3936:
  3065     044B  3001               	movlw	1
  3066     044C  00B8               	movwf	??_strcmp
  3067     044D  0838               	movf	??_strcmp,w
  3068     044E  07B6               	addwf	strcmp@s2,f
  3069     044F                     l3938:
  3070     044F  0836               	movf	strcmp@s2,w
  3071     0450  0084               	movwf	4
  3072     0451  120A  118A  2400  120A  118A  	fcall	stringdir
  3073     0456  00B8               	movwf	??_strcmp
  3074     0457  083B               	movf	strcmp@s1,w
  3075     0458  0084               	movwf	4
  3076     0459  120A  118A  2400  120A  118A  	fcall	stringdir
  3077     045E  00B9               	movwf	??_strcmp+1
  3078     045F  0838               	movf	??_strcmp,w
  3079     0460  0239               	subwf	??_strcmp+1,w
  3080     0461  00BA               	movwf	strcmp@r
  3081     0462  083A               	movf	strcmp@r,w
  3082     0463  1D03               	btfss	3,2
  3083     0464  2C66               	goto	u3541
  3084     0465  2C67               	goto	u3540
  3085     0466                     u3541:
  3086     0466  2C73               	goto	l3942
  3087     0467                     u3540:
  3088     0467                     l3940:
  3089     0467  083B               	movf	strcmp@s1,w
  3090     0468  0084               	movwf	4
  3091     0469  120A  118A  2400  120A  118A  	fcall	stringdir
  3092     046E  3A00               	xorlw	0
  3093     046F  1D03               	skipz
  3094     0470  2C72               	goto	u3551
  3095     0471  2C73               	goto	u3550
  3096     0472                     u3551:
  3097     0472  2C47               	goto	l3934
  3098     0473                     u3550:
  3099     0473                     l3942:
  3100     0473  083A               	movf	strcmp@r,w
  3101     0474  00B6               	movwf	?_strcmp
  3102     0475  01B7               	clrf	?_strcmp+1
  3103     0476  1BB6               	btfsc	?_strcmp,7
  3104     0477  03B7               	decf	?_strcmp+1,f
  3105     0478                     l1706:
  3106     0478  0008               	return
  3107     0479                     __end_of_strcmp:
  3108                           
  3109                           	psect	text5
  3110     04C8                     __ptext5:	
  3111 ;; *************** function _ExternalClock_Init *****************
  3112 ;; Defined at:
  3113 ;;		line 85 in file "../../Sources/16F887/oscillator.c"
  3114 ;; Parameters:    Size  Location     Type
  3115 ;;		None
  3116 ;; Auto vars:     Size  Location     Type
  3117 ;;		None
  3118 ;; Return value:  Size  Location     Type
  3119 ;;                  1    wreg      void 
  3120 ;; Registers used:
  3121 ;;		wreg
  3122 ;; Tracked objects:
  3123 ;;		On entry : 0/0
  3124 ;;		On exit  : 0/0
  3125 ;;		Unchanged: 0/0
  3126 ;; Data sizes:     COMMON   BANK0   BANK1   BANK3   BANK2
  3127 ;;      Params:         0       0       0       0       0
  3128 ;;      Locals:         0       0       0       0       0
  3129 ;;      Temps:          0       0       0       0       0
  3130 ;;      Totals:         0       0       0       0       0
  3131 ;;Total ram usage:        0 bytes
  3132 ;; Hardware stack levels used: 1
  3133 ;; Hardware stack levels required when called: 2
  3134 ;; This function calls:
  3135 ;;		Nothing
  3136 ;; This function is called by:
  3137 ;;		_main
  3138 ;; This function uses a non-reentrant model
  3139 ;;
  3140                           
  3141     04C8                     _ExternalClock_Init:	
  3142                           ;psect for function _ExternalClock_Init
  3143                           
  3144     04C8                     l4110:	
  3145                           ;incstack = 0
  3146                           ; Regs used in _ExternalClock_Init: [wreg]
  3147                           
  3148                           
  3149                           ;../../Sources/16F887/oscillator.c: 86:     OSCCON = 0x7E;
  3150     04C8  307E               	movlw	126
  3151     04C9  1683               	bsf	3,5	;RP0=1, select bank1
  3152     04CA  1303               	bcf	3,6	;RP1=0, select bank1
  3153     04CB  008F               	movwf	15	;volatile
  3154     04CC                     l924:
  3155     04CC  0008               	return
  3156     04CD                     __end_of_ExternalClock_Init:
  3157                           
  3158                           	psect	text6
  3159     04A7                     __ptext6:	
  3160 ;; *************** function _test *****************
  3161 ;; Defined at:
  3162 ;;		line 19 in file "main.c"
  3163 ;; Parameters:    Size  Location     Type
  3164 ;;		None
  3165 ;; Auto vars:     Size  Location     Type
  3166 ;;		None
  3167 ;; Return value:  Size  Location     Type
  3168 ;;                  1    wreg      void 
  3169 ;; Registers used:
  3170 ;;		wreg, fsr0l, fsr0h, status,2, status,0, pclath, cstack
  3171 ;; Tracked objects:
  3172 ;;		On entry : 0/0
  3173 ;;		On exit  : 0/0
  3174 ;;		Unchanged: 0/0
  3175 ;; Data sizes:     COMMON   BANK0   BANK1   BANK3   BANK2
  3176 ;;      Params:         0       0       0       0       0
  3177 ;;      Locals:         0       0       0       0       0
  3178 ;;      Temps:          3       0       0       0       0
  3179 ;;      Totals:         3       0       0       0       0
  3180 ;;Total ram usage:        3 bytes
  3181 ;; Hardware stack levels used: 1
  3182 ;; Hardware stack levels required when called: 1
  3183 ;; This function calls:
  3184 ;;		i1_write_Digital
  3185 ;; This function is called by:
  3186 ;;		Interrupt level 1
  3187 ;; This function uses a non-reentrant model
  3188 ;;
  3189                           
  3190     04A7                     _test:	
  3191                           ;psect for function _test
  3192                           
  3193     04A7                     i1l4442:
  3194                           
  3195                           ;main.c: 20:     while(INTCONbits.T0IF == 1){
  3196     04A7  2CB3               	goto	i1l4448
  3197     04A8                     i1l20:
  3198                           
  3199                           ;main.c: 21:         INTCONbits.T0IF = 0;
  3200     04A8  110B               	bcf	11,2	;volatile
  3201     04A9                     i1l4444:
  3202                           
  3203                           ;main.c: 22:         TMR0 = 0;
  3204     04A9  1283               	bcf	3,5	;RP0=0, select bank0
  3205     04AA  1303               	bcf	3,6	;RP1=0, select bank0
  3206     04AB  0181               	clrf	1	;volatile
  3207     04AC                     i1l4446:
  3208                           
  3209                           ;main.c: 23:         write_Digital(RD_1,0x00);
  3210     04AC  01F0               	clrf	i1write_Digital@value
  3211     04AD  3019               	movlw	25
  3212     04AE  120A  118A  2238  120A  118A  	fcall	i1_write_Digital
  3213     04B3                     i1l4448:
  3214                           
  3215                           ;main.c: 20:     while(INTCONbits.T0IF == 1){
  3216     04B3  190B               	btfsc	11,2	;volatile
  3217     04B4  2CB6               	goto	u452_21
  3218     04B5  2CB7               	goto	u452_20
  3219     04B6                     u452_21:
  3220     04B6  2CA8               	goto	i1l20
  3221     04B7                     u452_20:
  3222     04B7                     i1l22:
  3223     04B7  0877               	movf	??_test+2,w
  3224     04B8  008A               	movwf	10
  3225     04B9  0876               	movf	??_test+1,w
  3226     04BA  0084               	movwf	4
  3227     04BB  0E75               	swapf	??_test,w
  3228     04BC  0083               	movwf	3
  3229     04BD  0EFE               	swapf	btemp,f
  3230     04BE  0E7E               	swapf	btemp,w
  3231     04BF  0009               	retfie
  3232     04C0                     __end_of_test:
  3233                           
  3234                           	psect	intentry
  3235     0004                     __pintentry:	
  3236                           ;incstack = 0
  3237                           ; Regs used in _test: [wreg-fsr0h+status,2+status,0+pclath+cstack]
  3238                           
  3239     0004                     interrupt_function:
  3240     007E                     saved_w	set	btemp
  3241     0004  00FE               	movwf	btemp
  3242     0005  0E03               	swapf	3,w
  3243     0006  00F5               	movwf	??_test
  3244     0007  0804               	movf	4,w
  3245     0008  00F6               	movwf	??_test+1
  3246     0009  080A               	movf	10,w
  3247     000A  00F7               	movwf	??_test+2
  3248     000B  120A  118A  2CA7   	ljmp	_test
  3249                           
  3250                           	psect	text7
  3251     0238                     __ptext7:	
  3252 ;; *************** function i1_write_Digital *****************
  3253 ;; Defined at:
  3254 ;;		line 168 in file "../../Sources/16F887/io.c"
  3255 ;; Parameters:    Size  Location     Type
  3256 ;;  var_pin         1    wreg     enum E1456
  3257 ;;  value           1    0[COMMON] unsigned char 
  3258 ;; Auto vars:     Size  Location     Type
  3259 ;;  var_pin         1    4[COMMON] enum E1456
  3260 ;;  var_PortNumb    1    3[COMMON] unsigned char 
  3261 ;; Return value:  Size  Location     Type
  3262 ;;                  1    wreg      void 
  3263 ;; Registers used:
  3264 ;;		wreg, fsr0l, fsr0h, status,2, status,0
  3265 ;; Tracked objects:
  3266 ;;		On entry : 0/0
  3267 ;;		On exit  : 0/0
  3268 ;;		Unchanged: 0/0
  3269 ;; Data sizes:     COMMON   BANK0   BANK1   BANK3   BANK2
  3270 ;;      Params:         1       0       0       0       0
  3271 ;;      Locals:         2       0       0       0       0
  3272 ;;      Temps:          2       0       0       0       0
  3273 ;;      Totals:         5       0       0       0       0
  3274 ;;Total ram usage:        5 bytes
  3275 ;; Hardware stack levels used: 1
  3276 ;; This function calls:
  3277 ;;		Nothing
  3278 ;; This function is called by:
  3279 ;;		_test
  3280 ;; This function uses a non-reentrant model
  3281 ;;
  3282                           
  3283     0238                     i1_write_Digital:	
  3284                           ;psect for function i1_write_Digital
  3285                           
  3286                           
  3287                           ;incstack = 0
  3288                           ; Regs used in i1_write_Digital: [wreg-fsr0h+status,2+status,0]
  3289                           ;i1write_Digital@var_pin stored from wreg
  3290     0238  00F4               	movwf	i1write_Digital@var_pin
  3291     0239                     i1l4400:
  3292                           
  3293                           ;../../Sources/16F887/io.c: 169: ;../../Sources/16F887/io.c: 170:     switch(var_PortNum
      +                          ){
  3294     0239  0874               	movf	i1write_Digital@var_pin,w
  3295     023A  00F1               	movwf	??i1_write_Digital
  3296     023B  3003               	movlw	3
  3297     023C                     u436_25:
  3298     023C  1003               	clrc
  3299     023D  0CF1               	rrf	??i1_write_Digital,f
  3300     023E  3EFF               	addlw	-1
  3301     023F  1D03               	skipz
  3302     0240  2A3C               	goto	u436_25
  3303     0241  0871               	movf	??i1_write_Digital,w
  3304     0242  00F3               	movwf	i1write_Digital@var_PortNumber
  3305     0243                     i1l4402:
  3306                           
  3307                           ;../../Sources/16F887/io.c: 171:         case 0:
  3308     0243  0874               	movf	i1write_Digital@var_pin,w
  3309     0244  3907               	andlw	7
  3310     0245  00F4               	movwf	i1write_Digital@var_pin
  3311                           
  3312                           ;../../Sources/16F887/io.c: 173:             break;
  3313     0246  2B05               	goto	i1l4436
  3314     0247                     i1l4404:
  3315                           
  3316                           ;../../Sources/16F887/io.c: 175:             returnStatus = (((PORTB)&((1<<(var_pin))))!
      +                          =0u);
  3317     0247  0870               	movf	i1write_Digital@value,w
  3318     0248  1903               	btfsc	3,2
  3319     0249  2A4B               	goto	u437_21
  3320     024A  2A4C               	goto	u437_20
  3321     024B                     u437_21:
  3322     024B  2A5C               	goto	i1l4408
  3323     024C                     u437_20:
  3324     024C                     i1l4406:
  3325     024C  3001               	movlw	1
  3326     024D  00F1               	movwf	??i1_write_Digital
  3327     024E  0A74               	incf	i1write_Digital@var_pin,w
  3328     024F  2A52               	goto	u438_24
  3329     0250                     u438_25:
  3330     0250  1003               	clrc
  3331     0251  0DF1               	rlf	??i1_write_Digital,f
  3332     0252                     u438_24:
  3333     0252  3EFF               	addlw	-1
  3334     0253  1D03               	skipz
  3335     0254  2A50               	goto	u438_25
  3336     0255  0871               	movf	??i1_write_Digital,w
  3337     0256  00F2               	movwf	??i1_write_Digital+1
  3338     0257  0872               	movf	??i1_write_Digital+1,w
  3339     0258  1283               	bcf	3,5	;RP0=0, select bank0
  3340     0259  1303               	bcf	3,6	;RP1=0, select bank0
  3341     025A  0485               	iorwf	5,f	;volatile
  3342     025B  2B1E               	goto	i1l469
  3343     025C                     i1l4408:
  3344     025C  3001               	movlw	1
  3345     025D  00F1               	movwf	??i1_write_Digital
  3346     025E  0A74               	incf	i1write_Digital@var_pin,w
  3347     025F  2A62               	goto	u439_24
  3348     0260                     u439_25:
  3349     0260  1003               	clrc
  3350     0261  0DF1               	rlf	??i1_write_Digital,f
  3351     0262                     u439_24:
  3352     0262  3EFF               	addlw	-1
  3353     0263  1D03               	skipz
  3354     0264  2A60               	goto	u439_25
  3355     0265  0871               	movf	??i1_write_Digital,w
  3356     0266  3AFF               	xorlw	255
  3357     0267  00F2               	movwf	??i1_write_Digital+1
  3358     0268  0872               	movf	??i1_write_Digital+1,w
  3359     0269  1283               	bcf	3,5	;RP0=0, select bank0
  3360     026A  1303               	bcf	3,6	;RP1=0, select bank0
  3361     026B  0585               	andwf	5,f	;volatile
  3362     026C  2B1E               	goto	i1l469
  3363     026D                     i1l4410:
  3364                           
  3365                           ;../../Sources/16F887/io.c: 178:             returnStatus = (((PORTC)&((1<<(var_pin))))!
      +                          =0u);
  3366     026D  0870               	movf	i1write_Digital@value,w
  3367     026E  1903               	btfsc	3,2
  3368     026F  2A71               	goto	u440_21
  3369     0270  2A72               	goto	u440_20
  3370     0271                     u440_21:
  3371     0271  2A82               	goto	i1l4414
  3372     0272                     u440_20:
  3373     0272                     i1l4412:
  3374     0272  3001               	movlw	1
  3375     0273  00F1               	movwf	??i1_write_Digital
  3376     0274  0A74               	incf	i1write_Digital@var_pin,w
  3377     0275  2A78               	goto	u441_24
  3378     0276                     u441_25:
  3379     0276  1003               	clrc
  3380     0277  0DF1               	rlf	??i1_write_Digital,f
  3381     0278                     u441_24:
  3382     0278  3EFF               	addlw	-1
  3383     0279  1D03               	skipz
  3384     027A  2A76               	goto	u441_25
  3385     027B  0871               	movf	??i1_write_Digital,w
  3386     027C  00F2               	movwf	??i1_write_Digital+1
  3387     027D  0872               	movf	??i1_write_Digital+1,w
  3388     027E  1283               	bcf	3,5	;RP0=0, select bank0
  3389     027F  1303               	bcf	3,6	;RP1=0, select bank0
  3390     0280  0486               	iorwf	6,f	;volatile
  3391     0281  2B1E               	goto	i1l469
  3392     0282                     i1l4414:
  3393     0282  3001               	movlw	1
  3394     0283  00F1               	movwf	??i1_write_Digital
  3395     0284  0A74               	incf	i1write_Digital@var_pin,w
  3396     0285  2A88               	goto	u442_24
  3397     0286                     u442_25:
  3398     0286  1003               	clrc
  3399     0287  0DF1               	rlf	??i1_write_Digital,f
  3400     0288                     u442_24:
  3401     0288  3EFF               	addlw	-1
  3402     0289  1D03               	skipz
  3403     028A  2A86               	goto	u442_25
  3404     028B  0871               	movf	??i1_write_Digital,w
  3405     028C  3AFF               	xorlw	255
  3406     028D  00F2               	movwf	??i1_write_Digital+1
  3407     028E  0872               	movf	??i1_write_Digital+1,w
  3408     028F  1283               	bcf	3,5	;RP0=0, select bank0
  3409     0290  1303               	bcf	3,6	;RP1=0, select bank0
  3410     0291  0586               	andwf	6,f	;volatile
  3411     0292  2B1E               	goto	i1l469
  3412     0293                     i1l4416:
  3413                           
  3414                           ;../../Sources/16F887/io.c: 181:             returnStatus = (((PORTD)&((1<<(var_pin))))!
      +                          =0u);
  3415     0293  0870               	movf	i1write_Digital@value,w
  3416     0294  1903               	btfsc	3,2
  3417     0295  2A97               	goto	u443_21
  3418     0296  2A98               	goto	u443_20
  3419     0297                     u443_21:
  3420     0297  2AA8               	goto	i1l4420
  3421     0298                     u443_20:
  3422     0298                     i1l4418:
  3423     0298  3001               	movlw	1
  3424     0299  00F1               	movwf	??i1_write_Digital
  3425     029A  0A74               	incf	i1write_Digital@var_pin,w
  3426     029B  2A9E               	goto	u444_24
  3427     029C                     u444_25:
  3428     029C  1003               	clrc
  3429     029D  0DF1               	rlf	??i1_write_Digital,f
  3430     029E                     u444_24:
  3431     029E  3EFF               	addlw	-1
  3432     029F  1D03               	skipz
  3433     02A0  2A9C               	goto	u444_25
  3434     02A1  0871               	movf	??i1_write_Digital,w
  3435     02A2  00F2               	movwf	??i1_write_Digital+1
  3436     02A3  0872               	movf	??i1_write_Digital+1,w
  3437     02A4  1283               	bcf	3,5	;RP0=0, select bank0
  3438     02A5  1303               	bcf	3,6	;RP1=0, select bank0
  3439     02A6  0487               	iorwf	7,f	;volatile
  3440     02A7  2B1E               	goto	i1l469
  3441     02A8                     i1l4420:
  3442     02A8  3001               	movlw	1
  3443     02A9  00F1               	movwf	??i1_write_Digital
  3444     02AA  0A74               	incf	i1write_Digital@var_pin,w
  3445     02AB  2AAE               	goto	u445_24
  3446     02AC                     u445_25:
  3447     02AC  1003               	clrc
  3448     02AD  0DF1               	rlf	??i1_write_Digital,f
  3449     02AE                     u445_24:
  3450     02AE  3EFF               	addlw	-1
  3451     02AF  1D03               	skipz
  3452     02B0  2AAC               	goto	u445_25
  3453     02B1  0871               	movf	??i1_write_Digital,w
  3454     02B2  3AFF               	xorlw	255
  3455     02B3  00F2               	movwf	??i1_write_Digital+1
  3456     02B4  0872               	movf	??i1_write_Digital+1,w
  3457     02B5  1283               	bcf	3,5	;RP0=0, select bank0
  3458     02B6  1303               	bcf	3,6	;RP1=0, select bank0
  3459     02B7  0587               	andwf	7,f	;volatile
  3460     02B8  2B1E               	goto	i1l469
  3461     02B9                     i1l4422:
  3462                           
  3463                           ;../../Sources/16F887/io.c: 184:             returnStatus = (((PORTE)&((1<<(var_pin))))!
      +                          =0u);
  3464     02B9  0870               	movf	i1write_Digital@value,w
  3465     02BA  1903               	btfsc	3,2
  3466     02BB  2ABD               	goto	u446_21
  3467     02BC  2ABE               	goto	u446_20
  3468     02BD                     u446_21:
  3469     02BD  2ACE               	goto	i1l4426
  3470     02BE                     u446_20:
  3471     02BE                     i1l4424:
  3472     02BE  3001               	movlw	1
  3473     02BF  00F1               	movwf	??i1_write_Digital
  3474     02C0  0A74               	incf	i1write_Digital@var_pin,w
  3475     02C1  2AC4               	goto	u447_24
  3476     02C2                     u447_25:
  3477     02C2  1003               	clrc
  3478     02C3  0DF1               	rlf	??i1_write_Digital,f
  3479     02C4                     u447_24:
  3480     02C4  3EFF               	addlw	-1
  3481     02C5  1D03               	skipz
  3482     02C6  2AC2               	goto	u447_25
  3483     02C7  0871               	movf	??i1_write_Digital,w
  3484     02C8  00F2               	movwf	??i1_write_Digital+1
  3485     02C9  0872               	movf	??i1_write_Digital+1,w
  3486     02CA  1283               	bcf	3,5	;RP0=0, select bank0
  3487     02CB  1303               	bcf	3,6	;RP1=0, select bank0
  3488     02CC  0488               	iorwf	8,f	;volatile
  3489     02CD  2B1E               	goto	i1l469
  3490     02CE                     i1l4426:
  3491     02CE  3001               	movlw	1
  3492     02CF  00F1               	movwf	??i1_write_Digital
  3493     02D0  0A74               	incf	i1write_Digital@var_pin,w
  3494     02D1  2AD4               	goto	u448_24
  3495     02D2                     u448_25:
  3496     02D2  1003               	clrc
  3497     02D3  0DF1               	rlf	??i1_write_Digital,f
  3498     02D4                     u448_24:
  3499     02D4  3EFF               	addlw	-1
  3500     02D5  1D03               	skipz
  3501     02D6  2AD2               	goto	u448_25
  3502     02D7  0871               	movf	??i1_write_Digital,w
  3503     02D8  3AFF               	xorlw	255
  3504     02D9  00F2               	movwf	??i1_write_Digital+1
  3505     02DA  0872               	movf	??i1_write_Digital+1,w
  3506     02DB  1283               	bcf	3,5	;RP0=0, select bank0
  3507     02DC  1303               	bcf	3,6	;RP1=0, select bank0
  3508     02DD  0588               	andwf	8,f	;volatile
  3509     02DE  2B1E               	goto	i1l469
  3510     02DF                     i1l4428:
  3511                           
  3512                           ;../../Sources/16F887/io.c: 187:     return returnStatus;
  3513     02DF  0870               	movf	i1write_Digital@value,w
  3514     02E0  1903               	btfsc	3,2
  3515     02E1  2AE3               	goto	u449_21
  3516     02E2  2AE4               	goto	u449_20
  3517     02E3                     u449_21:
  3518     02E3  2AF4               	goto	i1l4432
  3519     02E4                     u449_20:
  3520     02E4                     i1l4430:
  3521     02E4  3001               	movlw	1
  3522     02E5  00F1               	movwf	??i1_write_Digital
  3523     02E6  0A74               	incf	i1write_Digital@var_pin,w
  3524     02E7  2AEA               	goto	u450_24
  3525     02E8                     u450_25:
  3526     02E8  1003               	clrc
  3527     02E9  0DF1               	rlf	??i1_write_Digital,f
  3528     02EA                     u450_24:
  3529     02EA  3EFF               	addlw	-1
  3530     02EB  1D03               	skipz
  3531     02EC  2AE8               	goto	u450_25
  3532     02ED  0871               	movf	??i1_write_Digital,w
  3533     02EE  00F2               	movwf	??i1_write_Digital+1
  3534     02EF  0872               	movf	??i1_write_Digital+1,w
  3535     02F0  1283               	bcf	3,5	;RP0=0, select bank0
  3536     02F1  1303               	bcf	3,6	;RP1=0, select bank0
  3537     02F2  0489               	iorwf	9,f	;volatile
  3538     02F3  2B1E               	goto	i1l469
  3539     02F4                     i1l4432:
  3540     02F4  3001               	movlw	1
  3541     02F5  00F1               	movwf	??i1_write_Digital
  3542     02F6  0A74               	incf	i1write_Digital@var_pin,w
  3543     02F7  2AFA               	goto	u451_24
  3544     02F8                     u451_25:
  3545     02F8  1003               	clrc
  3546     02F9  0DF1               	rlf	??i1_write_Digital,f
  3547     02FA                     u451_24:
  3548     02FA  3EFF               	addlw	-1
  3549     02FB  1D03               	skipz
  3550     02FC  2AF8               	goto	u451_25
  3551     02FD  0871               	movf	??i1_write_Digital,w
  3552     02FE  3AFF               	xorlw	255
  3553     02FF  00F2               	movwf	??i1_write_Digital+1
  3554     0300  0872               	movf	??i1_write_Digital+1,w
  3555     0301  1283               	bcf	3,5	;RP0=0, select bank0
  3556     0302  1303               	bcf	3,6	;RP1=0, select bank0
  3557     0303  0589               	andwf	9,f	;volatile
  3558     0304  2B1E               	goto	i1l469
  3559     0305                     i1l4436:
  3560     0305  0873               	movf	i1write_Digital@var_PortNumber,w
  3561     0306  00F1               	movwf	??i1_write_Digital
  3562     0307  01F2               	clrf	??i1_write_Digital+1
  3563                           
  3564                           ; Switch on 2 bytes has been partitioned into a top level switch of size 1, and 1 sub-sw
      +                          itches
  3565                           ; Switch size 1, requested type "simple"
  3566                           ; Number of cases is 1, Range of values is 0 to 0
  3567                           ; switch strategies available:
  3568                           ; Name         Instructions Cycles
  3569                           ; simple_byte            4     3 (average)
  3570                           ; direct_byte           11     8 (fixed)
  3571                           ; jumptable            260     6 (fixed)
  3572                           ;	Chosen strategy is simple_byte
  3573     0308  0872               	movf	??i1_write_Digital+1,w
  3574     0309  3A00               	xorlw	0	; case 0
  3575     030A  1903               	skipnz
  3576     030B  2B0D               	goto	i1l4888
  3577     030C  2B1E               	goto	i1l469
  3578     030D                     i1l4888:
  3579                           
  3580                           ; Switch size 1, requested type "simple"
  3581                           ; Number of cases is 5, Range of values is 0 to 4
  3582                           ; switch strategies available:
  3583                           ; Name         Instructions Cycles
  3584                           ; simple_byte           16     9 (average)
  3585                           ; direct_byte           23     8 (fixed)
  3586                           ; jumptable            260     6 (fixed)
  3587                           ;	Chosen strategy is simple_byte
  3588     030D  0871               	movf	??i1_write_Digital,w
  3589     030E  3A00               	xorlw	0	; case 0
  3590     030F  1903               	skipnz
  3591     0310  2A47               	goto	i1l4404
  3592     0311  3A01               	xorlw	1	; case 1
  3593     0312  1903               	skipnz
  3594     0313  2A6D               	goto	i1l4410
  3595     0314  3A03               	xorlw	3	; case 2
  3596     0315  1903               	skipnz
  3597     0316  2A93               	goto	i1l4416
  3598     0317  3A01               	xorlw	1	; case 3
  3599     0318  1903               	skipnz
  3600     0319  2AB9               	goto	i1l4422
  3601     031A  3A07               	xorlw	7	; case 4
  3602     031B  1903               	skipnz
  3603     031C  2ADF               	goto	i1l4428
  3604     031D  2B1E               	goto	i1l469
  3605     031E                     i1l469:
  3606     031E  0008               	return
  3607     031F                     __end_ofi1_write_Digital:
  3608     007E                     btemp	set	126	;btemp
  3609     007E                     wtemp0	set	126
  3610                           
  3611                           	psect	config
  3612                           
  3613                           ;Config register CONFIG1 @ 0x2007
  3614                           ;	Oscillator Selection bits
  3615                           ;	FOSC = HS, HS oscillator: High-speed crystal/resonator on RA6/OSC2/CLKOUT and RA7/OSC1
      +                          /CLKIN
  3616                           ;	Watchdog Timer Enable bit
  3617                           ;	WDTE = ON, WDT enabled
  3618                           ;	Power-up Timer Enable bit
  3619                           ;	PWRTE = OFF, PWRT disabled
  3620                           ;	RE3/MCLR pin function select bit
  3621                           ;	MCLRE = ON, RE3/MCLR pin function is MCLR
  3622                           ;	Code Protection bit
  3623                           ;	CP = OFF, Program memory code protection is disabled
  3624                           ;	Data Code Protection bit
  3625                           ;	CPD = OFF, Data memory code protection is disabled
  3626                           ;	Brown Out Reset Selection bits
  3627                           ;	BOREN = ON, BOR enabled
  3628                           ;	Internal External Switchover bit
  3629                           ;	IESO = ON, Internal/External Switchover mode is enabled
  3630                           ;	Fail-Safe Clock Monitor Enabled bit
  3631                           ;	FCMEN = OFF, Fail-Safe Clock Monitor is disabled
  3632                           ;	Low Voltage Programming Enable bit
  3633                           ;	LVP = OFF, RB3 pin has digital I/O, HV on MCLR must be used for programming
  3634                           ;	In-Circuit Debugger Mode bit
  3635                           ;	DEBUG = 0x1, unprogrammed default
  3636     2007                     	org	8199
  3637     2007  27FA               	dw	10234
  3638                           
  3639                           ;Config register CONFIG2 @ 0x2008
  3640                           ;	Brown-out Reset Selection bit
  3641                           ;	BOR4V = BOR40V, Brown-out Reset set to 4.0V
  3642                           ;	Flash Program Memory Self Write Enable bits
  3643                           ;	WRT = OFF, Write protection off
  3644     2008                     	org	8200
  3645     2008  3FFF               	dw	16383

Data Sizes:
    Strings     61
    Constant    0
    Data        4
    BSS         26
    Persistent  0
    Stack       0

Auto Spaces:
    Space          Size  Autos    Used
    COMMON           14      8      12
    BANK0            80     21      47
    BANK1            80      0       0
    BANK3            96      0       0
    BANK2            96      0       0

Pointer List with Targets:

    strcmp@s2	PTR const unsigned char  size(1) Largest target is 6
		 -> STR_15(CODE[6]), STR_13(CODE[6]), STR_11(CODE[4]), STR_9(CODE[5]), 
		 -> STR_7(CODE[6]), STR_5(CODE[6]), 

    strcmp@s1	PTR const unsigned char  size(1) Largest target is 6
		 -> STR_2(CODE[5]), STR_1(CODE[6]), 

    TMR0_enable@edge_src	PTR unsigned char  size(1) Largest target is 5
		 -> STR_2(CODE[5]), 

    TMR0_enable@clk_src	PTR unsigned char  size(1) Largest target is 6
		 -> STR_1(CODE[6]), 


Critical Paths under _main in COMMON

    None.

Critical Paths under _test in COMMON

    _test->i1_write_Digital

Critical Paths under _main in BANK0

    _main->_TMR0_enable
    _TMR0_enable->_strcmp

Critical Paths under _test in BANK0

    None.

Critical Paths under _main in BANK1

    None.

Critical Paths under _test in BANK1

    None.

Critical Paths under _main in BANK3

    None.

Critical Paths under _test in BANK3

    None.

Critical Paths under _main in BANK2

    None.

Critical Paths under _test in BANK2

    None.

Call Graph Tables:

 ---------------------------------------------------------------------------------
 (Depth) Function   	        Calls       Base Space   Used Autos Params    Refs
 ---------------------------------------------------------------------------------
 (0) _main                                                 0     0      0    5949
                 _ExternalClock_Init
                        _TMR0_enable
                      _pin_Direction
                      _write_Digital
 ---------------------------------------------------------------------------------
 (1) _write_Digital                                        5     4      1    2348
                                              0 BANK0      5     4      1
 ---------------------------------------------------------------------------------
 (1) _pin_Direction                                        5     4      1    1918
                                              0 BANK0      5     4      1
 ---------------------------------------------------------------------------------
 (1) _TMR0_enable                                         15    11      4    1683
                                              6 BANK0     15    11      4
                             _strcmp
 ---------------------------------------------------------------------------------
 (2) _strcmp                                               6     4      2     745
                                              0 BANK0      6     4      2
 ---------------------------------------------------------------------------------
 (1) _ExternalClock_Init                                   0     0      0       0
 ---------------------------------------------------------------------------------
 Estimated maximum stack depth 2
 ---------------------------------------------------------------------------------
 (Depth) Function   	        Calls       Base Space   Used Autos Params    Refs
 ---------------------------------------------------------------------------------
 (3) _test                                                 3     3      0     424
                                              5 COMMON     3     3      0
                    i1_write_Digital
 ---------------------------------------------------------------------------------
 (4) i1_write_Digital                                      5     4      1     424
                                              0 COMMON     5     4      1
 ---------------------------------------------------------------------------------
 Estimated maximum stack depth 4
 ---------------------------------------------------------------------------------

 Call Graph Graphs:

 _main (ROOT)
   _ExternalClock_Init
   _TMR0_enable
     _strcmp
   _pin_Direction
   _write_Digital

 _test (ROOT)
   i1_write_Digital

 Address spaces:
Name               Size   Autos  Total    Cost      Usage
BANK3               60      0       0       9        0.0%
BITBANK3            60      0       0       8        0.0%
SFR3                 0      0       0       4        0.0%
BITSFR3              0      0       0       4        0.0%
BANK2               60      0       0      11        0.0%
BITBANK2            60      0       0      10        0.0%
SFR2                 0      0       0       5        0.0%
BITSFR2              0      0       0       5        0.0%
BANK1               50      0       0       7        0.0%
BITBANK1            50      0       0       6        0.0%
SFR1                 0      0       0       2        0.0%
BITSFR1              0      0       0       2        0.0%
BANK0               50     15      2F       5       58.8%
BITBANK0            50      0       0       4        0.0%
SFR0                 0      0       0       1        0.0%
BITSFR0              0      0       0       1        0.0%
COMMON               E      8       C       1       85.7%
BITCOMMON            E      0       0       0        0.0%
CODE                 0      0       0       0        0.0%
DATA                 0      0      3B      12        0.0%
ABS                  0      0      3B       3        0.0%
NULL                 0      0       0       0        0.0%
STACK                0      0       0       2        0.0%
EEDATA             100      0       0       0        0.0%


Microchip Technology PIC Macro Assembler V2.40 build 20220703182018 
Symbol Table                                                                                   Wed Nov 23 18:41:43 2022

                            pc 0002                             _BF 04A0                             l27 04A3  
                           l28 04A3                             _GO 00F9                             _RD 0C60  
                           _WR 0C61        _Array_LCDLineNumAddress 004B                             fsr 0004  
                          l392 0237                            l469 03F3                            l924 04CC  
                          _GIE 005F                            _PR2 0092                            _PEN 048A  
                          _SEN 0488                            _R_W 04A2                            fsr0 0004  
                          indf 0000                           l1010 008D                           l1027 014E  
                         _C1IF 006D                           _C2IF 006E                           l4000 018B  
                         l4010 01D2                           l4002 019B                           l4100 014A  
                         l4020 020D                           l4012 01D7                           l4004 01AC  
                         l4110 04C8                           l4030 003D                           l4014 01E7  
                         l4006 01B1                           l4040 0075                           l4032 004D  
                         l4016 01F8                           l4008 01C1                           l4024 021E  
                         l1706 0478                           l4050 0097                           l4042 007A  
                         l4034 0050                           l4018 01FD                           l4060 00AF  
                         l4052 0099                           l4044 008A                           l4036 0060  
                         l4070 00CF                           l4062 00B1                           l4054 009B  
                         l4038 0065                           l4046 008D                           l4080 00FA  
                         l4072 00DC                           l4064 00BE                           l4056 00A1  
                         l4048 0092                           l4082 00FC                           l4074 00DE  
                         l4066 00C0                           l4058 00A3                           l4084 0109  
                         l4076 00EB                           l4068 00CD                           l4086 010B  
                         l4078 00ED                           l4094 0118                           l4096 013C  
                         l4098 013E                           l4450 0479                           l4452 0482  
                         l4454 0484                           l4456 0494                           l4458 0499  
                         l3940 0467                           l3932 0446                           l3942 0473  
                         l3934 0447                           l3950 0330                           l3936 044B  
                         l3960 0365                           l3952 0335                           l3938 044F  
                         l3970 039B                           l3962 0374                           l3954 0343  
                         l3946 0322                           l3972 03A9                           l3964 0379  
                         l3956 0352                           l3948 032C                           l3990 015C  
                         l3974 03B8                           l3966 0387                           l3958 0357  
                         l3982 03DA                           l3992 0160                           l4880 03E2  
                         l3976 03BD                           l3968 0396                           _ADIF 0066  
                         l4882 0226                           l3994 0165                           l3978 03CB  
                         l4884 0120                           l3996 0175                           l3988 0152  
                         l4886 0137                           l3998 0186                           _ADON 00F8  
                         _EEIF 006C                           STR_1 0434                           STR_2 043A  
                         STR_3 0406                           STR_5 0434                           STR_6 0428  
                         STR_7 0428                           STR_9 043A         TMR0_enable@var_OPTIONS 0046  
                         _T0IF 005A                           _IOCB 0096                           u4005 010E  
                         u4015 0141                           _PIE1 008C                           u3600 0357  
                         _PIE2 008D                           u3601 0356                           u3540 0467  
                         u3541 0466                           u3550 0473                           u3630 0379  
                         u3614 035D                           u3551 0472                           u3631 0378  
                         u3615 035B                           u3704 03C3                           u3624 036B  
                         u3705 03C1                           u3625 0369                           u3730 0165  
                         u3714 03D1                           u3570 0335                           u3731 0164  
                         u3715 03CF                           u3571 0334                           i1l20 04A8  
                         u3900 0075                           u3820 01D7                           u3804 01B7  
                         u3660 039B                           u3644 037F                           u3901 0074  
                         u3821 01D6                           u3805 01B5                           u3725 0155  
                         u3661 039A                           u3645 037D                           u3565 0325  
                         i1l22 04B7                           u3910 008A                           u3814 01C7  
                         u3654 038D                           _INTF 0059                           u3911 0089  
                         u3815 01C5                           u3655 038B                           u3920 0092  
                         u3760 018B                           u3744 016B                           u3584 033B  
                         _RBIF 0058                           u3921 0091                           u3761 018A  
                         u3745 0169                           u3585 0339                           u3850 01FD  
                         u3834 01DD                           u3754 017B                           u3690 03BD  
                         u3674 03A1                           u3594 0349                           u3851 01FC  
                         u3835 01DB                           u3755 0179                           u3691 03BC  
                         u3675 039F                           u3595 0347                           u3844 01ED  
                         u3684 03AF                           _RCEN 048B                           _RCIF 0065  
                         u3845 01EB                           u3685 03AD                           u3790 01B1  
                         u3774 0191                           u3935 00A6                           u3791 01B0  
                         u3775 018F                           u3880 004D                           u3864 0203  
                         u3784 01A1                           _PCON 008E                           u3945 00B4  
                         u3881 004C                           u3865 0201                           u3785 019F  
                         _PIR1 000C                           u3890 0060                           u3874 0213  
                         _PIR2 000D                           u3955 00C3                           u3891 005F  
                         u3875 0211                           u3965 00D2                           u3975 00E1  
                         u3985 00F0                           u3995 00FF                           _TMR0 0001  
                         _RSEN 0489                           _WREN 0C62                           _TXIF 0064  
                         _WPUB 0095                           _main 0479                           _test 04A7  
                         btemp 007E                           start 000E                          ?_main 0070  
                        _ACKEN 048C                          _ACKDT 048D                          _BCLIF 006B  
                        _EEADR 010D                          STR_10 043F                          _EEDAT 010C  
                        STR_11 043F                          STR_14 042E                          ?_test 0070  
              _LastSensorFount 0078                          _T1CON 0010                          _T2CON 0012  
                        i1l469 031E                          _RCREG 001A                          _RCSTA 0018  
                        _OSFIF 006F                          _TMR1H 000F                          _TMR1L 000E  
                        _SPBRG 0099                          _PORTA 0005                          _PORTB 0006  
                        _PORTC 0007                          _PORTD 0008                          _PORTE 0009  
                        _TRISA 0085                          _TRISB 0086                          _TRISC 0087  
                        _TRISD 0088                          _TRISE 0089                          _SSPIF 0063  
                        _VRCON 0097                          _TXREG 0019                          _TXSTA 0098  
  pin_Direction@var_PortNumber 0039                          pclath 000A                          status 0003  
                        wtemp0 007E                __initialization 0011                   __end_of_main 04A7  
                 __end_of_test 04C0                         ??_main 004B        TMR0_enable@var_Settings 0047  
                       ??_test 0075                         _ADCON0 001F                         _ADCON1 009F  
                       _CCP1IF 0062                         _CCP2IF 0068                         _ADRESH 001E  
                       _EEADRH 010F                         _ADRESL 009E                         _EEDATA 010C  
                       _ECCPAS 009C                         _EEDATH 010E                         _CCPR1L 0015  
                       _CCPR2L 001B                         _EECON2 018D             TMR0_enable@clk_src 003E  
                       i1l4400 0239                         i1l4410 026D                         i1l4402 0243  
                       i1l4420 02A8                         i1l4412 0272                         i1l4404 0247  
                       i1l4430 02E4                         i1l4422 02B9                         i1l4414 0282  
                       i1l4406 024C                         i1l4432 02F4                         i1l4424 02BE  
                       i1l4416 0293                         i1l4408 025C                         i1l4426 02CE  
                       i1l4418 0298                         i1l4442 04A7                         i1l4428 02DF  
                       i1l4436 0305                         i1l4444 04A9                         i1l4446 04AC  
                       i1l4448 04B3                         i1l4888 030D                         _INTCON 000B  
                       u440_20 0272                         u440_21 0271                         u441_24 0278  
                       u441_25 0276                         u450_24 02EA                         u442_24 0288  
                       u450_25 02E8                         u442_25 0286                         u443_20 0298  
                       u443_21 0297                         u451_24 02FA                         u451_25 02F8  
                       u452_20 04B7                         u452_21 04B6                         u444_24 029E  
                       u444_25 029C                         u436_25 023C                         u437_20 024C  
                       u437_21 024B                         u445_24 02AE                         u445_25 02AC  
                       u446_20 02BE                         u446_21 02BD                         u438_24 0252  
                       u438_25 0250                         u447_24 02C4                         u439_24 0262  
                       u447_25 02C2                         u439_25 0260                         u448_24 02D4  
                       u448_25 02D2                         u449_20 02E4                         u449_21 02E3  
                       _OSCCON 008F                         _TMR0IF 005A                         _TMR1IF 0060  
                       _TMR2IF 0061                         _SPBRGH 009A                         _TMR2ON 0092  
                       _WDTCON 0105                         _SSPADD 0093                         _TRISC3 043B  
                       _TRISC4 043C                         _SSPCON 0014                         _SSPBUF 0013  
                       _SSPMSK 0093             write_Digital@value 0036                   ?_TMR0_enable 003C  
         pin_Direction@var_pin 003A                         _strcmp 0443                         saved_w 007E  
i1write_Digital@var_PortNumber 0073        __end_of__initialization 0036              ??i1_write_Digital 0071  
               __pcstackCOMMON 0070                   __pidataBANK0 04CD                 _Sensor_Address 002E  
     TMR0_enable@var_Prescaler 004A                     __pbssBANK0 0020                     __pmaintext 0479  
                   __pintentry 0004                        _CM1CON0 0107                        _CM2CON0 0108  
                      _CCP1CON 0017                        _CM2CON1 0109                        _CCP2CON 001D  
          TMR0_enable@edge_src 003F                  _write_Digital 031F                        ?_strcmp 0036  
                      _GO_DONE 00F9                        _OSCTUNE 0090                        _PWM1CON 009B  
                      _PSTRCON 009D                        _SSPCON2 0091                        _ULPWUIF 006A  
                      _SSPSTAT 0094                     __stringtab 0400                  _pin_Direction 014F  
               ?_write_Digital 0036                      _ANSELbits 0188                        __ptext1 031F  
                      __ptext2 014F                        __ptext3 003A                        __ptext4 0443  
                      __ptext5 04C8                        __ptext6 04A7                        __ptext7 0238  
                    _LCDConfig 0020                        clrloop0 04C1           end_of_initialization 0036  
               ?_pin_Direction 0036                        strcmp@r 003A                      _PORTAbits 0005  
                    _TRISAbits 0085                i1_write_Digital 0238          TMR0_enable@x_edge_src 0044  
              ??_write_Digital 0037     __end_of_ExternalClock_Init 04CD                 __end_of_strcmp 0479  
          start_initialization 0011                ??_pin_Direction 0037                    __pdataBANK0 004B  
   pin_Direction@var_derection 0036              _LcdTrackCursorPos 007A        __end_ofi1_write_Digital 031F  
                     ??_strcmp 0038                    __pbssCOMMON 0078                      ___latbits 0002  
                __pcstackBANK0 0036           TMR0_enable@Prescaler 003C                _LcdTrackLineNum 007B  
                    __pstrings 0400         i1write_Digital@var_pin 0074                 TMR0_enable@PSA 0041  
            interrupt_function 0004                      clear_ram0 04C0                       _PIR1bits 000C  
                ??_TMR0_enable 0040               ?i1_write_Digital 0070                     _ADCON0bits 001F  
                  __stringbase 0405                     _ADCON1bits 009F           write_Digital@var_pin 003A  
         TMR0_enable@x_clk_src 0042                       _DoneFlag 0079               TMR0_enable@x_PSA 0048  
           __end_of__stringtab 0406                     _ANSELHbits 0189            __end_of_TMR0_enable 014F  
           _ExternalClock_Init 04C8    write_Digital@var_PortNumber 0039            ?_ExternalClock_Init 0070  
        __end_of_write_Digital 03F4           ??_ExternalClock_Init 0036                     _INTCONbits 000B  
                     intlevel1 0000           i1write_Digital@value 0070                      stringcode 0400  
        __end_of_pin_Direction 0238                    _TMR0_enable 003A                     _OPTION_REG 0081  
                     strcmp@s1 003B                       strcmp@s2 0036                       stringdir 0400  
                     stringtab 0400  
