

Microchip MPLAB XC8 Assembler V2.40 build 20220703182018 
                                                                                               Wed Nov 23 19:25:19 2022

Microchip MPLAB XC8 C Compiler v2.40 (Free license) build 20220703182018 Og1 
     1                           	processor	16F887
     2                           	pagewidth 120
     3                           	opt	flic
     4                           	psect	idataBANK0,global,class=CODE,delta=2,noexec
     5                           	psect	strings,global,class=STRING,delta=2,noexec
     6                           	psect	cinit,global,class=CODE,merge=1,delta=2
     7                           	psect	bssCOMMON,global,class=COMMON,space=1,delta=1,noexec
     8                           	psect	bssBANK0,global,class=BANK0,space=1,delta=1,noexec
     9                           	psect	dataBANK0,global,class=BANK0,space=1,delta=1,noexec
    10                           	psect	clrtext,global,class=CODE,delta=2
    11                           	psect	cstackCOMMON,global,class=COMMON,space=1,delta=1,noexec
    12                           	psect	cstackBANK0,global,class=BANK0,space=1,delta=1,noexec
    13                           	psect	maintext,global,class=CODE,split=1,delta=2
    14                           	psect	text1,local,class=CODE,merge=1,delta=2
    15                           	psect	text2,local,class=CODE,merge=1,delta=2
    16                           	psect	text3,local,class=CODE,merge=1,delta=2
    17                           	psect	text4,local,class=CODE,merge=1,delta=2
    18                           	psect	text5,local,class=CODE,merge=1,delta=2,group=2
    19                           	psect	text6,local,class=CODE,merge=1,delta=2
    20                           	psect	text7,local,class=CODE,merge=1,delta=2
    21                           	psect	intentry,global,class=CODE,delta=2
    22                           	psect	text8,local,class=CODE,merge=1,delta=2
    23                           	psect	text9,local,class=CODE,merge=1,delta=2
    24                           	psect	text10,local,class=CODE,merge=1,delta=2
    25                           	psect	config,global,abs,ovrld,class=CONFIG,space=4,delta=2,noexec
    26                           	dabs	1,0x7E,2
    27     0000                     
    28                           ; Version 2.40
    29                           ; Generated 04/07/2022 GMT
    30                           ; 
    31                           ; Copyright © 2022, Microchip Technology Inc. and its subsidiaries ("Microchip")
    32                           ; All rights reserved.
    33                           ; 
    34                           ; This software is developed by Microchip Technology Inc. and its subsidiaries ("Microch
      +                          ip").
    35                           ; 
    36                           ; Redistribution and use in source and binary forms, with or without modification, are
    37                           ; permitted provided that the following conditions are met:
    38                           ; 
    39                           ;     1. Redistributions of source code must retain the above copyright notice, this lis
      +                          t of
    40                           ;        conditions and the following disclaimer.
    41                           ; 
    42                           ;     2. Redistributions in binary form must reproduce the above copyright notice, this 
      +                          list
    43                           ;        of conditions and the following disclaimer in the documentation and/or other
    44                           ;        materials provided with the distribution. Publication is not required when
    45                           ;        this file is used in an embedded application.
    46                           ; 
    47                           ;     3. Microchip's name may not be used to endorse or promote products derived from th
      +                          is
    48                           ;        software without specific prior written permission.
    49                           ; 
    50                           ; THIS SOFTWARE IS PROVIDED BY MICROCHIP "AS IS" AND ANY EXPRESS OR IMPLIED WARRANTIES,
    51                           ; INCLUDING, BUT NOT LIMITED TO, THE IMPLIED WARRANTIES OF MERCHANTABILITY AND FITNESS F
      +                          OR
    52                           ; PURPOSE ARE DISCLAIMED.  IN NO EVENT SHALL MICROCHIP BE LIABLE FOR ANY DIRECT, INDIREC
      +                          T,
    53                           ; INCIDENTAL, SPECIAL, EXEMPLARY, OR CONSEQUENTIAL DAMAGES (INCLUDING BUT NOT LIMITED TO
    54                           ; PROCUREMENT OF SUBSTITUTE GOODS OR SERVICES; LOSS OF USE, DATA OR PROFITS; OR BUSINESS
    55                           ; INTERRUPTION) HOWSOEVER CAUSED AND ON ANY THEORY OF LIABILITY, WHETHER IN CONTRACT, ST
      +                          RICT
    56                           ; LIABILITY, OR TORT (INCLUDING NEGLIGENCE OR OTHERWISE) ARISING IN ANY WAY OUT OF THE U
      +                          SE OF
    57                           ; THIS SOFTWARE, EVEN IF ADVISED OF THE POSSIBILITY OF SUCH DAMAGE.
    58                           ; 
    59                           ; 
    60                           ; Code-generator required, PIC16F887 Definitions
    61                           ; 
    62                           ; SFR Addresses
    63     0000                     	;# 
    64     0001                     	;# 
    65     0002                     	;# 
    66     0003                     	;# 
    67     0004                     	;# 
    68     0005                     	;# 
    69     0006                     	;# 
    70     0007                     	;# 
    71     0008                     	;# 
    72     0009                     	;# 
    73     000A                     	;# 
    74     000B                     	;# 
    75     000C                     	;# 
    76     000D                     	;# 
    77     000E                     	;# 
    78     000E                     	;# 
    79     000F                     	;# 
    80     0010                     	;# 
    81     0011                     	;# 
    82     0012                     	;# 
    83     0013                     	;# 
    84     0014                     	;# 
    85     0015                     	;# 
    86     0015                     	;# 
    87     0016                     	;# 
    88     0017                     	;# 
    89     0018                     	;# 
    90     0019                     	;# 
    91     001A                     	;# 
    92     001B                     	;# 
    93     001B                     	;# 
    94     001C                     	;# 
    95     001D                     	;# 
    96     001E                     	;# 
    97     001F                     	;# 
    98     0081                     	;# 
    99     0085                     	;# 
   100     0086                     	;# 
   101     0087                     	;# 
   102     0088                     	;# 
   103     0089                     	;# 
   104     008C                     	;# 
   105     008D                     	;# 
   106     008E                     	;# 
   107     008F                     	;# 
   108     0090                     	;# 
   109     0091                     	;# 
   110     0092                     	;# 
   111     0093                     	;# 
   112     0093                     	;# 
   113     0093                     	;# 
   114     0094                     	;# 
   115     0095                     	;# 
   116     0096                     	;# 
   117     0097                     	;# 
   118     0098                     	;# 
   119     0099                     	;# 
   120     009A                     	;# 
   121     009B                     	;# 
   122     009C                     	;# 
   123     009D                     	;# 
   124     009E                     	;# 
   125     009F                     	;# 
   126     0105                     	;# 
   127     0107                     	;# 
   128     0108                     	;# 
   129     0109                     	;# 
   130     010C                     	;# 
   131     010C                     	;# 
   132     010D                     	;# 
   133     010E                     	;# 
   134     010F                     	;# 
   135     0185                     	;# 
   136     0187                     	;# 
   137     0188                     	;# 
   138     0189                     	;# 
   139     018C                     	;# 
   140     018D                     	;# 
   141     0000                     	;# 
   142     0001                     	;# 
   143     0002                     	;# 
   144     0003                     	;# 
   145     0004                     	;# 
   146     0005                     	;# 
   147     0006                     	;# 
   148     0007                     	;# 
   149     0008                     	;# 
   150     0009                     	;# 
   151     000A                     	;# 
   152     000B                     	;# 
   153     000C                     	;# 
   154     000D                     	;# 
   155     000E                     	;# 
   156     000E                     	;# 
   157     000F                     	;# 
   158     0010                     	;# 
   159     0011                     	;# 
   160     0012                     	;# 
   161     0013                     	;# 
   162     0014                     	;# 
   163     0015                     	;# 
   164     0015                     	;# 
   165     0016                     	;# 
   166     0017                     	;# 
   167     0018                     	;# 
   168     0019                     	;# 
   169     001A                     	;# 
   170     001B                     	;# 
   171     001B                     	;# 
   172     001C                     	;# 
   173     001D                     	;# 
   174     001E                     	;# 
   175     001F                     	;# 
   176     0081                     	;# 
   177     0085                     	;# 
   178     0086                     	;# 
   179     0087                     	;# 
   180     0088                     	;# 
   181     0089                     	;# 
   182     008C                     	;# 
   183     008D                     	;# 
   184     008E                     	;# 
   185     008F                     	;# 
   186     0090                     	;# 
   187     0091                     	;# 
   188     0092                     	;# 
   189     0093                     	;# 
   190     0093                     	;# 
   191     0093                     	;# 
   192     0094                     	;# 
   193     0095                     	;# 
   194     0096                     	;# 
   195     0097                     	;# 
   196     0098                     	;# 
   197     0099                     	;# 
   198     009A                     	;# 
   199     009B                     	;# 
   200     009C                     	;# 
   201     009D                     	;# 
   202     009E                     	;# 
   203     009F                     	;# 
   204     0105                     	;# 
   205     0107                     	;# 
   206     0108                     	;# 
   207     0109                     	;# 
   208     010C                     	;# 
   209     010C                     	;# 
   210     010D                     	;# 
   211     010E                     	;# 
   212     010F                     	;# 
   213     0185                     	;# 
   214     0187                     	;# 
   215     0188                     	;# 
   216     0189                     	;# 
   217     018C                     	;# 
   218     018D                     	;# 
   219     0000                     	;# 
   220     0001                     	;# 
   221     0002                     	;# 
   222     0003                     	;# 
   223     0004                     	;# 
   224     0005                     	;# 
   225     0006                     	;# 
   226     0007                     	;# 
   227     0008                     	;# 
   228     0009                     	;# 
   229     000A                     	;# 
   230     000B                     	;# 
   231     000C                     	;# 
   232     000D                     	;# 
   233     000E                     	;# 
   234     000E                     	;# 
   235     000F                     	;# 
   236     0010                     	;# 
   237     0011                     	;# 
   238     0012                     	;# 
   239     0013                     	;# 
   240     0014                     	;# 
   241     0015                     	;# 
   242     0015                     	;# 
   243     0016                     	;# 
   244     0017                     	;# 
   245     0018                     	;# 
   246     0019                     	;# 
   247     001A                     	;# 
   248     001B                     	;# 
   249     001B                     	;# 
   250     001C                     	;# 
   251     001D                     	;# 
   252     001E                     	;# 
   253     001F                     	;# 
   254     0081                     	;# 
   255     0085                     	;# 
   256     0086                     	;# 
   257     0087                     	;# 
   258     0088                     	;# 
   259     0089                     	;# 
   260     008C                     	;# 
   261     008D                     	;# 
   262     008E                     	;# 
   263     008F                     	;# 
   264     0090                     	;# 
   265     0091                     	;# 
   266     0092                     	;# 
   267     0093                     	;# 
   268     0093                     	;# 
   269     0093                     	;# 
   270     0094                     	;# 
   271     0095                     	;# 
   272     0096                     	;# 
   273     0097                     	;# 
   274     0098                     	;# 
   275     0099                     	;# 
   276     009A                     	;# 
   277     009B                     	;# 
   278     009C                     	;# 
   279     009D                     	;# 
   280     009E                     	;# 
   281     009F                     	;# 
   282     0105                     	;# 
   283     0107                     	;# 
   284     0108                     	;# 
   285     0109                     	;# 
   286     010C                     	;# 
   287     010C                     	;# 
   288     010D                     	;# 
   289     010E                     	;# 
   290     010F                     	;# 
   291     0185                     	;# 
   292     0187                     	;# 
   293     0188                     	;# 
   294     0189                     	;# 
   295     018C                     	;# 
   296     018D                     	;# 
   297     0000                     	;# 
   298     0001                     	;# 
   299     0002                     	;# 
   300     0003                     	;# 
   301     0004                     	;# 
   302     0005                     	;# 
   303     0006                     	;# 
   304     0007                     	;# 
   305     0008                     	;# 
   306     0009                     	;# 
   307     000A                     	;# 
   308     000B                     	;# 
   309     000C                     	;# 
   310     000D                     	;# 
   311     000E                     	;# 
   312     000E                     	;# 
   313     000F                     	;# 
   314     0010                     	;# 
   315     0011                     	;# 
   316     0012                     	;# 
   317     0013                     	;# 
   318     0014                     	;# 
   319     0015                     	;# 
   320     0015                     	;# 
   321     0016                     	;# 
   322     0017                     	;# 
   323     0018                     	;# 
   324     0019                     	;# 
   325     001A                     	;# 
   326     001B                     	;# 
   327     001B                     	;# 
   328     001C                     	;# 
   329     001D                     	;# 
   330     001E                     	;# 
   331     001F                     	;# 
   332     0081                     	;# 
   333     0085                     	;# 
   334     0086                     	;# 
   335     0087                     	;# 
   336     0088                     	;# 
   337     0089                     	;# 
   338     008C                     	;# 
   339     008D                     	;# 
   340     008E                     	;# 
   341     008F                     	;# 
   342     0090                     	;# 
   343     0091                     	;# 
   344     0092                     	;# 
   345     0093                     	;# 
   346     0093                     	;# 
   347     0093                     	;# 
   348     0094                     	;# 
   349     0095                     	;# 
   350     0096                     	;# 
   351     0097                     	;# 
   352     0098                     	;# 
   353     0099                     	;# 
   354     009A                     	;# 
   355     009B                     	;# 
   356     009C                     	;# 
   357     009D                     	;# 
   358     009E                     	;# 
   359     009F                     	;# 
   360     0105                     	;# 
   361     0107                     	;# 
   362     0108                     	;# 
   363     0109                     	;# 
   364     010C                     	;# 
   365     010C                     	;# 
   366     010D                     	;# 
   367     010E                     	;# 
   368     010F                     	;# 
   369     0185                     	;# 
   370     0187                     	;# 
   371     0188                     	;# 
   372     0189                     	;# 
   373     018C                     	;# 
   374     018D                     	;# 
   375     0000                     	;# 
   376     0001                     	;# 
   377     0002                     	;# 
   378     0003                     	;# 
   379     0004                     	;# 
   380     0005                     	;# 
   381     0006                     	;# 
   382     0007                     	;# 
   383     0008                     	;# 
   384     0009                     	;# 
   385     000A                     	;# 
   386     000B                     	;# 
   387     000C                     	;# 
   388     000D                     	;# 
   389     000E                     	;# 
   390     000E                     	;# 
   391     000F                     	;# 
   392     0010                     	;# 
   393     0011                     	;# 
   394     0012                     	;# 
   395     0013                     	;# 
   396     0014                     	;# 
   397     0015                     	;# 
   398     0015                     	;# 
   399     0016                     	;# 
   400     0017                     	;# 
   401     0018                     	;# 
   402     0019                     	;# 
   403     001A                     	;# 
   404     001B                     	;# 
   405     001B                     	;# 
   406     001C                     	;# 
   407     001D                     	;# 
   408     001E                     	;# 
   409     001F                     	;# 
   410     0081                     	;# 
   411     0085                     	;# 
   412     0086                     	;# 
   413     0087                     	;# 
   414     0088                     	;# 
   415     0089                     	;# 
   416     008C                     	;# 
   417     008D                     	;# 
   418     008E                     	;# 
   419     008F                     	;# 
   420     0090                     	;# 
   421     0091                     	;# 
   422     0092                     	;# 
   423     0093                     	;# 
   424     0093                     	;# 
   425     0093                     	;# 
   426     0094                     	;# 
   427     0095                     	;# 
   428     0096                     	;# 
   429     0097                     	;# 
   430     0098                     	;# 
   431     0099                     	;# 
   432     009A                     	;# 
   433     009B                     	;# 
   434     009C                     	;# 
   435     009D                     	;# 
   436     009E                     	;# 
   437     009F                     	;# 
   438     0105                     	;# 
   439     0107                     	;# 
   440     0108                     	;# 
   441     0109                     	;# 
   442     010C                     	;# 
   443     010C                     	;# 
   444     010D                     	;# 
   445     010E                     	;# 
   446     010F                     	;# 
   447     0185                     	;# 
   448     0187                     	;# 
   449     0188                     	;# 
   450     0189                     	;# 
   451     018C                     	;# 
   452     018D                     	;# 
   453     0000                     	;# 
   454     0001                     	;# 
   455     0002                     	;# 
   456     0003                     	;# 
   457     0004                     	;# 
   458     0005                     	;# 
   459     0006                     	;# 
   460     0007                     	;# 
   461     0008                     	;# 
   462     0009                     	;# 
   463     000A                     	;# 
   464     000B                     	;# 
   465     000C                     	;# 
   466     000D                     	;# 
   467     000E                     	;# 
   468     000E                     	;# 
   469     000F                     	;# 
   470     0010                     	;# 
   471     0011                     	;# 
   472     0012                     	;# 
   473     0013                     	;# 
   474     0014                     	;# 
   475     0015                     	;# 
   476     0015                     	;# 
   477     0016                     	;# 
   478     0017                     	;# 
   479     0018                     	;# 
   480     0019                     	;# 
   481     001A                     	;# 
   482     001B                     	;# 
   483     001B                     	;# 
   484     001C                     	;# 
   485     001D                     	;# 
   486     001E                     	;# 
   487     001F                     	;# 
   488     0081                     	;# 
   489     0085                     	;# 
   490     0086                     	;# 
   491     0087                     	;# 
   492     0088                     	;# 
   493     0089                     	;# 
   494     008C                     	;# 
   495     008D                     	;# 
   496     008E                     	;# 
   497     008F                     	;# 
   498     0090                     	;# 
   499     0091                     	;# 
   500     0092                     	;# 
   501     0093                     	;# 
   502     0093                     	;# 
   503     0093                     	;# 
   504     0094                     	;# 
   505     0095                     	;# 
   506     0096                     	;# 
   507     0097                     	;# 
   508     0098                     	;# 
   509     0099                     	;# 
   510     009A                     	;# 
   511     009B                     	;# 
   512     009C                     	;# 
   513     009D                     	;# 
   514     009E                     	;# 
   515     009F                     	;# 
   516     0105                     	;# 
   517     0107                     	;# 
   518     0108                     	;# 
   519     0109                     	;# 
   520     010C                     	;# 
   521     010C                     	;# 
   522     010D                     	;# 
   523     010E                     	;# 
   524     010F                     	;# 
   525     0185                     	;# 
   526     0187                     	;# 
   527     0188                     	;# 
   528     0189                     	;# 
   529     018C                     	;# 
   530     018D                     	;# 
   531     0000                     	;# 
   532     0001                     	;# 
   533     0002                     	;# 
   534     0003                     	;# 
   535     0004                     	;# 
   536     0005                     	;# 
   537     0006                     	;# 
   538     0007                     	;# 
   539     0008                     	;# 
   540     0009                     	;# 
   541     000A                     	;# 
   542     000B                     	;# 
   543     000C                     	;# 
   544     000D                     	;# 
   545     000E                     	;# 
   546     000E                     	;# 
   547     000F                     	;# 
   548     0010                     	;# 
   549     0011                     	;# 
   550     0012                     	;# 
   551     0013                     	;# 
   552     0014                     	;# 
   553     0015                     	;# 
   554     0015                     	;# 
   555     0016                     	;# 
   556     0017                     	;# 
   557     0018                     	;# 
   558     0019                     	;# 
   559     001A                     	;# 
   560     001B                     	;# 
   561     001B                     	;# 
   562     001C                     	;# 
   563     001D                     	;# 
   564     001E                     	;# 
   565     001F                     	;# 
   566     0081                     	;# 
   567     0085                     	;# 
   568     0086                     	;# 
   569     0087                     	;# 
   570     0088                     	;# 
   571     0089                     	;# 
   572     008C                     	;# 
   573     008D                     	;# 
   574     008E                     	;# 
   575     008F                     	;# 
   576     0090                     	;# 
   577     0091                     	;# 
   578     0092                     	;# 
   579     0093                     	;# 
   580     0093                     	;# 
   581     0093                     	;# 
   582     0094                     	;# 
   583     0095                     	;# 
   584     0096                     	;# 
   585     0097                     	;# 
   586     0098                     	;# 
   587     0099                     	;# 
   588     009A                     	;# 
   589     009B                     	;# 
   590     009C                     	;# 
   591     009D                     	;# 
   592     009E                     	;# 
   593     009F                     	;# 
   594     0105                     	;# 
   595     0107                     	;# 
   596     0108                     	;# 
   597     0109                     	;# 
   598     010C                     	;# 
   599     010C                     	;# 
   600     010D                     	;# 
   601     010E                     	;# 
   602     010F                     	;# 
   603     0185                     	;# 
   604     0187                     	;# 
   605     0188                     	;# 
   606     0189                     	;# 
   607     018C                     	;# 
   608     018D                     	;# 
   609     0000                     	;# 
   610     0001                     	;# 
   611     0002                     	;# 
   612     0003                     	;# 
   613     0004                     	;# 
   614     0005                     	;# 
   615     0006                     	;# 
   616     0007                     	;# 
   617     0008                     	;# 
   618     0009                     	;# 
   619     000A                     	;# 
   620     000B                     	;# 
   621     000C                     	;# 
   622     000D                     	;# 
   623     000E                     	;# 
   624     000E                     	;# 
   625     000F                     	;# 
   626     0010                     	;# 
   627     0011                     	;# 
   628     0012                     	;# 
   629     0013                     	;# 
   630     0014                     	;# 
   631     0015                     	;# 
   632     0015                     	;# 
   633     0016                     	;# 
   634     0017                     	;# 
   635     0018                     	;# 
   636     0019                     	;# 
   637     001A                     	;# 
   638     001B                     	;# 
   639     001B                     	;# 
   640     001C                     	;# 
   641     001D                     	;# 
   642     001E                     	;# 
   643     001F                     	;# 
   644     0081                     	;# 
   645     0085                     	;# 
   646     0086                     	;# 
   647     0087                     	;# 
   648     0088                     	;# 
   649     0089                     	;# 
   650     008C                     	;# 
   651     008D                     	;# 
   652     008E                     	;# 
   653     008F                     	;# 
   654     0090                     	;# 
   655     0091                     	;# 
   656     0092                     	;# 
   657     0093                     	;# 
   658     0093                     	;# 
   659     0093                     	;# 
   660     0094                     	;# 
   661     0095                     	;# 
   662     0096                     	;# 
   663     0097                     	;# 
   664     0098                     	;# 
   665     0099                     	;# 
   666     009A                     	;# 
   667     009B                     	;# 
   668     009C                     	;# 
   669     009D                     	;# 
   670     009E                     	;# 
   671     009F                     	;# 
   672     0105                     	;# 
   673     0107                     	;# 
   674     0108                     	;# 
   675     0109                     	;# 
   676     010C                     	;# 
   677     010C                     	;# 
   678     010D                     	;# 
   679     010E                     	;# 
   680     010F                     	;# 
   681     0185                     	;# 
   682     0187                     	;# 
   683     0188                     	;# 
   684     0189                     	;# 
   685     018C                     	;# 
   686     018D                     	;# 
   687     0000                     	;# 
   688     0001                     	;# 
   689     0002                     	;# 
   690     0003                     	;# 
   691     0004                     	;# 
   692     0005                     	;# 
   693     0006                     	;# 
   694     0007                     	;# 
   695     0008                     	;# 
   696     0009                     	;# 
   697     000A                     	;# 
   698     000B                     	;# 
   699     000C                     	;# 
   700     000D                     	;# 
   701     000E                     	;# 
   702     000E                     	;# 
   703     000F                     	;# 
   704     0010                     	;# 
   705     0011                     	;# 
   706     0012                     	;# 
   707     0013                     	;# 
   708     0014                     	;# 
   709     0015                     	;# 
   710     0015                     	;# 
   711     0016                     	;# 
   712     0017                     	;# 
   713     0018                     	;# 
   714     0019                     	;# 
   715     001A                     	;# 
   716     001B                     	;# 
   717     001B                     	;# 
   718     001C                     	;# 
   719     001D                     	;# 
   720     001E                     	;# 
   721     001F                     	;# 
   722     0081                     	;# 
   723     0085                     	;# 
   724     0086                     	;# 
   725     0087                     	;# 
   726     0088                     	;# 
   727     0089                     	;# 
   728     008C                     	;# 
   729     008D                     	;# 
   730     008E                     	;# 
   731     008F                     	;# 
   732     0090                     	;# 
   733     0091                     	;# 
   734     0092                     	;# 
   735     0093                     	;# 
   736     0093                     	;# 
   737     0093                     	;# 
   738     0094                     	;# 
   739     0095                     	;# 
   740     0096                     	;# 
   741     0097                     	;# 
   742     0098                     	;# 
   743     0099                     	;# 
   744     009A                     	;# 
   745     009B                     	;# 
   746     009C                     	;# 
   747     009D                     	;# 
   748     009E                     	;# 
   749     009F                     	;# 
   750     0105                     	;# 
   751     0107                     	;# 
   752     0108                     	;# 
   753     0109                     	;# 
   754     010C                     	;# 
   755     010C                     	;# 
   756     010D                     	;# 
   757     010E                     	;# 
   758     010F                     	;# 
   759     0185                     	;# 
   760     0187                     	;# 
   761     0188                     	;# 
   762     0189                     	;# 
   763     018C                     	;# 
   764     018D                     	;# 
   765     0000                     	;# 
   766     0001                     	;# 
   767     0002                     	;# 
   768     0003                     	;# 
   769     0004                     	;# 
   770     0005                     	;# 
   771     0006                     	;# 
   772     0007                     	;# 
   773     0008                     	;# 
   774     0009                     	;# 
   775     000A                     	;# 
   776     000B                     	;# 
   777     000C                     	;# 
   778     000D                     	;# 
   779     000E                     	;# 
   780     000E                     	;# 
   781     000F                     	;# 
   782     0010                     	;# 
   783     0011                     	;# 
   784     0012                     	;# 
   785     0013                     	;# 
   786     0014                     	;# 
   787     0015                     	;# 
   788     0015                     	;# 
   789     0016                     	;# 
   790     0017                     	;# 
   791     0018                     	;# 
   792     0019                     	;# 
   793     001A                     	;# 
   794     001B                     	;# 
   795     001B                     	;# 
   796     001C                     	;# 
   797     001D                     	;# 
   798     001E                     	;# 
   799     001F                     	;# 
   800     0081                     	;# 
   801     0085                     	;# 
   802     0086                     	;# 
   803     0087                     	;# 
   804     0088                     	;# 
   805     0089                     	;# 
   806     008C                     	;# 
   807     008D                     	;# 
   808     008E                     	;# 
   809     008F                     	;# 
   810     0090                     	;# 
   811     0091                     	;# 
   812     0092                     	;# 
   813     0093                     	;# 
   814     0093                     	;# 
   815     0093                     	;# 
   816     0094                     	;# 
   817     0095                     	;# 
   818     0096                     	;# 
   819     0097                     	;# 
   820     0098                     	;# 
   821     0099                     	;# 
   822     009A                     	;# 
   823     009B                     	;# 
   824     009C                     	;# 
   825     009D                     	;# 
   826     009E                     	;# 
   827     009F                     	;# 
   828     0105                     	;# 
   829     0107                     	;# 
   830     0108                     	;# 
   831     0109                     	;# 
   832     010C                     	;# 
   833     010C                     	;# 
   834     010D                     	;# 
   835     010E                     	;# 
   836     010F                     	;# 
   837     0185                     	;# 
   838     0187                     	;# 
   839     0188                     	;# 
   840     0189                     	;# 
   841     018C                     	;# 
   842     018D                     	;# 
   843     0000                     	;# 
   844     0001                     	;# 
   845     0002                     	;# 
   846     0003                     	;# 
   847     0004                     	;# 
   848     0005                     	;# 
   849     0006                     	;# 
   850     0007                     	;# 
   851     0008                     	;# 
   852     0009                     	;# 
   853     000A                     	;# 
   854     000B                     	;# 
   855     000C                     	;# 
   856     000D                     	;# 
   857     000E                     	;# 
   858     000E                     	;# 
   859     000F                     	;# 
   860     0010                     	;# 
   861     0011                     	;# 
   862     0012                     	;# 
   863     0013                     	;# 
   864     0014                     	;# 
   865     0015                     	;# 
   866     0015                     	;# 
   867     0016                     	;# 
   868     0017                     	;# 
   869     0018                     	;# 
   870     0019                     	;# 
   871     001A                     	;# 
   872     001B                     	;# 
   873     001B                     	;# 
   874     001C                     	;# 
   875     001D                     	;# 
   876     001E                     	;# 
   877     001F                     	;# 
   878     0081                     	;# 
   879     0085                     	;# 
   880     0086                     	;# 
   881     0087                     	;# 
   882     0088                     	;# 
   883     0089                     	;# 
   884     008C                     	;# 
   885     008D                     	;# 
   886     008E                     	;# 
   887     008F                     	;# 
   888     0090                     	;# 
   889     0091                     	;# 
   890     0092                     	;# 
   891     0093                     	;# 
   892     0093                     	;# 
   893     0093                     	;# 
   894     0094                     	;# 
   895     0095                     	;# 
   896     0096                     	;# 
   897     0097                     	;# 
   898     0098                     	;# 
   899     0099                     	;# 
   900     009A                     	;# 
   901     009B                     	;# 
   902     009C                     	;# 
   903     009D                     	;# 
   904     009E                     	;# 
   905     009F                     	;# 
   906     0105                     	;# 
   907     0107                     	;# 
   908     0108                     	;# 
   909     0109                     	;# 
   910     010C                     	;# 
   911     010C                     	;# 
   912     010D                     	;# 
   913     010E                     	;# 
   914     010F                     	;# 
   915     0185                     	;# 
   916     0187                     	;# 
   917     0188                     	;# 
   918     0189                     	;# 
   919     018C                     	;# 
   920     018D                     	;# 
   921     0000                     	;# 
   922     0001                     	;# 
   923     0002                     	;# 
   924     0003                     	;# 
   925     0004                     	;# 
   926     0005                     	;# 
   927     0006                     	;# 
   928     0007                     	;# 
   929     0008                     	;# 
   930     0009                     	;# 
   931     000A                     	;# 
   932     000B                     	;# 
   933     000C                     	;# 
   934     000D                     	;# 
   935     000E                     	;# 
   936     000E                     	;# 
   937     000F                     	;# 
   938     0010                     	;# 
   939     0011                     	;# 
   940     0012                     	;# 
   941     0013                     	;# 
   942     0014                     	;# 
   943     0015                     	;# 
   944     0015                     	;# 
   945     0016                     	;# 
   946     0017                     	;# 
   947     0018                     	;# 
   948     0019                     	;# 
   949     001A                     	;# 
   950     001B                     	;# 
   951     001B                     	;# 
   952     001C                     	;# 
   953     001D                     	;# 
   954     001E                     	;# 
   955     001F                     	;# 
   956     0081                     	;# 
   957     0085                     	;# 
   958     0086                     	;# 
   959     0087                     	;# 
   960     0088                     	;# 
   961     0089                     	;# 
   962     008C                     	;# 
   963     008D                     	;# 
   964     008E                     	;# 
   965     008F                     	;# 
   966     0090                     	;# 
   967     0091                     	;# 
   968     0092                     	;# 
   969     0093                     	;# 
   970     0093                     	;# 
   971     0093                     	;# 
   972     0094                     	;# 
   973     0095                     	;# 
   974     0096                     	;# 
   975     0097                     	;# 
   976     0098                     	;# 
   977     0099                     	;# 
   978     009A                     	;# 
   979     009B                     	;# 
   980     009C                     	;# 
   981     009D                     	;# 
   982     009E                     	;# 
   983     009F                     	;# 
   984     0105                     	;# 
   985     0107                     	;# 
   986     0108                     	;# 
   987     0109                     	;# 
   988     010C                     	;# 
   989     010C                     	;# 
   990     010D                     	;# 
   991     010E                     	;# 
   992     010F                     	;# 
   993     0185                     	;# 
   994     0187                     	;# 
   995     0188                     	;# 
   996     0189                     	;# 
   997     018C                     	;# 
   998     018D                     	;# 
   999     0000                     	;# 
  1000     0001                     	;# 
  1001     0002                     	;# 
  1002     0003                     	;# 
  1003     0004                     	;# 
  1004     0005                     	;# 
  1005     0006                     	;# 
  1006     0007                     	;# 
  1007     0008                     	;# 
  1008     0009                     	;# 
  1009     000A                     	;# 
  1010     000B                     	;# 
  1011     000C                     	;# 
  1012     000D                     	;# 
  1013     000E                     	;# 
  1014     000E                     	;# 
  1015     000F                     	;# 
  1016     0010                     	;# 
  1017     0011                     	;# 
  1018     0012                     	;# 
  1019     0013                     	;# 
  1020     0014                     	;# 
  1021     0015                     	;# 
  1022     0015                     	;# 
  1023     0016                     	;# 
  1024     0017                     	;# 
  1025     0018                     	;# 
  1026     0019                     	;# 
  1027     001A                     	;# 
  1028     001B                     	;# 
  1029     001B                     	;# 
  1030     001C                     	;# 
  1031     001D                     	;# 
  1032     001E                     	;# 
  1033     001F                     	;# 
  1034     0081                     	;# 
  1035     0085                     	;# 
  1036     0086                     	;# 
  1037     0087                     	;# 
  1038     0088                     	;# 
  1039     0089                     	;# 
  1040     008C                     	;# 
  1041     008D                     	;# 
  1042     008E                     	;# 
  1043     008F                     	;# 
  1044     0090                     	;# 
  1045     0091                     	;# 
  1046     0092                     	;# 
  1047     0093                     	;# 
  1048     0093                     	;# 
  1049     0093                     	;# 
  1050     0094                     	;# 
  1051     0095                     	;# 
  1052     0096                     	;# 
  1053     0097                     	;# 
  1054     0098                     	;# 
  1055     0099                     	;# 
  1056     009A                     	;# 
  1057     009B                     	;# 
  1058     009C                     	;# 
  1059     009D                     	;# 
  1060     009E                     	;# 
  1061     009F                     	;# 
  1062     0105                     	;# 
  1063     0107                     	;# 
  1064     0108                     	;# 
  1065     0109                     	;# 
  1066     010C                     	;# 
  1067     010C                     	;# 
  1068     010D                     	;# 
  1069     010E                     	;# 
  1070     010F                     	;# 
  1071     0185                     	;# 
  1072     0187                     	;# 
  1073     0188                     	;# 
  1074     0189                     	;# 
  1075     018C                     	;# 
  1076     018D                     	;# 
  1077     0000                     	;# 
  1078     0001                     	;# 
  1079     0002                     	;# 
  1080     0003                     	;# 
  1081     0004                     	;# 
  1082     0005                     	;# 
  1083     0006                     	;# 
  1084     0007                     	;# 
  1085     0008                     	;# 
  1086     0009                     	;# 
  1087     000A                     	;# 
  1088     000B                     	;# 
  1089     000C                     	;# 
  1090     000D                     	;# 
  1091     000E                     	;# 
  1092     000E                     	;# 
  1093     000F                     	;# 
  1094     0010                     	;# 
  1095     0011                     	;# 
  1096     0012                     	;# 
  1097     0013                     	;# 
  1098     0014                     	;# 
  1099     0015                     	;# 
  1100     0015                     	;# 
  1101     0016                     	;# 
  1102     0017                     	;# 
  1103     0018                     	;# 
  1104     0019                     	;# 
  1105     001A                     	;# 
  1106     001B                     	;# 
  1107     001B                     	;# 
  1108     001C                     	;# 
  1109     001D                     	;# 
  1110     001E                     	;# 
  1111     001F                     	;# 
  1112     0081                     	;# 
  1113     0085                     	;# 
  1114     0086                     	;# 
  1115     0087                     	;# 
  1116     0088                     	;# 
  1117     0089                     	;# 
  1118     008C                     	;# 
  1119     008D                     	;# 
  1120     008E                     	;# 
  1121     008F                     	;# 
  1122     0090                     	;# 
  1123     0091                     	;# 
  1124     0092                     	;# 
  1125     0093                     	;# 
  1126     0093                     	;# 
  1127     0093                     	;# 
  1128     0094                     	;# 
  1129     0095                     	;# 
  1130     0096                     	;# 
  1131     0097                     	;# 
  1132     0098                     	;# 
  1133     0099                     	;# 
  1134     009A                     	;# 
  1135     009B                     	;# 
  1136     009C                     	;# 
  1137     009D                     	;# 
  1138     009E                     	;# 
  1139     009F                     	;# 
  1140     0105                     	;# 
  1141     0107                     	;# 
  1142     0108                     	;# 
  1143     0109                     	;# 
  1144     010C                     	;# 
  1145     010C                     	;# 
  1146     010D                     	;# 
  1147     010E                     	;# 
  1148     010F                     	;# 
  1149     0185                     	;# 
  1150     0187                     	;# 
  1151     0188                     	;# 
  1152     0189                     	;# 
  1153     018C                     	;# 
  1154     018D                     	;# 
  1155     0000                     	;# 
  1156     0001                     	;# 
  1157     0002                     	;# 
  1158     0003                     	;# 
  1159     0004                     	;# 
  1160     0005                     	;# 
  1161     0006                     	;# 
  1162     0007                     	;# 
  1163     0008                     	;# 
  1164     0009                     	;# 
  1165     000A                     	;# 
  1166     000B                     	;# 
  1167     000C                     	;# 
  1168     000D                     	;# 
  1169     000E                     	;# 
  1170     000E                     	;# 
  1171     000F                     	;# 
  1172     0010                     	;# 
  1173     0011                     	;# 
  1174     0012                     	;# 
  1175     0013                     	;# 
  1176     0014                     	;# 
  1177     0015                     	;# 
  1178     0015                     	;# 
  1179     0016                     	;# 
  1180     0017                     	;# 
  1181     0018                     	;# 
  1182     0019                     	;# 
  1183     001A                     	;# 
  1184     001B                     	;# 
  1185     001B                     	;# 
  1186     001C                     	;# 
  1187     001D                     	;# 
  1188     001E                     	;# 
  1189     001F                     	;# 
  1190     0081                     	;# 
  1191     0085                     	;# 
  1192     0086                     	;# 
  1193     0087                     	;# 
  1194     0088                     	;# 
  1195     0089                     	;# 
  1196     008C                     	;# 
  1197     008D                     	;# 
  1198     008E                     	;# 
  1199     008F                     	;# 
  1200     0090                     	;# 
  1201     0091                     	;# 
  1202     0092                     	;# 
  1203     0093                     	;# 
  1204     0093                     	;# 
  1205     0093                     	;# 
  1206     0094                     	;# 
  1207     0095                     	;# 
  1208     0096                     	;# 
  1209     0097                     	;# 
  1210     0098                     	;# 
  1211     0099                     	;# 
  1212     009A                     	;# 
  1213     009B                     	;# 
  1214     009C                     	;# 
  1215     009D                     	;# 
  1216     009E                     	;# 
  1217     009F                     	;# 
  1218     0105                     	;# 
  1219     0107                     	;# 
  1220     0108                     	;# 
  1221     0109                     	;# 
  1222     010C                     	;# 
  1223     010C                     	;# 
  1224     010D                     	;# 
  1225     010E                     	;# 
  1226     010F                     	;# 
  1227     0185                     	;# 
  1228     0187                     	;# 
  1229     0188                     	;# 
  1230     0189                     	;# 
  1231     018C                     	;# 
  1232     018D                     	;# 
  1233     0000                     	;# 
  1234     0001                     	;# 
  1235     0002                     	;# 
  1236     0003                     	;# 
  1237     0004                     	;# 
  1238     0005                     	;# 
  1239     0006                     	;# 
  1240     0007                     	;# 
  1241     0008                     	;# 
  1242     0009                     	;# 
  1243     000A                     	;# 
  1244     000B                     	;# 
  1245     000C                     	;# 
  1246     000D                     	;# 
  1247     000E                     	;# 
  1248     000E                     	;# 
  1249     000F                     	;# 
  1250     0010                     	;# 
  1251     0011                     	;# 
  1252     0012                     	;# 
  1253     0013                     	;# 
  1254     0014                     	;# 
  1255     0015                     	;# 
  1256     0015                     	;# 
  1257     0016                     	;# 
  1258     0017                     	;# 
  1259     0018                     	;# 
  1260     0019                     	;# 
  1261     001A                     	;# 
  1262     001B                     	;# 
  1263     001B                     	;# 
  1264     001C                     	;# 
  1265     001D                     	;# 
  1266     001E                     	;# 
  1267     001F                     	;# 
  1268     0081                     	;# 
  1269     0085                     	;# 
  1270     0086                     	;# 
  1271     0087                     	;# 
  1272     0088                     	;# 
  1273     0089                     	;# 
  1274     008C                     	;# 
  1275     008D                     	;# 
  1276     008E                     	;# 
  1277     008F                     	;# 
  1278     0090                     	;# 
  1279     0091                     	;# 
  1280     0092                     	;# 
  1281     0093                     	;# 
  1282     0093                     	;# 
  1283     0093                     	;# 
  1284     0094                     	;# 
  1285     0095                     	;# 
  1286     0096                     	;# 
  1287     0097                     	;# 
  1288     0098                     	;# 
  1289     0099                     	;# 
  1290     009A                     	;# 
  1291     009B                     	;# 
  1292     009C                     	;# 
  1293     009D                     	;# 
  1294     009E                     	;# 
  1295     009F                     	;# 
  1296     0105                     	;# 
  1297     0107                     	;# 
  1298     0108                     	;# 
  1299     0109                     	;# 
  1300     010C                     	;# 
  1301     010C                     	;# 
  1302     010D                     	;# 
  1303     010E                     	;# 
  1304     010F                     	;# 
  1305     0185                     	;# 
  1306     0187                     	;# 
  1307     0188                     	;# 
  1308     0189                     	;# 
  1309     018C                     	;# 
  1310     018D                     	;# 
  1311                           
  1312                           	psect	idataBANK0
  1313     0467                     __pidataBANK0:
  1314                           
  1315                           ;initializer for _Array_LCDLineNumAddress
  1316     0467  3480               	retlw	128
  1317     0468  34C0               	retlw	192
  1318     0469  3490               	retlw	144
  1319     046A  34D0               	retlw	208
  1320     0019                     _TXREG	set	25
  1321     001A                     _RCREG	set	26
  1322     000C                     _PIR1bits	set	12
  1323     000E                     _TMR1L	set	14
  1324     000F                     _TMR1H	set	15
  1325     000B                     _INTCONbits	set	11
  1326     001B                     _CCPR2L	set	27
  1327     0015                     _CCPR1L	set	21
  1328     0005                     _PORTAbits	set	5
  1329     001D                     _CCP2CON	set	29
  1330     0018                     _RCSTA	set	24
  1331     0017                     _CCP1CON	set	23
  1332     0012                     _T2CON	set	18
  1333     0010                     _T1CON	set	16
  1334     000D                     _PIR2	set	13
  1335     000C                     _PIR1	set	12
  1336     0009                     _PORTE	set	9
  1337     0008                     _PORTD	set	8
  1338     0007                     _PORTC	set	7
  1339     0006                     _PORTB	set	6
  1340     0005                     _PORTA	set	5
  1341     000B                     _INTCON	set	11
  1342     0013                     _SSPBUF	set	19
  1343     0014                     _SSPCON	set	20
  1344     001E                     _ADRESH	set	30
  1345     001F                     _ADCON0bits	set	31
  1346     001F                     _ADCON0	set	31
  1347     0092                     _TMR2ON	set	146
  1348     0068                     _CCP2IF	set	104
  1349     006A                     _ULPWUIF	set	106
  1350     006B                     _BCLIF	set	107
  1351     006C                     _EEIF	set	108
  1352     006D                     _C1IF	set	109
  1353     006E                     _C2IF	set	110
  1354     006F                     _OSFIF	set	111
  1355     0060                     _TMR1IF	set	96
  1356     0061                     _TMR2IF	set	97
  1357     005A                     _TMR0IF	set	90
  1358     0062                     _CCP1IF	set	98
  1359     0063                     _SSPIF	set	99
  1360     0064                     _TXIF	set	100
  1361     0065                     _RCIF	set	101
  1362     0066                     _ADIF	set	102
  1363     0058                     _RBIF	set	88
  1364     0059                     _INTF	set	89
  1365     005A                     _T0IF	set	90
  1366     005F                     _GIE	set	95
  1367     00F9                     _GO_DONE	set	249
  1368     00F9                     _GO	set	249
  1369     00F8                     _ADON	set	248
  1370     008C                     _PIE1bits	set	140
  1371     0092                     _PR2	set	146
  1372     0085                     _TRISAbits	set	133
  1373     009F                     _ADCON1	set	159
  1374     009D                     _PSTRCON	set	157
  1375     009C                     _ECCPAS	set	156
  1376     009B                     _PWM1CON	set	155
  1377     009A                     _SPBRGH	set	154
  1378     0099                     _SPBRG	set	153
  1379     0098                     _TXSTA	set	152
  1380     0097                     _VRCON	set	151
  1381     0096                     _IOCB	set	150
  1382     0095                     _WPUB	set	149
  1383     0093                     _SSPMSK	set	147
  1384     0091                     _SSPCON2	set	145
  1385     0090                     _OSCTUNE	set	144
  1386     008F                     _OSCCON	set	143
  1387     008E                     _PCON	set	142
  1388     008D                     _PIE2	set	141
  1389     008C                     _PIE1	set	140
  1390     0089                     _TRISE	set	137
  1391     0088                     _TRISD	set	136
  1392     0087                     _TRISC	set	135
  1393     0086                     _TRISB	set	134
  1394     0085                     _TRISA	set	133
  1395     0081                     _OPTION_REG	set	129
  1396     0093                     _SSPADD	set	147
  1397     0094                     _SSPSTAT	set	148
  1398     009E                     _ADRESL	set	158
  1399     009F                     _ADCON1bits	set	159
  1400     048C                     _ACKEN	set	1164
  1401     048D                     _ACKDT	set	1165
  1402     04A2                     _R_W	set	1186
  1403     048B                     _RCEN	set	1163
  1404     04A0                     _BF	set	1184
  1405     048A                     _PEN	set	1162
  1406     0489                     _RSEN	set	1161
  1407     0488                     _SEN	set	1160
  1408     043C                     _TRISC4	set	1084
  1409     043B                     _TRISC3	set	1083
  1410     010F                     _EEADRH	set	271
  1411     010E                     _EEDATH	set	270
  1412     010C                     _EEDAT	set	268
  1413     0109                     _CM2CON1	set	265
  1414     0108                     _CM2CON0	set	264
  1415     0107                     _CM1CON0	set	263
  1416     0105                     _WDTCON	set	261
  1417     010C                     _EEDATA	set	268
  1418     010D                     _EEADR	set	269
  1419     0189                     _ANSELHbits	set	393
  1420     0188                     _ANSELbits	set	392
  1421     018D                     _EECON2	set	397
  1422     0C60                     _RD	set	3168
  1423     0C62                     _WREN	set	3170
  1424     0C61                     _WR	set	3169
  1425                           
  1426                           	psect	strings
  1427     0367                     __pstrings:
  1428     0367                     stringtab:
  1429     0367                     __stringtab:
  1430     0367                     stringcode:	
  1431                           ;	String table - string pointers are 1 byte each
  1432                           
  1433     0367                     stringdir:
  1434     0367  3003               	movlw	high stringdir
  1435     0368  008A               	movwf	10
  1436     0369  0804               	movf	4,w
  1437     036A  0A84               	incf	4,f
  1438     036B  0782               	addwf	2,f
  1439     036C                     __stringbase:
  1440     036C  3400               	retlw	0
  1441     036D                     __end_of__stringtab:
  1442     036D                     STR_2:
  1443     036D  3431               	retlw	49	;'1'
  1444     036E  3436               	retlw	54	;'6'
  1445     036F  3446               	retlw	70	;'F'
  1446     0370  3438               	retlw	56	;'8'
  1447     0371  3438               	retlw	56	;'8'
  1448     0372  3437               	retlw	55	;'7'
  1449     0373  3420               	retlw	32	;' '
  1450     0374  3426               	retlw	38	;'&'
  1451     0375  3420               	retlw	32	;' '
  1452     0376  3444               	retlw	68	;'D'
  1453     0377  3453               	retlw	83	;'S'
  1454     0378  3431               	retlw	49	;'1'
  1455     0379  3438               	retlw	56	;'8'
  1456     037A  3442               	retlw	66	;'B'
  1457     037B  3432               	retlw	50	;'2'
  1458     037C  3430               	retlw	48	;'0'
  1459     037D  340A               	retlw	10
  1460     037E  3454               	retlw	84	;'T'
  1461     037F  3465               	retlw	101	;'e'
  1462     0380  346D               	retlw	109	;'m'
  1463     0381  3470               	retlw	112	;'p'
  1464     0382  3465               	retlw	101	;'e'
  1465     0383  3472               	retlw	114	;'r'
  1466     0384  3461               	retlw	97	;'a'
  1467     0385  3474               	retlw	116	;'t'
  1468     0386  3475               	retlw	117	;'u'
  1469     0387  3472               	retlw	114	;'r'
  1470     0388  3465               	retlw	101	;'e'
  1471     0389  343A               	retlw	58	;':'
  1472     038A  3425               	retlw	37	;'%'
  1473     038B  3466               	retlw	102	;'f'
  1474     038C  3443               	retlw	67	;'C'
  1475     038D  340A               	retlw	10
  1476     038E  3400               	retlw	0
  1477     038F                     STR_5:
  1478     038F  3454               	retlw	84	;'T'
  1479     0390  3430               	retlw	48	;'0'
  1480     0391  3443               	retlw	67	;'C'
  1481     0392  344B               	retlw	75	;'K'
  1482     0393  3449               	retlw	73	;'I'
  1483     0394  3400               	retlw	0
  1484     0395                     STR_13:
  1485     0395  3454               	retlw	84	;'T'
  1486     0396  3431               	retlw	49	;'1'
  1487     0397  3443               	retlw	67	;'C'
  1488     0398  344B               	retlw	75	;'K'
  1489     0399  3449               	retlw	73	;'I'
  1490     039A  3400               	retlw	0
  1491     039B                     STR_1:
  1492     039B  3446               	retlw	70	;'F'
  1493     039C  344F               	retlw	79	;'O'
  1494     039D  3453               	retlw	83	;'S'
  1495     039E  3443               	retlw	67	;'C'
  1496     039F  3434               	retlw	52	;'4'
  1497     03A0  3400               	retlw	0
  1498     03A1                     STR_7:
  1499     03A1  3448               	retlw	72	;'H'
  1500     03A2  3449               	retlw	73	;'I'
  1501     03A3  3447               	retlw	71	;'G'
  1502     03A4  3448               	retlw	72	;'H'
  1503     03A5  3400               	retlw	0
  1504     03A6                     STR_9:
  1505     03A6  344C               	retlw	76	;'L'
  1506     03A7  344F               	retlw	79	;'O'
  1507     03A8  3457               	retlw	87	;'W'
  1508     03A9  3400               	retlw	0
  1509     039B                     
  1510                           	psect	cinit
  1511     0011                     start_initialization:	
  1512                           ; #config settings
  1513                           
  1514     0011                     __initialization:
  1515                           
  1516                           ; Initialize objects allocated to BANK0
  1517     0011  120A  118A  2467  120A  118A  	fcall	__pidataBANK0	;fetch initializer
  1518     0016  00CB               	movwf	__pdataBANK0& (0+127)
  1519     0017  120A  118A  2468  120A  118A  	fcall	__pidataBANK0+1	;fetch initializer
  1520     001C  00CC               	movwf	(__pdataBANK0+1)& (0+127)
  1521     001D  120A  118A  2469  120A  118A  	fcall	__pidataBANK0+2	;fetch initializer
  1522     0022  00CD               	movwf	(__pdataBANK0+2)& (0+127)
  1523     0023  120A  118A  246A  120A  118A  	fcall	__pidataBANK0+3	;fetch initializer
  1524     0028  00CE               	movwf	(__pdataBANK0+3)& (0+127)
  1525                           
  1526                           ; Clear objects allocated to BANK0
  1527     0029  1383               	bcf	3,7	;select IRP bank0
  1528     002A  3020               	movlw	low __pbssBANK0
  1529     002B  0084               	movwf	4
  1530     002C  3036               	movlw	low (__pbssBANK0+22)
  1531     002D  120A  118A  245A  120A  118A  	fcall	clear_ram0
  1532                           
  1533                           ; Clear objects allocated to COMMON
  1534     0032  01F8               	clrf	__pbssCOMMON& (0+127)
  1535     0033  01F9               	clrf	(__pbssCOMMON+1)& (0+127)
  1536     0034  01FA               	clrf	(__pbssCOMMON+2)& (0+127)
  1537     0035  01FB               	clrf	(__pbssCOMMON+3)& (0+127)
  1538     0036                     end_of_initialization:	
  1539                           ;End of C runtime variable initialization code
  1540                           
  1541     0036                     __end_of__initialization:
  1542     0036  0183               	clrf	3
  1543     0037  120A  118A  2BE0   	ljmp	_main	;jump to C main() function
  1544                           
  1545                           	psect	bssCOMMON
  1546     0078                     __pbssCOMMON:
  1547     0078                     _LastSensorFount:
  1548     0078                     	ds	1
  1549     0079                     _DoneFlag:
  1550     0079                     	ds	1
  1551     007A                     _LcdTrackCursorPos:
  1552     007A                     	ds	1
  1553     007B                     _LcdTrackLineNum:
  1554     007B                     	ds	1
  1555                           
  1556                           	psect	bssBANK0
  1557     0020                     __pbssBANK0:
  1558     0020                     _LCDConfig:
  1559     0020                     	ds	14
  1560     002E                     _Sensor_Address:
  1561     002E                     	ds	8
  1562                           
  1563                           	psect	dataBANK0
  1564     004B                     __pdataBANK0:
  1565     004B                     _Array_LCDLineNumAddress:
  1566     004B                     	ds	4
  1567                           
  1568                           	psect	clrtext
  1569     045A                     clear_ram0:	
  1570                           ;	Called with FSR containing the base address, and
  1571                           ;	W with the last address+1
  1572                           
  1573     045A  0064               	clrwdt	;clear the watchdog before getting into this loop
  1574     045B                     clrloop0:
  1575     045B  0180               	clrf	0	;clear RAM location pointed to by FSR
  1576     045C  0A84               	incf	4,f	;increment pointer
  1577     045D  0604               	xorwf	4,w	;XOR with final address
  1578     045E  1903               	btfsc	3,2	;have we reached the end yet?
  1579     045F  3400               	retlw	0	;all done for this memory range, return
  1580     0460  0604               	xorwf	4,w	;XOR again to restore value
  1581     0461  2C5B               	goto	clrloop0	;do the next byte
  1582                           
  1583                           	psect	cstackCOMMON
  1584     0070                     __pcstackCOMMON:
  1585     0070                     ?_TMR1_interrupt:
  1586     0070                     ??_TMR1_interrupt:	
  1587                           ; 1 bytes @ 0x0
  1588                           
  1589     0070                     ?_ExternalClock_Init:	
  1590                           ; 1 bytes @ 0x0
  1591                           
  1592     0070                     ?_test:	
  1593                           ; 1 bytes @ 0x0
  1594                           
  1595     0070                     ?_main:	
  1596                           ; 1 bytes @ 0x0
  1597                           
  1598     0070                     ?i1_write_Digital:	
  1599                           ; 1 bytes @ 0x0
  1600                           
  1601     0070                     ?i1_TMR1_set_timer:	
  1602                           ; 1 bytes @ 0x0
  1603                           
  1604     0070                     i1write_Digital@value:	
  1605                           ; 1 bytes @ 0x0
  1606                           
  1607     0070                     i1TMR1_set_timer@time:	
  1608                           ; 1 bytes @ 0x0
  1609                           
  1610                           
  1611                           ; 2 bytes @ 0x0
  1612     0070                     	ds	1
  1613     0071                     ??i1_write_Digital:
  1614                           
  1615                           ; 1 bytes @ 0x1
  1616     0071                     	ds	1
  1617     0072                     ??i1_TMR1_set_timer:
  1618     0072                     i1TMR1_set_timer@bytes:	
  1619                           ; 1 bytes @ 0x2
  1620                           
  1621                           
  1622                           ; 2 bytes @ 0x2
  1623     0072                     	ds	1
  1624     0073                     i1write_Digital@var_PortNumber:
  1625                           
  1626                           ; 1 bytes @ 0x3
  1627     0073                     	ds	1
  1628     0074                     i1write_Digital@var_pin:
  1629                           
  1630                           ; 1 bytes @ 0x4
  1631     0074                     	ds	1
  1632     0075                     ??_test:
  1633                           
  1634                           ; 1 bytes @ 0x5
  1635     0075                     	ds	3
  1636                           
  1637                           	psect	cstackBANK0
  1638     0036                     __pcstackBANK0:
  1639     0036                     ?_write_Digital:
  1640     0036                     ?_TMR1_set_timer:	
  1641                           ; 1 bytes @ 0x0
  1642                           
  1643     0036                     ?_pin_Direction:	
  1644                           ; 1 bytes @ 0x0
  1645                           
  1646     0036                     ??_ExternalClock_Init:	
  1647                           ; 1 bytes @ 0x0
  1648                           
  1649     0036                     ?_strcmp:	
  1650                           ; 1 bytes @ 0x0
  1651                           
  1652     0036                     pin_Direction@var_derection:	
  1653                           ; 2 bytes @ 0x0
  1654                           
  1655     0036                     write_Digital@value:	
  1656                           ; 1 bytes @ 0x0
  1657                           
  1658     0036                     strcmp@s2:	
  1659                           ; 1 bytes @ 0x0
  1660                           
  1661     0036                     TMR1_set_timer@time:	
  1662                           ; 1 bytes @ 0x0
  1663                           
  1664                           
  1665                           ; 2 bytes @ 0x0
  1666     0036                     	ds	1
  1667     0037                     ??_write_Digital:
  1668     0037                     ??_pin_Direction:	
  1669                           ; 1 bytes @ 0x1
  1670                           
  1671                           
  1672                           ; 1 bytes @ 0x1
  1673     0037                     	ds	1
  1674     0038                     ??_TMR1_set_timer:
  1675     0038                     ??_strcmp:	
  1676                           ; 1 bytes @ 0x2
  1677                           
  1678     0038                     TMR1_set_timer@bytes:	
  1679                           ; 1 bytes @ 0x2
  1680                           
  1681                           
  1682                           ; 2 bytes @ 0x2
  1683     0038                     	ds	1
  1684     0039                     pin_Direction@var_PortNumber:
  1685     0039                     write_Digital@var_PortNumber:	
  1686                           ; 1 bytes @ 0x3
  1687                           
  1688                           
  1689                           ; 1 bytes @ 0x3
  1690     0039                     	ds	1
  1691     003A                     pin_Direction@var_pin:
  1692     003A                     write_Digital@var_pin:	
  1693                           ; 1 bytes @ 0x4
  1694                           
  1695     003A                     strcmp@r:	
  1696                           ; 1 bytes @ 0x4
  1697                           
  1698                           
  1699                           ; 1 bytes @ 0x4
  1700     003A                     	ds	1
  1701     003B                     strcmp@s1:
  1702                           
  1703                           ; 1 bytes @ 0x5
  1704     003B                     	ds	1
  1705     003C                     ?_TMR1_enable:
  1706     003C                     TMR1_enable@SYNC:	
  1707                           ; 1 bytes @ 0x6
  1708                           
  1709                           
  1710                           ; 1 bytes @ 0x6
  1711     003C                     	ds	1
  1712     003D                     TMR1_enable@LPSOC:
  1713                           
  1714                           ; 1 bytes @ 0x7
  1715     003D                     	ds	1
  1716     003E                     TMR1_enable@Prescaler:
  1717                           
  1718                           ; 2 bytes @ 0x8
  1719     003E                     	ds	2
  1720     0040                     ??_TMR1_enable:
  1721                           
  1722                           ; 1 bytes @ 0xA
  1723     0040                     	ds	1
  1724     0041                     TMR1_enable@x_clk_src:
  1725                           
  1726                           ; 2 bytes @ 0xB
  1727     0041                     	ds	2
  1728     0043                     TMR1_enable@x_SYNC:
  1729                           
  1730                           ; 2 bytes @ 0xD
  1731     0043                     	ds	2
  1732     0045                     TMR1_enable@x_LPSOC:
  1733                           
  1734                           ; 2 bytes @ 0xF
  1735     0045                     	ds	2
  1736     0047                     TMR1_enable@var_Prescaler:
  1737                           
  1738                           ; 1 bytes @ 0x11
  1739     0047                     	ds	1
  1740     0048                     TMR1_enable@clk_src:
  1741                           
  1742                           ; 1 bytes @ 0x12
  1743     0048                     	ds	1
  1744     0049                     TMR1_enable@var_T1CON:
  1745                           
  1746                           ; 1 bytes @ 0x13
  1747     0049                     	ds	1
  1748     004A                     TMR1_enable@var_Settings:
  1749                           
  1750                           ; 1 bytes @ 0x14
  1751     004A                     	ds	1
  1752     004B                     ??_main:
  1753                           
  1754                           	psect	maintext
  1755     03E0                     __pmaintext:	
  1756                           ; 1 bytes @ 0x15
  1757 ;;
  1758 ;;Main: autosize = 0, tempsize = 0, incstack = 0, save=0
  1759 ;;
  1760 ;; *************** function _main *****************
  1761 ;; Defined at:
  1762 ;;		line 27 in file "main.c"
  1763 ;; Parameters:    Size  Location     Type
  1764 ;;		None
  1765 ;; Auto vars:     Size  Location     Type
  1766 ;;		None
  1767 ;; Return value:  Size  Location     Type
  1768 ;;                  1    wreg      void 
  1769 ;; Registers used:
  1770 ;;		wreg, fsr0l, fsr0h, status,2, status,0, pclath, cstack
  1771 ;; Tracked objects:
  1772 ;;		On entry : B00/0
  1773 ;;		On exit  : 0/0
  1774 ;;		Unchanged: 0/0
  1775 ;; Data sizes:     COMMON   BANK0   BANK1   BANK3   BANK2
  1776 ;;      Params:         0       0       0       0       0
  1777 ;;      Locals:         0       0       0       0       0
  1778 ;;      Temps:          0       0       0       0       0
  1779 ;;      Totals:         0       0       0       0       0
  1780 ;;Total ram usage:        0 bytes
  1781 ;; Hardware stack levels required when called: 4
  1782 ;; This function calls:
  1783 ;;		_ExternalClock_Init
  1784 ;;		_TMR1_enable
  1785 ;;		_TMR1_set_timer
  1786 ;;		_pin_Direction
  1787 ;;		_write_Digital
  1788 ;; This function is called by:
  1789 ;;		Startup code after reset
  1790 ;; This function uses a non-reentrant model
  1791 ;;
  1792                           
  1793     03E0                     _main:	
  1794                           ;psect for function _main
  1795                           
  1796     03E0                     l4436:	
  1797                           ;incstack = 0
  1798                           ; Regs used in _main: [wreg-fsr0h+status,2+status,0+pclath+cstack]
  1799                           
  1800                           
  1801                           ;main.c: 28:     pin_Direction(RD_1,0x00);
  1802     03E0  1283               	bcf	3,5	;RP0=0, select bank0
  1803     03E1  1303               	bcf	3,6	;RP1=0, select bank0
  1804     03E2  01B6               	clrf	pin_Direction@var_derection
  1805     03E3  3019               	movlw	25
  1806     03E4  120A  118A  203A  120A  118A  	fcall	_pin_Direction
  1807                           
  1808                           ;main.c: 29:     TMR1_enable("FOSC4",0,0,1);
  1809     03E9  1283               	bcf	3,5	;RP0=0, select bank0
  1810     03EA  1303               	bcf	3,6	;RP1=0, select bank0
  1811     03EB  01BC               	clrf	TMR1_enable@SYNC
  1812     03EC  01BD               	clrf	TMR1_enable@LPSOC
  1813     03ED  3001               	movlw	1
  1814     03EE  00BE               	movwf	TMR1_enable@Prescaler
  1815     03EF  3000               	movlw	0
  1816     03F0  00BF               	movwf	TMR1_enable@Prescaler+1
  1817     03F1  302F               	movlw	(low ((STR_1-__stringbase)| (0+32768)))& (0+255)
  1818     03F2  120A  118A  22DF  120A  118A  	fcall	_TMR1_enable
  1819     03F7                     l4438:
  1820                           
  1821                           ;main.c: 30:     TMR1_set_timer(65534);
  1822     03F7  30FE               	movlw	254
  1823     03F8  1283               	bcf	3,5	;RP0=0, select bank0
  1824     03F9  1303               	bcf	3,6	;RP1=0, select bank0
  1825     03FA  00B6               	movwf	TMR1_set_timer@time
  1826     03FB  30FF               	movlw	255
  1827     03FC  00B7               	movwf	TMR1_set_timer@time+1
  1828     03FD  120A  118A  2439  120A  118A  	fcall	_TMR1_set_timer
  1829     0402                     l4440:
  1830                           
  1831                           ;main.c: 31:     ExternalClock_Init();
  1832     0402  120A  118A  2462  120A  118A  	fcall	_ExternalClock_Init
  1833                           
  1834                           ;main.c: 32:     write_Digital(RD_1,0x01);
  1835     0407  1283               	bcf	3,5	;RP0=0, select bank0
  1836     0408  1303               	bcf	3,6	;RP1=0, select bank0
  1837     0409  01B6               	clrf	write_Digital@value
  1838     040A  0AB6               	incf	write_Digital@value,f
  1839     040B  3019               	movlw	25
  1840     040C  120A  118A  220A  120A  118A  	fcall	_write_Digital
  1841     0411                     l25:	
  1842                           ;main.c: 34:     while(1){
  1843                           
  1844     0411                     l26:	
  1845                           ;main.c: 36:     }
  1846                           
  1847     0411  2C11               	goto	l25
  1848     0412  120A  118A  280E   	ljmp	start
  1849     0415                     __end_of_main:
  1850                           
  1851                           	psect	text1
  1852     020A                     __ptext1:	
  1853 ;; *************** function _write_Digital *****************
  1854 ;; Defined at:
  1855 ;;		line 168 in file "../../Sources/16F887/io.c"
  1856 ;; Parameters:    Size  Location     Type
  1857 ;;  var_pin         1    wreg     enum E1456
  1858 ;;  value           1    0[BANK0 ] unsigned char 
  1859 ;; Auto vars:     Size  Location     Type
  1860 ;;  var_pin         1    4[BANK0 ] enum E1456
  1861 ;;  var_PortNumb    1    3[BANK0 ] unsigned char 
  1862 ;; Return value:  Size  Location     Type
  1863 ;;                  1    wreg      void 
  1864 ;; Registers used:
  1865 ;;		wreg, fsr0l, fsr0h, status,2, status,0
  1866 ;; Tracked objects:
  1867 ;;		On entry : 0/0
  1868 ;;		On exit  : 0/0
  1869 ;;		Unchanged: 0/0
  1870 ;; Data sizes:     COMMON   BANK0   BANK1   BANK3   BANK2
  1871 ;;      Params:         0       1       0       0       0
  1872 ;;      Locals:         0       2       0       0       0
  1873 ;;      Temps:          0       2       0       0       0
  1874 ;;      Totals:         0       5       0       0       0
  1875 ;;Total ram usage:        5 bytes
  1876 ;; Hardware stack levels used: 1
  1877 ;; Hardware stack levels required when called: 2
  1878 ;; This function calls:
  1879 ;;		Nothing
  1880 ;; This function is called by:
  1881 ;;		_main
  1882 ;;		_write_byte
  1883 ;;		_lcd_BusyCheck
  1884 ;;		_lcd_SendCMDSignlas
  1885 ;;		_lcd_SendDataSignlas
  1886 ;;		_lcd_SendHigherData
  1887 ;;		_lcd_SendLowerData
  1888 ;; This function uses a non-reentrant model
  1889 ;;
  1890                           
  1891     020A                     _write_Digital:	
  1892                           ;psect for function _write_Digital
  1893                           
  1894                           
  1895                           ;incstack = 0
  1896                           ; Regs used in _write_Digital: [wreg-fsr0h+status,2+status,0]
  1897                           ;write_Digital@var_pin stored from wreg
  1898     020A  1283               	bcf	3,5	;RP0=0, select bank0
  1899     020B  1303               	bcf	3,6	;RP1=0, select bank0
  1900     020C  00BA               	movwf	write_Digital@var_pin
  1901     020D                     l3940:
  1902                           
  1903                           ;../../Sources/16F887/io.c: 169: ;../../Sources/16F887/io.c: 170:     switch(var_PortNum
      +                          ){
  1904     020D  083A               	movf	write_Digital@var_pin,w
  1905     020E  00B7               	movwf	??_write_Digital
  1906     020F  3003               	movlw	3
  1907     0210                     u3575:
  1908     0210  1003               	clrc
  1909     0211  0CB7               	rrf	??_write_Digital,f
  1910     0212  3EFF               	addlw	-1
  1911     0213  1D03               	skipz
  1912     0214  2A10               	goto	u3575
  1913     0215  0837               	movf	??_write_Digital,w
  1914     0216  00B9               	movwf	write_Digital@var_PortNumber
  1915     0217                     l3942:
  1916                           
  1917                           ;../../Sources/16F887/io.c: 171:         case 0:
  1918     0217  083A               	movf	write_Digital@var_pin,w
  1919     0218  3907               	andlw	7
  1920     0219  00BA               	movwf	write_Digital@var_pin
  1921                           
  1922                           ;../../Sources/16F887/io.c: 173:             break;
  1923     021A  2AC5               	goto	l3976
  1924     021B                     l3944:
  1925                           
  1926                           ;../../Sources/16F887/io.c: 175:             returnStatus = (((PORTB)&((1<<(var_pin))))!
      +                          =0u);
  1927     021B  0836               	movf	write_Digital@value,w
  1928     021C  1903               	btfsc	3,2
  1929     021D  2A1F               	goto	u3581
  1930     021E  2A20               	goto	u3580
  1931     021F                     u3581:
  1932     021F  2A2E               	goto	l3948
  1933     0220                     u3580:
  1934     0220                     l3946:
  1935     0220  3001               	movlw	1
  1936     0221  00B7               	movwf	??_write_Digital
  1937     0222  0A3A               	incf	write_Digital@var_pin,w
  1938     0223  2A26               	goto	u3594
  1939     0224                     u3595:
  1940     0224  1003               	clrc
  1941     0225  0DB7               	rlf	??_write_Digital,f
  1942     0226                     u3594:
  1943     0226  3EFF               	addlw	-1
  1944     0227  1D03               	skipz
  1945     0228  2A24               	goto	u3595
  1946     0229  0837               	movf	??_write_Digital,w
  1947     022A  00B8               	movwf	??_write_Digital+1
  1948     022B  0838               	movf	??_write_Digital+1,w
  1949     022C  0485               	iorwf	5,f	;volatile
  1950     022D  2ADE               	goto	l467
  1951     022E                     l3948:
  1952     022E  3001               	movlw	1
  1953     022F  00B7               	movwf	??_write_Digital
  1954     0230  0A3A               	incf	write_Digital@var_pin,w
  1955     0231  2A34               	goto	u3604
  1956     0232                     u3605:
  1957     0232  1003               	clrc
  1958     0233  0DB7               	rlf	??_write_Digital,f
  1959     0234                     u3604:
  1960     0234  3EFF               	addlw	-1
  1961     0235  1D03               	skipz
  1962     0236  2A32               	goto	u3605
  1963     0237  0837               	movf	??_write_Digital,w
  1964     0238  3AFF               	xorlw	255
  1965     0239  00B8               	movwf	??_write_Digital+1
  1966     023A  0838               	movf	??_write_Digital+1,w
  1967     023B  0585               	andwf	5,f	;volatile
  1968     023C  2ADE               	goto	l467
  1969     023D                     l3950:
  1970                           
  1971                           ;../../Sources/16F887/io.c: 178:             returnStatus = (((PORTC)&((1<<(var_pin))))!
      +                          =0u);
  1972     023D  0836               	movf	write_Digital@value,w
  1973     023E  1903               	btfsc	3,2
  1974     023F  2A41               	goto	u3611
  1975     0240  2A42               	goto	u3610
  1976     0241                     u3611:
  1977     0241  2A50               	goto	l3954
  1978     0242                     u3610:
  1979     0242                     l3952:
  1980     0242  3001               	movlw	1
  1981     0243  00B7               	movwf	??_write_Digital
  1982     0244  0A3A               	incf	write_Digital@var_pin,w
  1983     0245  2A48               	goto	u3624
  1984     0246                     u3625:
  1985     0246  1003               	clrc
  1986     0247  0DB7               	rlf	??_write_Digital,f
  1987     0248                     u3624:
  1988     0248  3EFF               	addlw	-1
  1989     0249  1D03               	skipz
  1990     024A  2A46               	goto	u3625
  1991     024B  0837               	movf	??_write_Digital,w
  1992     024C  00B8               	movwf	??_write_Digital+1
  1993     024D  0838               	movf	??_write_Digital+1,w
  1994     024E  0486               	iorwf	6,f	;volatile
  1995     024F  2ADE               	goto	l467
  1996     0250                     l3954:
  1997     0250  3001               	movlw	1
  1998     0251  00B7               	movwf	??_write_Digital
  1999     0252  0A3A               	incf	write_Digital@var_pin,w
  2000     0253  2A56               	goto	u3634
  2001     0254                     u3635:
  2002     0254  1003               	clrc
  2003     0255  0DB7               	rlf	??_write_Digital,f
  2004     0256                     u3634:
  2005     0256  3EFF               	addlw	-1
  2006     0257  1D03               	skipz
  2007     0258  2A54               	goto	u3635
  2008     0259  0837               	movf	??_write_Digital,w
  2009     025A  3AFF               	xorlw	255
  2010     025B  00B8               	movwf	??_write_Digital+1
  2011     025C  0838               	movf	??_write_Digital+1,w
  2012     025D  0586               	andwf	6,f	;volatile
  2013     025E  2ADE               	goto	l467
  2014     025F                     l3956:
  2015                           
  2016                           ;../../Sources/16F887/io.c: 181:             returnStatus = (((PORTD)&((1<<(var_pin))))!
      +                          =0u);
  2017     025F  0836               	movf	write_Digital@value,w
  2018     0260  1903               	btfsc	3,2
  2019     0261  2A63               	goto	u3641
  2020     0262  2A64               	goto	u3640
  2021     0263                     u3641:
  2022     0263  2A72               	goto	l3960
  2023     0264                     u3640:
  2024     0264                     l3958:
  2025     0264  3001               	movlw	1
  2026     0265  00B7               	movwf	??_write_Digital
  2027     0266  0A3A               	incf	write_Digital@var_pin,w
  2028     0267  2A6A               	goto	u3654
  2029     0268                     u3655:
  2030     0268  1003               	clrc
  2031     0269  0DB7               	rlf	??_write_Digital,f
  2032     026A                     u3654:
  2033     026A  3EFF               	addlw	-1
  2034     026B  1D03               	skipz
  2035     026C  2A68               	goto	u3655
  2036     026D  0837               	movf	??_write_Digital,w
  2037     026E  00B8               	movwf	??_write_Digital+1
  2038     026F  0838               	movf	??_write_Digital+1,w
  2039     0270  0487               	iorwf	7,f	;volatile
  2040     0271  2ADE               	goto	l467
  2041     0272                     l3960:
  2042     0272  3001               	movlw	1
  2043     0273  00B7               	movwf	??_write_Digital
  2044     0274  0A3A               	incf	write_Digital@var_pin,w
  2045     0275  2A78               	goto	u3664
  2046     0276                     u3665:
  2047     0276  1003               	clrc
  2048     0277  0DB7               	rlf	??_write_Digital,f
  2049     0278                     u3664:
  2050     0278  3EFF               	addlw	-1
  2051     0279  1D03               	skipz
  2052     027A  2A76               	goto	u3665
  2053     027B  0837               	movf	??_write_Digital,w
  2054     027C  3AFF               	xorlw	255
  2055     027D  00B8               	movwf	??_write_Digital+1
  2056     027E  0838               	movf	??_write_Digital+1,w
  2057     027F  0587               	andwf	7,f	;volatile
  2058     0280  2ADE               	goto	l467
  2059     0281                     l3962:
  2060                           
  2061                           ;../../Sources/16F887/io.c: 184:             returnStatus = (((PORTE)&((1<<(var_pin))))!
      +                          =0u);
  2062     0281  0836               	movf	write_Digital@value,w
  2063     0282  1903               	btfsc	3,2
  2064     0283  2A85               	goto	u3671
  2065     0284  2A86               	goto	u3670
  2066     0285                     u3671:
  2067     0285  2A94               	goto	l3966
  2068     0286                     u3670:
  2069     0286                     l3964:
  2070     0286  3001               	movlw	1
  2071     0287  00B7               	movwf	??_write_Digital
  2072     0288  0A3A               	incf	write_Digital@var_pin,w
  2073     0289  2A8C               	goto	u3684
  2074     028A                     u3685:
  2075     028A  1003               	clrc
  2076     028B  0DB7               	rlf	??_write_Digital,f
  2077     028C                     u3684:
  2078     028C  3EFF               	addlw	-1
  2079     028D  1D03               	skipz
  2080     028E  2A8A               	goto	u3685
  2081     028F  0837               	movf	??_write_Digital,w
  2082     0290  00B8               	movwf	??_write_Digital+1
  2083     0291  0838               	movf	??_write_Digital+1,w
  2084     0292  0488               	iorwf	8,f	;volatile
  2085     0293  2ADE               	goto	l467
  2086     0294                     l3966:
  2087     0294  3001               	movlw	1
  2088     0295  00B7               	movwf	??_write_Digital
  2089     0296  0A3A               	incf	write_Digital@var_pin,w
  2090     0297  2A9A               	goto	u3694
  2091     0298                     u3695:
  2092     0298  1003               	clrc
  2093     0299  0DB7               	rlf	??_write_Digital,f
  2094     029A                     u3694:
  2095     029A  3EFF               	addlw	-1
  2096     029B  1D03               	skipz
  2097     029C  2A98               	goto	u3695
  2098     029D  0837               	movf	??_write_Digital,w
  2099     029E  3AFF               	xorlw	255
  2100     029F  00B8               	movwf	??_write_Digital+1
  2101     02A0  0838               	movf	??_write_Digital+1,w
  2102     02A1  0588               	andwf	8,f	;volatile
  2103     02A2  2ADE               	goto	l467
  2104     02A3                     l3968:
  2105                           
  2106                           ;../../Sources/16F887/io.c: 187:     return returnStatus;
  2107     02A3  0836               	movf	write_Digital@value,w
  2108     02A4  1903               	btfsc	3,2
  2109     02A5  2AA7               	goto	u3701
  2110     02A6  2AA8               	goto	u3700
  2111     02A7                     u3701:
  2112     02A7  2AB6               	goto	l3972
  2113     02A8                     u3700:
  2114     02A8                     l3970:
  2115     02A8  3001               	movlw	1
  2116     02A9  00B7               	movwf	??_write_Digital
  2117     02AA  0A3A               	incf	write_Digital@var_pin,w
  2118     02AB  2AAE               	goto	u3714
  2119     02AC                     u3715:
  2120     02AC  1003               	clrc
  2121     02AD  0DB7               	rlf	??_write_Digital,f
  2122     02AE                     u3714:
  2123     02AE  3EFF               	addlw	-1
  2124     02AF  1D03               	skipz
  2125     02B0  2AAC               	goto	u3715
  2126     02B1  0837               	movf	??_write_Digital,w
  2127     02B2  00B8               	movwf	??_write_Digital+1
  2128     02B3  0838               	movf	??_write_Digital+1,w
  2129     02B4  0489               	iorwf	9,f	;volatile
  2130     02B5  2ADE               	goto	l467
  2131     02B6                     l3972:
  2132     02B6  3001               	movlw	1
  2133     02B7  00B7               	movwf	??_write_Digital
  2134     02B8  0A3A               	incf	write_Digital@var_pin,w
  2135     02B9  2ABC               	goto	u3724
  2136     02BA                     u3725:
  2137     02BA  1003               	clrc
  2138     02BB  0DB7               	rlf	??_write_Digital,f
  2139     02BC                     u3724:
  2140     02BC  3EFF               	addlw	-1
  2141     02BD  1D03               	skipz
  2142     02BE  2ABA               	goto	u3725
  2143     02BF  0837               	movf	??_write_Digital,w
  2144     02C0  3AFF               	xorlw	255
  2145     02C1  00B8               	movwf	??_write_Digital+1
  2146     02C2  0838               	movf	??_write_Digital+1,w
  2147     02C3  0589               	andwf	9,f	;volatile
  2148     02C4  2ADE               	goto	l467
  2149     02C5                     l3976:
  2150     02C5  0839               	movf	write_Digital@var_PortNumber,w
  2151     02C6  00B7               	movwf	??_write_Digital
  2152     02C7  01B8               	clrf	??_write_Digital+1
  2153                           
  2154                           ; Switch on 2 bytes has been partitioned into a top level switch of size 1, and 1 sub-sw
      +                          itches
  2155                           ; Switch size 1, requested type "simple"
  2156                           ; Number of cases is 1, Range of values is 0 to 0
  2157                           ; switch strategies available:
  2158                           ; Name         Instructions Cycles
  2159                           ; simple_byte            4     3 (average)
  2160                           ; direct_byte           11     8 (fixed)
  2161                           ; jumptable            260     6 (fixed)
  2162                           ;	Chosen strategy is simple_byte
  2163     02C8  0838               	movf	??_write_Digital+1,w
  2164     02C9  3A00               	xorlw	0	; case 0
  2165     02CA  1903               	skipnz
  2166     02CB  2ACD               	goto	l4874
  2167     02CC  2ADE               	goto	l467
  2168     02CD                     l4874:
  2169                           
  2170                           ; Switch size 1, requested type "simple"
  2171                           ; Number of cases is 5, Range of values is 0 to 4
  2172                           ; switch strategies available:
  2173                           ; Name         Instructions Cycles
  2174                           ; simple_byte           16     9 (average)
  2175                           ; direct_byte           23     8 (fixed)
  2176                           ; jumptable            260     6 (fixed)
  2177                           ;	Chosen strategy is simple_byte
  2178     02CD  0837               	movf	??_write_Digital,w
  2179     02CE  3A00               	xorlw	0	; case 0
  2180     02CF  1903               	skipnz
  2181     02D0  2A1B               	goto	l3944
  2182     02D1  3A01               	xorlw	1	; case 1
  2183     02D2  1903               	skipnz
  2184     02D3  2A3D               	goto	l3950
  2185     02D4  3A03               	xorlw	3	; case 2
  2186     02D5  1903               	skipnz
  2187     02D6  2A5F               	goto	l3956
  2188     02D7  3A01               	xorlw	1	; case 3
  2189     02D8  1903               	skipnz
  2190     02D9  2A81               	goto	l3962
  2191     02DA  3A07               	xorlw	7	; case 4
  2192     02DB  1903               	skipnz
  2193     02DC  2AA3               	goto	l3968
  2194     02DD  2ADE               	goto	l467
  2195     02DE                     l467:
  2196     02DE  0008               	return
  2197     02DF                     __end_of_write_Digital:
  2198                           
  2199                           	psect	text2
  2200     003A                     __ptext2:	
  2201 ;; *************** function _pin_Direction *****************
  2202 ;; Defined at:
  2203 ;;		line 35 in file "../../Sources/16F887/io.c"
  2204 ;; Parameters:    Size  Location     Type
  2205 ;;  var_pin         1    wreg     enum E1456
  2206 ;;  var_derectio    1    0[BANK0 ] unsigned char 
  2207 ;; Auto vars:     Size  Location     Type
  2208 ;;  var_pin         1    4[BANK0 ] enum E1456
  2209 ;;  var_PortNumb    1    3[BANK0 ] unsigned char 
  2210 ;; Return value:  Size  Location     Type
  2211 ;;                  1    wreg      void 
  2212 ;; Registers used:
  2213 ;;		wreg, fsr0l, fsr0h, status,2, status,0
  2214 ;; Tracked objects:
  2215 ;;		On entry : 0/0
  2216 ;;		On exit  : 0/0
  2217 ;;		Unchanged: 0/0
  2218 ;; Data sizes:     COMMON   BANK0   BANK1   BANK3   BANK2
  2219 ;;      Params:         0       1       0       0       0
  2220 ;;      Locals:         0       2       0       0       0
  2221 ;;      Temps:          0       2       0       0       0
  2222 ;;      Totals:         0       5       0       0       0
  2223 ;;Total ram usage:        5 bytes
  2224 ;; Hardware stack levels used: 1
  2225 ;; Hardware stack levels required when called: 2
  2226 ;; This function calls:
  2227 ;;		Nothing
  2228 ;; This function is called by:
  2229 ;;		_main
  2230 ;;		_LCD_Setup
  2231 ;;		_lcd_BusyCheck
  2232 ;;		_UART_Init
  2233 ;; This function uses a non-reentrant model
  2234 ;;
  2235                           
  2236     003A                     _pin_Direction:	
  2237                           ;psect for function _pin_Direction
  2238                           
  2239                           
  2240                           ;incstack = 0
  2241                           ; Regs used in _pin_Direction: [wreg-fsr0h+status,2+status,0]
  2242                           ;pin_Direction@var_pin stored from wreg
  2243     003A  1283               	bcf	3,5	;RP0=0, select bank0
  2244     003B  1303               	bcf	3,6	;RP1=0, select bank0
  2245     003C  00BA               	movwf	pin_Direction@var_pin
  2246     003D                     l3990:
  2247                           
  2248                           ;../../Sources/16F887/io.c: 36:             }else{;../../Sources/16F887/io.c: 37:       
      +                                    ANSELbits.ANS0 = 0;
  2249     003D  083A               	movf	pin_Direction@var_pin,w
  2250     003E  00B7               	movwf	??_pin_Direction
  2251     003F  3003               	movlw	3
  2252     0040                     u3735:
  2253     0040  1003               	clrc
  2254     0041  0CB7               	rrf	??_pin_Direction,f
  2255     0042  3EFF               	addlw	-1
  2256     0043  1D03               	skipz
  2257     0044  2840               	goto	u3735
  2258     0045  0837               	movf	??_pin_Direction,w
  2259     0046  00B9               	movwf	pin_Direction@var_PortNumber
  2260     0047                     l3992:
  2261                           
  2262                           ;../../Sources/16F887/io.c: 38:             }
  2263     0047  083A               	movf	pin_Direction@var_pin,w
  2264     0048  3907               	andlw	7
  2265     0049  00BA               	movwf	pin_Direction@var_pin
  2266                           
  2267                           ;../../Sources/16F887/io.c: 40:         case RA_1:
  2268     004A  2909               	goto	l4026
  2269     004B                     l3994:
  2270                           
  2271                           ;../../Sources/16F887/io.c: 42:                 ANSELbits.ANS1 = 1;
  2272     004B  0836               	movf	pin_Direction@var_derection,w
  2273     004C  1903               	btfsc	3,2
  2274     004D  284F               	goto	u3741
  2275     004E  2850               	goto	u3740
  2276     004F                     u3741:
  2277     004F  2860               	goto	l3998
  2278     0050                     u3740:
  2279     0050                     l3996:
  2280     0050  3001               	movlw	1
  2281     0051  00B7               	movwf	??_pin_Direction
  2282     0052  0A3A               	incf	pin_Direction@var_pin,w
  2283     0053  2856               	goto	u3754
  2284     0054                     u3755:
  2285     0054  1003               	clrc
  2286     0055  0DB7               	rlf	??_pin_Direction,f
  2287     0056                     u3754:
  2288     0056  3EFF               	addlw	-1
  2289     0057  1D03               	skipz
  2290     0058  2854               	goto	u3755
  2291     0059  0837               	movf	??_pin_Direction,w
  2292     005A  00B8               	movwf	??_pin_Direction+1
  2293     005B  0838               	movf	??_pin_Direction+1,w
  2294     005C  1683               	bsf	3,5	;RP0=1, select bank1
  2295     005D  1303               	bcf	3,6	;RP1=0, select bank1
  2296     005E  0485               	iorwf	5,f	;volatile
  2297     005F  2922               	goto	l390
  2298     0060                     l3998:
  2299     0060  3001               	movlw	1
  2300     0061  00B7               	movwf	??_pin_Direction
  2301     0062  0A3A               	incf	pin_Direction@var_pin,w
  2302     0063  2866               	goto	u3764
  2303     0064                     u3765:
  2304     0064  1003               	clrc
  2305     0065  0DB7               	rlf	??_pin_Direction,f
  2306     0066                     u3764:
  2307     0066  3EFF               	addlw	-1
  2308     0067  1D03               	skipz
  2309     0068  2864               	goto	u3765
  2310     0069  0837               	movf	??_pin_Direction,w
  2311     006A  3AFF               	xorlw	255
  2312     006B  00B8               	movwf	??_pin_Direction+1
  2313     006C  0838               	movf	??_pin_Direction+1,w
  2314     006D  1683               	bsf	3,5	;RP0=1, select bank1
  2315     006E  1303               	bcf	3,6	;RP1=0, select bank1
  2316     006F  0585               	andwf	5,f	;volatile
  2317     0070  2922               	goto	l390
  2318     0071                     l4000:
  2319                           
  2320                           ;../../Sources/16F887/io.c: 45:             }
  2321     0071  0836               	movf	pin_Direction@var_derection,w
  2322     0072  1903               	btfsc	3,2
  2323     0073  2875               	goto	u3771
  2324     0074  2876               	goto	u3770
  2325     0075                     u3771:
  2326     0075  2886               	goto	l4004
  2327     0076                     u3770:
  2328     0076                     l4002:
  2329     0076  3001               	movlw	1
  2330     0077  00B7               	movwf	??_pin_Direction
  2331     0078  0A3A               	incf	pin_Direction@var_pin,w
  2332     0079  287C               	goto	u3784
  2333     007A                     u3785:
  2334     007A  1003               	clrc
  2335     007B  0DB7               	rlf	??_pin_Direction,f
  2336     007C                     u3784:
  2337     007C  3EFF               	addlw	-1
  2338     007D  1D03               	skipz
  2339     007E  287A               	goto	u3785
  2340     007F  0837               	movf	??_pin_Direction,w
  2341     0080  00B8               	movwf	??_pin_Direction+1
  2342     0081  0838               	movf	??_pin_Direction+1,w
  2343     0082  1683               	bsf	3,5	;RP0=1, select bank1
  2344     0083  1303               	bcf	3,6	;RP1=0, select bank1
  2345     0084  0486               	iorwf	6,f	;volatile
  2346     0085  2922               	goto	l390
  2347     0086                     l4004:
  2348     0086  3001               	movlw	1
  2349     0087  00B7               	movwf	??_pin_Direction
  2350     0088  0A3A               	incf	pin_Direction@var_pin,w
  2351     0089  288C               	goto	u3794
  2352     008A                     u3795:
  2353     008A  1003               	clrc
  2354     008B  0DB7               	rlf	??_pin_Direction,f
  2355     008C                     u3794:
  2356     008C  3EFF               	addlw	-1
  2357     008D  1D03               	skipz
  2358     008E  288A               	goto	u3795
  2359     008F  0837               	movf	??_pin_Direction,w
  2360     0090  3AFF               	xorlw	255
  2361     0091  00B8               	movwf	??_pin_Direction+1
  2362     0092  0838               	movf	??_pin_Direction+1,w
  2363     0093  1683               	bsf	3,5	;RP0=1, select bank1
  2364     0094  1303               	bcf	3,6	;RP1=0, select bank1
  2365     0095  0586               	andwf	6,f	;volatile
  2366     0096  2922               	goto	l390
  2367     0097                     l4006:
  2368                           
  2369                           ;../../Sources/16F887/io.c: 48:             if(mode == 0x01){
  2370     0097  0836               	movf	pin_Direction@var_derection,w
  2371     0098  1903               	btfsc	3,2
  2372     0099  289B               	goto	u3801
  2373     009A  289C               	goto	u3800
  2374     009B                     u3801:
  2375     009B  28AC               	goto	l4010
  2376     009C                     u3800:
  2377     009C                     l4008:
  2378     009C  3001               	movlw	1
  2379     009D  00B7               	movwf	??_pin_Direction
  2380     009E  0A3A               	incf	pin_Direction@var_pin,w
  2381     009F  28A2               	goto	u3814
  2382     00A0                     u3815:
  2383     00A0  1003               	clrc
  2384     00A1  0DB7               	rlf	??_pin_Direction,f
  2385     00A2                     u3814:
  2386     00A2  3EFF               	addlw	-1
  2387     00A3  1D03               	skipz
  2388     00A4  28A0               	goto	u3815
  2389     00A5  0837               	movf	??_pin_Direction,w
  2390     00A6  00B8               	movwf	??_pin_Direction+1
  2391     00A7  0838               	movf	??_pin_Direction+1,w
  2392     00A8  1683               	bsf	3,5	;RP0=1, select bank1
  2393     00A9  1303               	bcf	3,6	;RP1=0, select bank1
  2394     00AA  0487               	iorwf	7,f	;volatile
  2395     00AB  2922               	goto	l390
  2396     00AC                     l4010:
  2397     00AC  3001               	movlw	1
  2398     00AD  00B7               	movwf	??_pin_Direction
  2399     00AE  0A3A               	incf	pin_Direction@var_pin,w
  2400     00AF  28B2               	goto	u3824
  2401     00B0                     u3825:
  2402     00B0  1003               	clrc
  2403     00B1  0DB7               	rlf	??_pin_Direction,f
  2404     00B2                     u3824:
  2405     00B2  3EFF               	addlw	-1
  2406     00B3  1D03               	skipz
  2407     00B4  28B0               	goto	u3825
  2408     00B5  0837               	movf	??_pin_Direction,w
  2409     00B6  3AFF               	xorlw	255
  2410     00B7  00B8               	movwf	??_pin_Direction+1
  2411     00B8  0838               	movf	??_pin_Direction+1,w
  2412     00B9  1683               	bsf	3,5	;RP0=1, select bank1
  2413     00BA  1303               	bcf	3,6	;RP1=0, select bank1
  2414     00BB  0587               	andwf	7,f	;volatile
  2415     00BC  2922               	goto	l390
  2416     00BD                     l4012:
  2417                           
  2418                           ;../../Sources/16F887/io.c: 51:                 ANSELbits.ANS2 = 0;
  2419     00BD  0836               	movf	pin_Direction@var_derection,w
  2420     00BE  1903               	btfsc	3,2
  2421     00BF  28C1               	goto	u3831
  2422     00C0  28C2               	goto	u3830
  2423     00C1                     u3831:
  2424     00C1  28D2               	goto	l4016
  2425     00C2                     u3830:
  2426     00C2                     l4014:
  2427     00C2  3001               	movlw	1
  2428     00C3  00B7               	movwf	??_pin_Direction
  2429     00C4  0A3A               	incf	pin_Direction@var_pin,w
  2430     00C5  28C8               	goto	u3844
  2431     00C6                     u3845:
  2432     00C6  1003               	clrc
  2433     00C7  0DB7               	rlf	??_pin_Direction,f
  2434     00C8                     u3844:
  2435     00C8  3EFF               	addlw	-1
  2436     00C9  1D03               	skipz
  2437     00CA  28C6               	goto	u3845
  2438     00CB  0837               	movf	??_pin_Direction,w
  2439     00CC  00B8               	movwf	??_pin_Direction+1
  2440     00CD  0838               	movf	??_pin_Direction+1,w
  2441     00CE  1683               	bsf	3,5	;RP0=1, select bank1
  2442     00CF  1303               	bcf	3,6	;RP1=0, select bank1
  2443     00D0  0488               	iorwf	8,f	;volatile
  2444     00D1  2922               	goto	l390
  2445     00D2                     l4016:
  2446     00D2  3001               	movlw	1
  2447     00D3  00B7               	movwf	??_pin_Direction
  2448     00D4  0A3A               	incf	pin_Direction@var_pin,w
  2449     00D5  28D8               	goto	u3854
  2450     00D6                     u3855:
  2451     00D6  1003               	clrc
  2452     00D7  0DB7               	rlf	??_pin_Direction,f
  2453     00D8                     u3854:
  2454     00D8  3EFF               	addlw	-1
  2455     00D9  1D03               	skipz
  2456     00DA  28D6               	goto	u3855
  2457     00DB  0837               	movf	??_pin_Direction,w
  2458     00DC  3AFF               	xorlw	255
  2459     00DD  00B8               	movwf	??_pin_Direction+1
  2460     00DE  0838               	movf	??_pin_Direction+1,w
  2461     00DF  1683               	bsf	3,5	;RP0=1, select bank1
  2462     00E0  1303               	bcf	3,6	;RP1=0, select bank1
  2463     00E1  0588               	andwf	8,f	;volatile
  2464     00E2  2922               	goto	l390
  2465     00E3                     l4018:
  2466                           
  2467                           ;../../Sources/16F887/io.c: 54:         case RA_3:
  2468     00E3  0836               	movf	pin_Direction@var_derection,w
  2469     00E4  1903               	btfsc	3,2
  2470     00E5  28E7               	goto	u3861
  2471     00E6  28E8               	goto	u3860
  2472     00E7                     u3861:
  2473     00E7  28F8               	goto	l4022
  2474     00E8                     u3860:
  2475     00E8                     l4020:
  2476     00E8  3001               	movlw	1
  2477     00E9  00B7               	movwf	??_pin_Direction
  2478     00EA  0A3A               	incf	pin_Direction@var_pin,w
  2479     00EB  28EE               	goto	u3874
  2480     00EC                     u3875:
  2481     00EC  1003               	clrc
  2482     00ED  0DB7               	rlf	??_pin_Direction,f
  2483     00EE                     u3874:
  2484     00EE  3EFF               	addlw	-1
  2485     00EF  1D03               	skipz
  2486     00F0  28EC               	goto	u3875
  2487     00F1  0837               	movf	??_pin_Direction,w
  2488     00F2  00B8               	movwf	??_pin_Direction+1
  2489     00F3  0838               	movf	??_pin_Direction+1,w
  2490     00F4  1683               	bsf	3,5	;RP0=1, select bank1
  2491     00F5  1303               	bcf	3,6	;RP1=0, select bank1
  2492     00F6  0489               	iorwf	9,f	;volatile
  2493     00F7  2922               	goto	l390
  2494     00F8                     l4022:
  2495     00F8  3001               	movlw	1
  2496     00F9  00B7               	movwf	??_pin_Direction
  2497     00FA  0A3A               	incf	pin_Direction@var_pin,w
  2498     00FB  28FE               	goto	u3884
  2499     00FC                     u3885:
  2500     00FC  1003               	clrc
  2501     00FD  0DB7               	rlf	??_pin_Direction,f
  2502     00FE                     u3884:
  2503     00FE  3EFF               	addlw	-1
  2504     00FF  1D03               	skipz
  2505     0100  28FC               	goto	u3885
  2506     0101  0837               	movf	??_pin_Direction,w
  2507     0102  3AFF               	xorlw	255
  2508     0103  00B8               	movwf	??_pin_Direction+1
  2509     0104  0838               	movf	??_pin_Direction+1,w
  2510     0105  1683               	bsf	3,5	;RP0=1, select bank1
  2511     0106  1303               	bcf	3,6	;RP1=0, select bank1
  2512     0107  0589               	andwf	9,f	;volatile
  2513     0108  2922               	goto	l390
  2514     0109                     l4026:
  2515     0109  0839               	movf	pin_Direction@var_PortNumber,w
  2516     010A  00B7               	movwf	??_pin_Direction
  2517     010B  01B8               	clrf	??_pin_Direction+1
  2518                           
  2519                           ; Switch on 2 bytes has been partitioned into a top level switch of size 1, and 1 sub-sw
      +                          itches
  2520                           ; Switch size 1, requested type "simple"
  2521                           ; Number of cases is 1, Range of values is 0 to 0
  2522                           ; switch strategies available:
  2523                           ; Name         Instructions Cycles
  2524                           ; simple_byte            4     3 (average)
  2525                           ; direct_byte           11     8 (fixed)
  2526                           ; jumptable            260     6 (fixed)
  2527                           ;	Chosen strategy is simple_byte
  2528     010C  0838               	movf	??_pin_Direction+1,w
  2529     010D  3A00               	xorlw	0	; case 0
  2530     010E  1903               	skipnz
  2531     010F  2911               	goto	l4876
  2532     0110  2922               	goto	l390
  2533     0111                     l4876:
  2534                           
  2535                           ; Switch size 1, requested type "simple"
  2536                           ; Number of cases is 5, Range of values is 0 to 4
  2537                           ; switch strategies available:
  2538                           ; Name         Instructions Cycles
  2539                           ; simple_byte           16     9 (average)
  2540                           ; direct_byte           23     8 (fixed)
  2541                           ; jumptable            260     6 (fixed)
  2542                           ;	Chosen strategy is simple_byte
  2543     0111  0837               	movf	??_pin_Direction,w
  2544     0112  3A00               	xorlw	0	; case 0
  2545     0113  1903               	skipnz
  2546     0114  284B               	goto	l3994
  2547     0115  3A01               	xorlw	1	; case 1
  2548     0116  1903               	skipnz
  2549     0117  2871               	goto	l4000
  2550     0118  3A03               	xorlw	3	; case 2
  2551     0119  1903               	skipnz
  2552     011A  2897               	goto	l4006
  2553     011B  3A01               	xorlw	1	; case 3
  2554     011C  1903               	skipnz
  2555     011D  28BD               	goto	l4012
  2556     011E  3A07               	xorlw	7	; case 4
  2557     011F  1903               	skipnz
  2558     0120  28E3               	goto	l4018
  2559     0121  2922               	goto	l390
  2560     0122                     l390:
  2561     0122  0008               	return
  2562     0123                     __end_of_pin_Direction:
  2563                           
  2564                           	psect	text3
  2565     0439                     __ptext3:	
  2566 ;; *************** function _TMR1_set_timer *****************
  2567 ;; Defined at:
  2568 ;;		line 193 in file "../../Sources/16F887/timer.c"
  2569 ;; Parameters:    Size  Location     Type
  2570 ;;  time            2    0[BANK0 ] unsigned int 
  2571 ;; Auto vars:     Size  Location     Type
  2572 ;;  bytes           2    2[BANK0 ] unsigned char [2]
  2573 ;; Return value:  Size  Location     Type
  2574 ;;                  1    wreg      void 
  2575 ;; Registers used:
  2576 ;;		wreg, status,2
  2577 ;; Tracked objects:
  2578 ;;		On entry : 0/0
  2579 ;;		On exit  : 0/0
  2580 ;;		Unchanged: 0/0
  2581 ;; Data sizes:     COMMON   BANK0   BANK1   BANK3   BANK2
  2582 ;;      Params:         0       2       0       0       0
  2583 ;;      Locals:         0       2       0       0       0
  2584 ;;      Temps:          0       0       0       0       0
  2585 ;;      Totals:         0       4       0       0       0
  2586 ;;Total ram usage:        4 bytes
  2587 ;; Hardware stack levels used: 1
  2588 ;; Hardware stack levels required when called: 2
  2589 ;; This function calls:
  2590 ;;		Nothing
  2591 ;; This function is called by:
  2592 ;;		_main
  2593 ;; This function uses a non-reentrant model
  2594 ;;
  2595                           
  2596     0439                     _TMR1_set_timer:	
  2597                           ;psect for function _TMR1_set_timer
  2598                           
  2599     0439                     l3982:	
  2600                           ;incstack = 0
  2601                           ; Regs used in _TMR1_set_timer: [wreg+status,2]
  2602                           
  2603                           
  2604                           ;../../Sources/16F887/timer.c: 194:     uint8_t bytes[2];;../../Sources/16F887/timer.c: 
      +                          195:     bytes[0] = time >> 8;
  2605     0439  1283               	bcf	3,5	;RP0=0, select bank0
  2606     043A  1303               	bcf	3,6	;RP1=0, select bank0
  2607     043B  0837               	movf	TMR1_set_timer@time+1,w
  2608     043C  00B8               	movwf	TMR1_set_timer@bytes
  2609     043D                     l3984:
  2610                           
  2611                           ;../../Sources/16F887/timer.c: 196:     bytes[1] = time & 0x00FF;
  2612     043D  0836               	movf	TMR1_set_timer@time,w
  2613     043E  00B9               	movwf	TMR1_set_timer@bytes+1
  2614     043F                     l3986:
  2615                           
  2616                           ;../../Sources/16F887/timer.c: 198:     TMR1H = bytes[0];
  2617     043F  0838               	movf	TMR1_set_timer@bytes,w
  2618     0440  008F               	movwf	15	;volatile
  2619     0441                     l3988:
  2620                           
  2621                           ;../../Sources/16F887/timer.c: 199:     TMR1L = bytes[1];
  2622     0441  0839               	movf	TMR1_set_timer@bytes+1,w
  2623     0442  008E               	movwf	14	;volatile
  2624     0443                     l1051:
  2625     0443  0008               	return
  2626     0444                     __end_of_TMR1_set_timer:
  2627                           
  2628                           	psect	text4
  2629     02DF                     __ptext4:	
  2630 ;; *************** function _TMR1_enable *****************
  2631 ;; Defined at:
  2632 ;;		line 131 in file "../../Sources/16F887/timer.c"
  2633 ;; Parameters:    Size  Location     Type
  2634 ;;  clk_src         1    wreg     PTR unsigned char 
  2635 ;;		 -> STR_1(6), 
  2636 ;;  SYNC            1    6[BANK0 ] _Bool 
  2637 ;;  LPSOC           1    7[BANK0 ] _Bool 
  2638 ;;  Prescaler       2    8[BANK0 ] int 
  2639 ;; Auto vars:     Size  Location     Type
  2640 ;;  clk_src         1   18[BANK0 ] PTR unsigned char 
  2641 ;;		 -> STR_1(6), 
  2642 ;;  x_LPSOC         2   15[BANK0 ] unsigned int 
  2643 ;;  x_SYNC          2   13[BANK0 ] unsigned int 
  2644 ;;  x_clk_src       2   11[BANK0 ] unsigned int 
  2645 ;;  var_Settings    1   20[BANK0 ] unsigned char 
  2646 ;;  var_T1CON       1   19[BANK0 ] unsigned char 
  2647 ;;  var_Prescale    1   17[BANK0 ] unsigned char 
  2648 ;; Return value:  Size  Location     Type
  2649 ;;                  1    wreg      void 
  2650 ;; Registers used:
  2651 ;;		wreg, fsr0l, fsr0h, status,2, status,0, pclath, cstack
  2652 ;; Tracked objects:
  2653 ;;		On entry : 0/0
  2654 ;;		On exit  : 0/0
  2655 ;;		Unchanged: 0/0
  2656 ;; Data sizes:     COMMON   BANK0   BANK1   BANK3   BANK2
  2657 ;;      Params:         0       4       0       0       0
  2658 ;;      Locals:         0      10       0       0       0
  2659 ;;      Temps:          0       1       0       0       0
  2660 ;;      Totals:         0      15       0       0       0
  2661 ;;Total ram usage:       15 bytes
  2662 ;; Hardware stack levels used: 1
  2663 ;; Hardware stack levels required when called: 3
  2664 ;; This function calls:
  2665 ;;		_strcmp
  2666 ;; This function is called by:
  2667 ;;		_main
  2668 ;; This function uses a non-reentrant model
  2669 ;;
  2670                           
  2671     02DF                     _TMR1_enable:	
  2672                           ;psect for function _TMR1_enable
  2673                           
  2674                           
  2675                           ;incstack = 0
  2676                           ; Regs used in _TMR1_enable: [wreg-fsr0h+status,2+status,0+pclath+cstack]
  2677                           ;TMR1_enable@clk_src stored from wreg
  2678     02DF  1283               	bcf	3,5	;RP0=0, select bank0
  2679     02E0  1303               	bcf	3,6	;RP1=0, select bank0
  2680     02E1  00C8               	movwf	TMR1_enable@clk_src
  2681     02E2                     l4032:
  2682                           
  2683                           ;../../Sources/16F887/timer.c: 132:     uint8_t var_Settings;;../../Sources/16F887/timer
      +                          .c: 133:     uint8_t var_Prescaler;;../../Sources/16F887/timer.c: 134:     uint8_t var_T
      +                          1CON;;../../Sources/16F887/timer.c: 135:     bit x_clk_src;;../../Sources/16F887/timer.c
      +                          : 136:     bit x_SYNC;;../../Sources/16F887/timer.c: 137:     bit x_LPSOC;;../../Sources
      +                          /16F887/timer.c: 139:     if(!strcmp(clk_src,"FOSC4")){
  2684     02E2  302F               	movlw	(low ((STR_1-__stringbase)| (0+32768)))& (0+255)
  2685     02E3  00B6               	movwf	strcmp@s2
  2686     02E4  0848               	movf	TMR1_enable@clk_src,w
  2687     02E5  120A  118A  23AA  120A  118A  	fcall	_strcmp
  2688     02EA  1283               	bcf	3,5	;RP0=0, select bank0
  2689     02EB  1303               	bcf	3,6	;RP1=0, select bank0
  2690     02EC  0836               	movf	?_strcmp,w
  2691     02ED  0437               	iorwf	?_strcmp+1,w
  2692     02EE  1D03               	btfss	3,2
  2693     02EF  2AF1               	goto	u3891
  2694     02F0  2AF2               	goto	u3890
  2695     02F1                     u3891:
  2696     02F1  2AF5               	goto	l4036
  2697     02F2                     u3890:
  2698     02F2                     l4034:
  2699                           
  2700                           ;../../Sources/16F887/timer.c: 140:         x_clk_src = 0;
  2701     02F2  01C1               	clrf	TMR1_enable@x_clk_src
  2702     02F3  01C2               	clrf	TMR1_enable@x_clk_src+1
  2703                           
  2704                           ;../../Sources/16F887/timer.c: 141:     }else if(!strcmp(clk_src,"T1CKI")){
  2705     02F4  2B09               	goto	l4040
  2706     02F5                     l4036:
  2707     02F5  3029               	movlw	(low ((STR_13-__stringbase)| (0+32768)))& (0+255)
  2708     02F6  00B6               	movwf	strcmp@s2
  2709     02F7  0848               	movf	TMR1_enable@clk_src,w
  2710     02F8  120A  118A  23AA  120A  118A  	fcall	_strcmp
  2711     02FD  1283               	bcf	3,5	;RP0=0, select bank0
  2712     02FE  1303               	bcf	3,6	;RP1=0, select bank0
  2713     02FF  0836               	movf	?_strcmp,w
  2714     0300  0437               	iorwf	?_strcmp+1,w
  2715     0301  1D03               	btfss	3,2
  2716     0302  2B04               	goto	u3901
  2717     0303  2B05               	goto	u3900
  2718     0304                     u3901:
  2719     0304  2B09               	goto	l4040
  2720     0305                     u3900:
  2721     0305                     l4038:
  2722                           
  2723                           ;../../Sources/16F887/timer.c: 142:         x_clk_src = 1;
  2724     0305  3001               	movlw	1
  2725     0306  00C1               	movwf	TMR1_enable@x_clk_src
  2726     0307  3000               	movlw	0
  2727     0308  00C2               	movwf	TMR1_enable@x_clk_src+1
  2728     0309                     l4040:
  2729                           
  2730                           ;../../Sources/16F887/timer.c: 145:     if(SYNC){
  2731     0309  083C               	movf	TMR1_enable@SYNC,w
  2732     030A  1903               	btfsc	3,2
  2733     030B  2B0D               	goto	u3911
  2734     030C  2B0E               	goto	u3910
  2735     030D                     u3911:
  2736     030D  2B11               	goto	l4044
  2737     030E                     u3910:
  2738     030E                     l4042:
  2739                           
  2740                           ;../../Sources/16F887/timer.c: 146:         x_SYNC = 0;
  2741     030E  01C3               	clrf	TMR1_enable@x_SYNC
  2742     030F  01C4               	clrf	TMR1_enable@x_SYNC+1
  2743                           
  2744                           ;../../Sources/16F887/timer.c: 147:     }else{
  2745     0310  2B15               	goto	l4046
  2746     0311                     l4044:
  2747                           
  2748                           ;../../Sources/16F887/timer.c: 148:         x_SYNC = 1;
  2749     0311  3001               	movlw	1
  2750     0312  00C3               	movwf	TMR1_enable@x_SYNC
  2751     0313  3000               	movlw	0
  2752     0314  00C4               	movwf	TMR1_enable@x_SYNC+1
  2753     0315                     l4046:
  2754                           
  2755                           ;../../Sources/16F887/timer.c: 151:     if(LPSOC){
  2756     0315  083D               	movf	TMR1_enable@LPSOC,w
  2757     0316  1903               	btfsc	3,2
  2758     0317  2B19               	goto	u3921
  2759     0318  2B1A               	goto	u3920
  2760     0319                     u3921:
  2761     0319  2B1F               	goto	l4050
  2762     031A                     u3920:
  2763     031A                     l4048:
  2764                           
  2765                           ;../../Sources/16F887/timer.c: 152:         x_LPSOC = 1;
  2766     031A  3001               	movlw	1
  2767     031B  00C5               	movwf	TMR1_enable@x_LPSOC
  2768     031C  3000               	movlw	0
  2769     031D  00C6               	movwf	TMR1_enable@x_LPSOC+1
  2770                           
  2771                           ;../../Sources/16F887/timer.c: 153:     }else{
  2772     031E  2B21               	goto	l4052
  2773     031F                     l4050:
  2774                           
  2775                           ;../../Sources/16F887/timer.c: 154:         x_LPSOC = 0;
  2776     031F  01C5               	clrf	TMR1_enable@x_LPSOC
  2777     0320  01C6               	clrf	TMR1_enable@x_LPSOC+1
  2778     0321                     l4052:
  2779                           
  2780                           ;../../Sources/16F887/timer.c: 157:     var_Settings = x_LPSOC;
  2781     0321  0845               	movf	TMR1_enable@x_LPSOC,w
  2782     0322  00CA               	movwf	TMR1_enable@var_Settings
  2783     0323                     l4054:
  2784                           
  2785                           ;../../Sources/16F887/timer.c: 158:     var_Settings = (var_Settings << 1) | x_SYNC ;
  2786     0323  084A               	movf	TMR1_enable@var_Settings,w
  2787     0324  00C0               	movwf	??_TMR1_enable
  2788     0325  0740               	addwf	??_TMR1_enable,w
  2789     0326  0443               	iorwf	TMR1_enable@x_SYNC,w
  2790     0327  00CA               	movwf	TMR1_enable@var_Settings
  2791     0328                     l4056:
  2792                           
  2793                           ;../../Sources/16F887/timer.c: 159:     var_Settings = (var_Settings << 1) | x_clk_src;
  2794     0328  084A               	movf	TMR1_enable@var_Settings,w
  2795     0329  00C0               	movwf	??_TMR1_enable
  2796     032A  0740               	addwf	??_TMR1_enable,w
  2797     032B  0441               	iorwf	TMR1_enable@x_clk_src,w
  2798     032C  00CA               	movwf	TMR1_enable@var_Settings
  2799     032D                     l4058:
  2800                           
  2801                           ;../../Sources/16F887/timer.c: 160:     var_Settings = (var_Settings << 1) | 0x1;
  2802     032D  1403               	setc
  2803     032E  0DCA               	rlf	TMR1_enable@var_Settings,f
  2804                           
  2805                           ;../../Sources/16F887/timer.c: 162:     switch(Prescaler){
  2806     032F  2B3C               	goto	l4072
  2807     0330                     l4060:
  2808                           
  2809                           ;../../Sources/16F887/timer.c: 164:             var_Prescaler = 0x8;
  2810     0330  3008               	movlw	8
  2811     0331  00C7               	movwf	TMR1_enable@var_Prescaler
  2812                           
  2813                           ;../../Sources/16F887/timer.c: 165:             break;
  2814     0332  2B4F               	goto	l4074
  2815     0333                     l4062:
  2816                           
  2817                           ;../../Sources/16F887/timer.c: 167:             var_Prescaler = 0x9;
  2818     0333  3009               	movlw	9
  2819     0334  00C7               	movwf	TMR1_enable@var_Prescaler
  2820                           
  2821                           ;../../Sources/16F887/timer.c: 168:             break;
  2822     0335  2B4F               	goto	l4074
  2823     0336                     l4064:
  2824                           
  2825                           ;../../Sources/16F887/timer.c: 170:             var_Prescaler = 0xA;
  2826     0336  300A               	movlw	10
  2827     0337  00C7               	movwf	TMR1_enable@var_Prescaler
  2828                           
  2829                           ;../../Sources/16F887/timer.c: 171:             break;
  2830     0338  2B4F               	goto	l4074
  2831     0339                     l4066:
  2832                           
  2833                           ;../../Sources/16F887/timer.c: 173:             var_Prescaler = 0xB;
  2834     0339  300B               	movlw	11
  2835     033A  00C7               	movwf	TMR1_enable@var_Prescaler
  2836                           
  2837                           ;../../Sources/16F887/timer.c: 174:             break;
  2838     033B  2B4F               	goto	l4074
  2839     033C                     l4072:
  2840                           
  2841                           ; Switch on 2 bytes has been partitioned into a top level switch of size 1, and 1 sub-sw
      +                          itches
  2842                           ; Switch size 1, requested type "simple"
  2843                           ; Number of cases is 1, Range of values is 0 to 0
  2844                           ; switch strategies available:
  2845                           ; Name         Instructions Cycles
  2846                           ; simple_byte            4     3 (average)
  2847                           ; direct_byte           11     8 (fixed)
  2848                           ; jumptable            260     6 (fixed)
  2849                           ;	Chosen strategy is simple_byte
  2850     033C  083F               	movf	TMR1_enable@Prescaler+1,w
  2851     033D  3A00               	xorlw	0	; case 0
  2852     033E  1903               	skipnz
  2853     033F  2B41               	goto	l4878
  2854     0340  2B30               	goto	l4060
  2855     0341                     l4878:
  2856                           
  2857                           ; Switch size 1, requested type "simple"
  2858                           ; Number of cases is 4, Range of values is 1 to 8
  2859                           ; switch strategies available:
  2860                           ; Name         Instructions Cycles
  2861                           ; simple_byte           13     7 (average)
  2862                           ; direct_byte           35    11 (fixed)
  2863                           ; jumptable            263     9 (fixed)
  2864                           ;	Chosen strategy is simple_byte
  2865     0341  083E               	movf	TMR1_enable@Prescaler,w
  2866     0342  3A01               	xorlw	1	; case 1
  2867     0343  1903               	skipnz
  2868     0344  2B30               	goto	l4060
  2869     0345  3A03               	xorlw	3	; case 2
  2870     0346  1903               	skipnz
  2871     0347  2B33               	goto	l4062
  2872     0348  3A06               	xorlw	6	; case 4
  2873     0349  1903               	skipnz
  2874     034A  2B36               	goto	l4064
  2875     034B  3A0C               	xorlw	12	; case 8
  2876     034C  1903               	skipnz
  2877     034D  2B39               	goto	l4066
  2878     034E  2B30               	goto	l4060
  2879     034F                     l4074:
  2880                           
  2881                           ;../../Sources/16F887/timer.c: 180:     var_T1CON = var_Prescaler;
  2882     034F  0847               	movf	TMR1_enable@var_Prescaler,w
  2883     0350  00C9               	movwf	TMR1_enable@var_T1CON
  2884     0351                     l4076:
  2885                           
  2886                           ;../../Sources/16F887/timer.c: 181:     var_T1CON = (var_T1CON << 4) | var_Settings;
  2887     0351  0849               	movf	TMR1_enable@var_T1CON,w
  2888     0352  00C0               	movwf	??_TMR1_enable
  2889     0353  3003               	movlw	3
  2890     0354                     u3935:
  2891     0354  1003               	clrc
  2892     0355  0DC0               	rlf	??_TMR1_enable,f
  2893     0356  3EFF               	addlw	-1
  2894     0357  1D03               	skipz
  2895     0358  2B54               	goto	u3935
  2896     0359  1003               	clrc
  2897     035A  0D40               	rlf	??_TMR1_enable,w
  2898     035B  044A               	iorwf	TMR1_enable@var_Settings,w
  2899     035C  00C9               	movwf	TMR1_enable@var_T1CON
  2900     035D                     l4078:
  2901                           
  2902                           ;../../Sources/16F887/timer.c: 183:     INTCON = 0xC0;
  2903     035D  30C0               	movlw	192
  2904     035E  008B               	movwf	11	;volatile
  2905     035F                     l4080:
  2906                           
  2907                           ;../../Sources/16F887/timer.c: 184:     PIE1bits.TMR1IE = 1;
  2908     035F  1683               	bsf	3,5	;RP0=1, select bank1
  2909     0360  1303               	bcf	3,6	;RP1=0, select bank1
  2910     0361  140C               	bsf	12,0	;volatile
  2911     0362                     l4082:
  2912                           
  2913                           ;../../Sources/16F887/timer.c: 185:     T1CON = var_T1CON;
  2914     0362  1283               	bcf	3,5	;RP0=0, select bank0
  2915     0363  1303               	bcf	3,6	;RP1=0, select bank0
  2916     0364  0849               	movf	TMR1_enable@var_T1CON,w
  2917     0365  0090               	movwf	16	;volatile
  2918     0366                     l1048:
  2919     0366  0008               	return
  2920     0367                     __end_of_TMR1_enable:
  2921                           
  2922                           	psect	text5
  2923     03AA                     __ptext5:	
  2924 ;; *************** function _strcmp *****************
  2925 ;; Defined at:
  2926 ;;		line 33 in file "A:\Program_Files\Microchip\xc8\v2.40\pic\sources\c90\common\strcmp.c"
  2927 ;; Parameters:    Size  Location     Type
  2928 ;;  s1              1    wreg     PTR const unsigned char 
  2929 ;;		 -> STR_1(6), 
  2930 ;;  s2              1    0[BANK0 ] PTR const unsigned char 
  2931 ;;		 -> STR_14(6), STR_12(6), STR_10(4), STR_8(5), 
  2932 ;;		 -> STR_6(6), STR_4(6), 
  2933 ;; Auto vars:     Size  Location     Type
  2934 ;;  s1              1    5[BANK0 ] PTR const unsigned char 
  2935 ;;		 -> STR_1(6), 
  2936 ;;  r               1    4[BANK0 ] char 
  2937 ;; Return value:  Size  Location     Type
  2938 ;;                  2    0[BANK0 ] int 
  2939 ;; Registers used:
  2940 ;;		wreg, fsr0l, fsr0h, status,2, status,0, pclath
  2941 ;; Tracked objects:
  2942 ;;		On entry : 0/0
  2943 ;;		On exit  : 0/0
  2944 ;;		Unchanged: 0/0
  2945 ;; Data sizes:     COMMON   BANK0   BANK1   BANK3   BANK2
  2946 ;;      Params:         0       2       0       0       0
  2947 ;;      Locals:         0       2       0       0       0
  2948 ;;      Temps:          0       2       0       0       0
  2949 ;;      Totals:         0       6       0       0       0
  2950 ;;Total ram usage:        6 bytes
  2951 ;; Hardware stack levels used: 1
  2952 ;; Hardware stack levels required when called: 2
  2953 ;; This function calls:
  2954 ;;		Nothing
  2955 ;; This function is called by:
  2956 ;;		_TMR1_enable
  2957 ;;		_TMR0_enable
  2958 ;; This function uses a non-reentrant model
  2959 ;;
  2960                           
  2961     03AA                     _strcmp:	
  2962                           ;psect for function _strcmp
  2963                           
  2964                           
  2965                           ;incstack = 0
  2966                           ; Regs used in _strcmp: [wreg-fsr0h+status,2+status,0+pclath]
  2967                           ;strcmp@s1 stored from wreg
  2968     03AA  1283               	bcf	3,5	;RP0=0, select bank0
  2969     03AB  1303               	bcf	3,6	;RP1=0, select bank0
  2970     03AC  00BB               	movwf	strcmp@s1
  2971     03AD                     l3926:
  2972     03AD  2BB6               	goto	l3932
  2973     03AE                     l3928:
  2974     03AE  3001               	movlw	1
  2975     03AF  00B8               	movwf	??_strcmp
  2976     03B0  0838               	movf	??_strcmp,w
  2977     03B1  07BB               	addwf	strcmp@s1,f
  2978     03B2                     l3930:
  2979     03B2  3001               	movlw	1
  2980     03B3  00B8               	movwf	??_strcmp
  2981     03B4  0838               	movf	??_strcmp,w
  2982     03B5  07B6               	addwf	strcmp@s2,f
  2983     03B6                     l3932:
  2984     03B6  0836               	movf	strcmp@s2,w
  2985     03B7  0084               	movwf	4
  2986     03B8  120A  118A  2367  120A  118A  	fcall	stringdir
  2987     03BD  00B8               	movwf	??_strcmp
  2988     03BE  083B               	movf	strcmp@s1,w
  2989     03BF  0084               	movwf	4
  2990     03C0  120A  118A  2367  120A  118A  	fcall	stringdir
  2991     03C5  00B9               	movwf	??_strcmp+1
  2992     03C6  0838               	movf	??_strcmp,w
  2993     03C7  0239               	subwf	??_strcmp+1,w
  2994     03C8  00BA               	movwf	strcmp@r
  2995     03C9  083A               	movf	strcmp@r,w
  2996     03CA  1D03               	btfss	3,2
  2997     03CB  2BCD               	goto	u3551
  2998     03CC  2BCE               	goto	u3550
  2999     03CD                     u3551:
  3000     03CD  2BDA               	goto	l3936
  3001     03CE                     u3550:
  3002     03CE                     l3934:
  3003     03CE  083B               	movf	strcmp@s1,w
  3004     03CF  0084               	movwf	4
  3005     03D0  120A  118A  2367  120A  118A  	fcall	stringdir
  3006     03D5  3A00               	xorlw	0
  3007     03D6  1D03               	skipz
  3008     03D7  2BD9               	goto	u3561
  3009     03D8  2BDA               	goto	u3560
  3010     03D9                     u3561:
  3011     03D9  2BAE               	goto	l3928
  3012     03DA                     u3560:
  3013     03DA                     l3936:
  3014     03DA  083A               	movf	strcmp@r,w
  3015     03DB  00B6               	movwf	?_strcmp
  3016     03DC  01B7               	clrf	?_strcmp+1
  3017     03DD  1BB6               	btfsc	?_strcmp,7
  3018     03DE  03B7               	decf	?_strcmp+1,f
  3019     03DF                     l1706:
  3020     03DF  0008               	return
  3021     03E0                     __end_of_strcmp:
  3022                           
  3023                           	psect	text6
  3024     0462                     __ptext6:	
  3025 ;; *************** function _ExternalClock_Init *****************
  3026 ;; Defined at:
  3027 ;;		line 85 in file "../../Sources/16F887/oscillator.c"
  3028 ;; Parameters:    Size  Location     Type
  3029 ;;		None
  3030 ;; Auto vars:     Size  Location     Type
  3031 ;;		None
  3032 ;; Return value:  Size  Location     Type
  3033 ;;                  1    wreg      void 
  3034 ;; Registers used:
  3035 ;;		wreg
  3036 ;; Tracked objects:
  3037 ;;		On entry : 0/0
  3038 ;;		On exit  : 0/0
  3039 ;;		Unchanged: 0/0
  3040 ;; Data sizes:     COMMON   BANK0   BANK1   BANK3   BANK2
  3041 ;;      Params:         0       0       0       0       0
  3042 ;;      Locals:         0       0       0       0       0
  3043 ;;      Temps:          0       0       0       0       0
  3044 ;;      Totals:         0       0       0       0       0
  3045 ;;Total ram usage:        0 bytes
  3046 ;; Hardware stack levels used: 1
  3047 ;; Hardware stack levels required when called: 2
  3048 ;; This function calls:
  3049 ;;		Nothing
  3050 ;; This function is called by:
  3051 ;;		_main
  3052 ;; This function uses a non-reentrant model
  3053 ;;
  3054                           
  3055     0462                     _ExternalClock_Init:	
  3056                           ;psect for function _ExternalClock_Init
  3057                           
  3058     0462                     l4088:	
  3059                           ;incstack = 0
  3060                           ; Regs used in _ExternalClock_Init: [wreg]
  3061                           
  3062                           
  3063                           ;../../Sources/16F887/oscillator.c: 86:     OSCCON = 0x7E;
  3064     0462  307E               	movlw	126
  3065     0463  1683               	bsf	3,5	;RP0=1, select bank1
  3066     0464  1303               	bcf	3,6	;RP1=0, select bank1
  3067     0465  008F               	movwf	15	;volatile
  3068     0466                     l922:
  3069     0466  0008               	return
  3070     0467                     __end_of_ExternalClock_Init:
  3071                           
  3072                           	psect	text7
  3073     0415                     __ptext7:	
  3074 ;; *************** function _test *****************
  3075 ;; Defined at:
  3076 ;;		line 19 in file "main.c"
  3077 ;; Parameters:    Size  Location     Type
  3078 ;;		None
  3079 ;; Auto vars:     Size  Location     Type
  3080 ;;		None
  3081 ;; Return value:  Size  Location     Type
  3082 ;;                  1    wreg      void 
  3083 ;; Registers used:
  3084 ;;		wreg, fsr0l, fsr0h, status,2, status,0, pclath, cstack
  3085 ;; Tracked objects:
  3086 ;;		On entry : 0/0
  3087 ;;		On exit  : 0/0
  3088 ;;		Unchanged: 0/0
  3089 ;; Data sizes:     COMMON   BANK0   BANK1   BANK3   BANK2
  3090 ;;      Params:         0       0       0       0       0
  3091 ;;      Locals:         0       0       0       0       0
  3092 ;;      Temps:          3       0       0       0       0
  3093 ;;      Totals:         3       0       0       0       0
  3094 ;;Total ram usage:        3 bytes
  3095 ;; Hardware stack levels used: 1
  3096 ;; Hardware stack levels required when called: 1
  3097 ;; This function calls:
  3098 ;;		_TMR1_interrupt
  3099 ;;		i1_TMR1_set_timer
  3100 ;;		i1_write_Digital
  3101 ;; This function is called by:
  3102 ;;		Interrupt level 1
  3103 ;; This function uses a non-reentrant model
  3104 ;;
  3105                           
  3106     0415                     _test:	
  3107                           ;psect for function _test
  3108                           
  3109     0415                     i1l4428:
  3110                           
  3111                           ;main.c: 20:     while(TMR1_interrupt()){
  3112     0415  2C26               	goto	i1l4434
  3113     0416                     i1l4430:
  3114                           
  3115                           ;main.c: 21:         write_Digital(RD_1,0x00);
  3116     0416  01F0               	clrf	i1write_Digital@value
  3117     0417  3019               	movlw	25
  3118     0418  120A  118A  2123  120A  118A  	fcall	i1_write_Digital
  3119     041D                     i1l4432:
  3120                           
  3121                           ;main.c: 22:         TMR1_set_timer(65534);
  3122     041D  30FE               	movlw	254
  3123     041E  00F0               	movwf	i1TMR1_set_timer@time
  3124     041F  30FF               	movlw	255
  3125     0420  00F1               	movwf	i1TMR1_set_timer@time+1
  3126     0421  120A  118A  2444  120A  118A  	fcall	i1_TMR1_set_timer
  3127     0426                     i1l4434:
  3128                           
  3129                           ;main.c: 20:     while(TMR1_interrupt()){
  3130     0426  120A  118A  244F  120A  118A  	fcall	_TMR1_interrupt
  3131     042B  3A00               	xorlw	0
  3132     042C  1D03               	skipz
  3133     042D  2C2F               	goto	u444_21
  3134     042E  2C30               	goto	u444_20
  3135     042F                     u444_21:
  3136     042F  2C16               	goto	i1l4430
  3137     0430                     u444_20:
  3138     0430                     i1l20:
  3139     0430  0877               	movf	??_test+2,w
  3140     0431  008A               	movwf	10
  3141     0432  0876               	movf	??_test+1,w
  3142     0433  0084               	movwf	4
  3143     0434  0E75               	swapf	??_test,w
  3144     0435  0083               	movwf	3
  3145     0436  0EFE               	swapf	btemp,f
  3146     0437  0E7E               	swapf	btemp,w
  3147     0438  0009               	retfie
  3148     0439                     __end_of_test:
  3149                           
  3150                           	psect	intentry
  3151     0004                     __pintentry:	
  3152                           ;incstack = 0
  3153                           ; Regs used in _test: [wreg-fsr0h+status,2+status,0+pclath+cstack]
  3154                           
  3155     0004                     interrupt_function:
  3156     007E                     saved_w	set	btemp
  3157     0004  00FE               	movwf	btemp
  3158     0005  0E03               	swapf	3,w
  3159     0006  00F5               	movwf	??_test
  3160     0007  0804               	movf	4,w
  3161     0008  00F6               	movwf	??_test+1
  3162     0009  080A               	movf	10,w
  3163     000A  00F7               	movwf	??_test+2
  3164     000B  120A  118A  2C15   	ljmp	_test
  3165                           
  3166                           	psect	text8
  3167     0123                     __ptext8:	
  3168 ;; *************** function i1_write_Digital *****************
  3169 ;; Defined at:
  3170 ;;		line 168 in file "../../Sources/16F887/io.c"
  3171 ;; Parameters:    Size  Location     Type
  3172 ;;  var_pin         1    wreg     enum E1456
  3173 ;;  value           1    0[COMMON] unsigned char 
  3174 ;; Auto vars:     Size  Location     Type
  3175 ;;  var_pin         1    4[COMMON] enum E1456
  3176 ;;  var_PortNumb    1    3[COMMON] unsigned char 
  3177 ;; Return value:  Size  Location     Type
  3178 ;;                  1    wreg      void 
  3179 ;; Registers used:
  3180 ;;		wreg, fsr0l, fsr0h, status,2, status,0
  3181 ;; Tracked objects:
  3182 ;;		On entry : 0/0
  3183 ;;		On exit  : 0/0
  3184 ;;		Unchanged: 0/0
  3185 ;; Data sizes:     COMMON   BANK0   BANK1   BANK3   BANK2
  3186 ;;      Params:         1       0       0       0       0
  3187 ;;      Locals:         2       0       0       0       0
  3188 ;;      Temps:          2       0       0       0       0
  3189 ;;      Totals:         5       0       0       0       0
  3190 ;;Total ram usage:        5 bytes
  3191 ;; Hardware stack levels used: 1
  3192 ;; This function calls:
  3193 ;;		Nothing
  3194 ;; This function is called by:
  3195 ;;		_test
  3196 ;; This function uses a non-reentrant model
  3197 ;;
  3198                           
  3199     0123                     i1_write_Digital:	
  3200                           ;psect for function i1_write_Digital
  3201                           
  3202                           
  3203                           ;incstack = 0
  3204                           ; Regs used in i1_write_Digital: [wreg-fsr0h+status,2+status,0]
  3205                           ;i1write_Digital@var_pin stored from wreg
  3206     0123  00F4               	movwf	i1write_Digital@var_pin
  3207     0124                     i1l4378:
  3208                           
  3209                           ;../../Sources/16F887/io.c: 169: ;../../Sources/16F887/io.c: 170:     switch(var_PortNum
      +                          ){
  3210     0124  0874               	movf	i1write_Digital@var_pin,w
  3211     0125  00F1               	movwf	??i1_write_Digital
  3212     0126  3003               	movlw	3
  3213     0127                     u428_25:
  3214     0127  1003               	clrc
  3215     0128  0CF1               	rrf	??i1_write_Digital,f
  3216     0129  3EFF               	addlw	-1
  3217     012A  1D03               	skipz
  3218     012B  2927               	goto	u428_25
  3219     012C  0871               	movf	??i1_write_Digital,w
  3220     012D  00F3               	movwf	i1write_Digital@var_PortNumber
  3221     012E                     i1l4380:
  3222                           
  3223                           ;../../Sources/16F887/io.c: 171:         case 0:
  3224     012E  0874               	movf	i1write_Digital@var_pin,w
  3225     012F  3907               	andlw	7
  3226     0130  00F4               	movwf	i1write_Digital@var_pin
  3227                           
  3228                           ;../../Sources/16F887/io.c: 173:             break;
  3229     0131  29F0               	goto	i1l4414
  3230     0132                     i1l4382:
  3231                           
  3232                           ;../../Sources/16F887/io.c: 175:             returnStatus = (((PORTB)&((1<<(var_pin))))!
      +                          =0u);
  3233     0132  0870               	movf	i1write_Digital@value,w
  3234     0133  1903               	btfsc	3,2
  3235     0134  2936               	goto	u429_21
  3236     0135  2937               	goto	u429_20
  3237     0136                     u429_21:
  3238     0136  2947               	goto	i1l4386
  3239     0137                     u429_20:
  3240     0137                     i1l4384:
  3241     0137  3001               	movlw	1
  3242     0138  00F1               	movwf	??i1_write_Digital
  3243     0139  0A74               	incf	i1write_Digital@var_pin,w
  3244     013A  293D               	goto	u430_24
  3245     013B                     u430_25:
  3246     013B  1003               	clrc
  3247     013C  0DF1               	rlf	??i1_write_Digital,f
  3248     013D                     u430_24:
  3249     013D  3EFF               	addlw	-1
  3250     013E  1D03               	skipz
  3251     013F  293B               	goto	u430_25
  3252     0140  0871               	movf	??i1_write_Digital,w
  3253     0141  00F2               	movwf	??i1_write_Digital+1
  3254     0142  0872               	movf	??i1_write_Digital+1,w
  3255     0143  1283               	bcf	3,5	;RP0=0, select bank0
  3256     0144  1303               	bcf	3,6	;RP1=0, select bank0
  3257     0145  0485               	iorwf	5,f	;volatile
  3258     0146  2A09               	goto	i1l467
  3259     0147                     i1l4386:
  3260     0147  3001               	movlw	1
  3261     0148  00F1               	movwf	??i1_write_Digital
  3262     0149  0A74               	incf	i1write_Digital@var_pin,w
  3263     014A  294D               	goto	u431_24
  3264     014B                     u431_25:
  3265     014B  1003               	clrc
  3266     014C  0DF1               	rlf	??i1_write_Digital,f
  3267     014D                     u431_24:
  3268     014D  3EFF               	addlw	-1
  3269     014E  1D03               	skipz
  3270     014F  294B               	goto	u431_25
  3271     0150  0871               	movf	??i1_write_Digital,w
  3272     0151  3AFF               	xorlw	255
  3273     0152  00F2               	movwf	??i1_write_Digital+1
  3274     0153  0872               	movf	??i1_write_Digital+1,w
  3275     0154  1283               	bcf	3,5	;RP0=0, select bank0
  3276     0155  1303               	bcf	3,6	;RP1=0, select bank0
  3277     0156  0585               	andwf	5,f	;volatile
  3278     0157  2A09               	goto	i1l467
  3279     0158                     i1l4388:
  3280                           
  3281                           ;../../Sources/16F887/io.c: 178:             returnStatus = (((PORTC)&((1<<(var_pin))))!
      +                          =0u);
  3282     0158  0870               	movf	i1write_Digital@value,w
  3283     0159  1903               	btfsc	3,2
  3284     015A  295C               	goto	u432_21
  3285     015B  295D               	goto	u432_20
  3286     015C                     u432_21:
  3287     015C  296D               	goto	i1l4392
  3288     015D                     u432_20:
  3289     015D                     i1l4390:
  3290     015D  3001               	movlw	1
  3291     015E  00F1               	movwf	??i1_write_Digital
  3292     015F  0A74               	incf	i1write_Digital@var_pin,w
  3293     0160  2963               	goto	u433_24
  3294     0161                     u433_25:
  3295     0161  1003               	clrc
  3296     0162  0DF1               	rlf	??i1_write_Digital,f
  3297     0163                     u433_24:
  3298     0163  3EFF               	addlw	-1
  3299     0164  1D03               	skipz
  3300     0165  2961               	goto	u433_25
  3301     0166  0871               	movf	??i1_write_Digital,w
  3302     0167  00F2               	movwf	??i1_write_Digital+1
  3303     0168  0872               	movf	??i1_write_Digital+1,w
  3304     0169  1283               	bcf	3,5	;RP0=0, select bank0
  3305     016A  1303               	bcf	3,6	;RP1=0, select bank0
  3306     016B  0486               	iorwf	6,f	;volatile
  3307     016C  2A09               	goto	i1l467
  3308     016D                     i1l4392:
  3309     016D  3001               	movlw	1
  3310     016E  00F1               	movwf	??i1_write_Digital
  3311     016F  0A74               	incf	i1write_Digital@var_pin,w
  3312     0170  2973               	goto	u434_24
  3313     0171                     u434_25:
  3314     0171  1003               	clrc
  3315     0172  0DF1               	rlf	??i1_write_Digital,f
  3316     0173                     u434_24:
  3317     0173  3EFF               	addlw	-1
  3318     0174  1D03               	skipz
  3319     0175  2971               	goto	u434_25
  3320     0176  0871               	movf	??i1_write_Digital,w
  3321     0177  3AFF               	xorlw	255
  3322     0178  00F2               	movwf	??i1_write_Digital+1
  3323     0179  0872               	movf	??i1_write_Digital+1,w
  3324     017A  1283               	bcf	3,5	;RP0=0, select bank0
  3325     017B  1303               	bcf	3,6	;RP1=0, select bank0
  3326     017C  0586               	andwf	6,f	;volatile
  3327     017D  2A09               	goto	i1l467
  3328     017E                     i1l4394:
  3329                           
  3330                           ;../../Sources/16F887/io.c: 181:             returnStatus = (((PORTD)&((1<<(var_pin))))!
      +                          =0u);
  3331     017E  0870               	movf	i1write_Digital@value,w
  3332     017F  1903               	btfsc	3,2
  3333     0180  2982               	goto	u435_21
  3334     0181  2983               	goto	u435_20
  3335     0182                     u435_21:
  3336     0182  2993               	goto	i1l4398
  3337     0183                     u435_20:
  3338     0183                     i1l4396:
  3339     0183  3001               	movlw	1
  3340     0184  00F1               	movwf	??i1_write_Digital
  3341     0185  0A74               	incf	i1write_Digital@var_pin,w
  3342     0186  2989               	goto	u436_24
  3343     0187                     u436_25:
  3344     0187  1003               	clrc
  3345     0188  0DF1               	rlf	??i1_write_Digital,f
  3346     0189                     u436_24:
  3347     0189  3EFF               	addlw	-1
  3348     018A  1D03               	skipz
  3349     018B  2987               	goto	u436_25
  3350     018C  0871               	movf	??i1_write_Digital,w
  3351     018D  00F2               	movwf	??i1_write_Digital+1
  3352     018E  0872               	movf	??i1_write_Digital+1,w
  3353     018F  1283               	bcf	3,5	;RP0=0, select bank0
  3354     0190  1303               	bcf	3,6	;RP1=0, select bank0
  3355     0191  0487               	iorwf	7,f	;volatile
  3356     0192  2A09               	goto	i1l467
  3357     0193                     i1l4398:
  3358     0193  3001               	movlw	1
  3359     0194  00F1               	movwf	??i1_write_Digital
  3360     0195  0A74               	incf	i1write_Digital@var_pin,w
  3361     0196  2999               	goto	u437_24
  3362     0197                     u437_25:
  3363     0197  1003               	clrc
  3364     0198  0DF1               	rlf	??i1_write_Digital,f
  3365     0199                     u437_24:
  3366     0199  3EFF               	addlw	-1
  3367     019A  1D03               	skipz
  3368     019B  2997               	goto	u437_25
  3369     019C  0871               	movf	??i1_write_Digital,w
  3370     019D  3AFF               	xorlw	255
  3371     019E  00F2               	movwf	??i1_write_Digital+1
  3372     019F  0872               	movf	??i1_write_Digital+1,w
  3373     01A0  1283               	bcf	3,5	;RP0=0, select bank0
  3374     01A1  1303               	bcf	3,6	;RP1=0, select bank0
  3375     01A2  0587               	andwf	7,f	;volatile
  3376     01A3  2A09               	goto	i1l467
  3377     01A4                     i1l4400:
  3378                           
  3379                           ;../../Sources/16F887/io.c: 184:             returnStatus = (((PORTE)&((1<<(var_pin))))!
      +                          =0u);
  3380     01A4  0870               	movf	i1write_Digital@value,w
  3381     01A5  1903               	btfsc	3,2
  3382     01A6  29A8               	goto	u438_21
  3383     01A7  29A9               	goto	u438_20
  3384     01A8                     u438_21:
  3385     01A8  29B9               	goto	i1l4404
  3386     01A9                     u438_20:
  3387     01A9                     i1l4402:
  3388     01A9  3001               	movlw	1
  3389     01AA  00F1               	movwf	??i1_write_Digital
  3390     01AB  0A74               	incf	i1write_Digital@var_pin,w
  3391     01AC  29AF               	goto	u439_24
  3392     01AD                     u439_25:
  3393     01AD  1003               	clrc
  3394     01AE  0DF1               	rlf	??i1_write_Digital,f
  3395     01AF                     u439_24:
  3396     01AF  3EFF               	addlw	-1
  3397     01B0  1D03               	skipz
  3398     01B1  29AD               	goto	u439_25
  3399     01B2  0871               	movf	??i1_write_Digital,w
  3400     01B3  00F2               	movwf	??i1_write_Digital+1
  3401     01B4  0872               	movf	??i1_write_Digital+1,w
  3402     01B5  1283               	bcf	3,5	;RP0=0, select bank0
  3403     01B6  1303               	bcf	3,6	;RP1=0, select bank0
  3404     01B7  0488               	iorwf	8,f	;volatile
  3405     01B8  2A09               	goto	i1l467
  3406     01B9                     i1l4404:
  3407     01B9  3001               	movlw	1
  3408     01BA  00F1               	movwf	??i1_write_Digital
  3409     01BB  0A74               	incf	i1write_Digital@var_pin,w
  3410     01BC  29BF               	goto	u440_24
  3411     01BD                     u440_25:
  3412     01BD  1003               	clrc
  3413     01BE  0DF1               	rlf	??i1_write_Digital,f
  3414     01BF                     u440_24:
  3415     01BF  3EFF               	addlw	-1
  3416     01C0  1D03               	skipz
  3417     01C1  29BD               	goto	u440_25
  3418     01C2  0871               	movf	??i1_write_Digital,w
  3419     01C3  3AFF               	xorlw	255
  3420     01C4  00F2               	movwf	??i1_write_Digital+1
  3421     01C5  0872               	movf	??i1_write_Digital+1,w
  3422     01C6  1283               	bcf	3,5	;RP0=0, select bank0
  3423     01C7  1303               	bcf	3,6	;RP1=0, select bank0
  3424     01C8  0588               	andwf	8,f	;volatile
  3425     01C9  2A09               	goto	i1l467
  3426     01CA                     i1l4406:
  3427                           
  3428                           ;../../Sources/16F887/io.c: 187:     return returnStatus;
  3429     01CA  0870               	movf	i1write_Digital@value,w
  3430     01CB  1903               	btfsc	3,2
  3431     01CC  29CE               	goto	u441_21
  3432     01CD  29CF               	goto	u441_20
  3433     01CE                     u441_21:
  3434     01CE  29DF               	goto	i1l4410
  3435     01CF                     u441_20:
  3436     01CF                     i1l4408:
  3437     01CF  3001               	movlw	1
  3438     01D0  00F1               	movwf	??i1_write_Digital
  3439     01D1  0A74               	incf	i1write_Digital@var_pin,w
  3440     01D2  29D5               	goto	u442_24
  3441     01D3                     u442_25:
  3442     01D3  1003               	clrc
  3443     01D4  0DF1               	rlf	??i1_write_Digital,f
  3444     01D5                     u442_24:
  3445     01D5  3EFF               	addlw	-1
  3446     01D6  1D03               	skipz
  3447     01D7  29D3               	goto	u442_25
  3448     01D8  0871               	movf	??i1_write_Digital,w
  3449     01D9  00F2               	movwf	??i1_write_Digital+1
  3450     01DA  0872               	movf	??i1_write_Digital+1,w
  3451     01DB  1283               	bcf	3,5	;RP0=0, select bank0
  3452     01DC  1303               	bcf	3,6	;RP1=0, select bank0
  3453     01DD  0489               	iorwf	9,f	;volatile
  3454     01DE  2A09               	goto	i1l467
  3455     01DF                     i1l4410:
  3456     01DF  3001               	movlw	1
  3457     01E0  00F1               	movwf	??i1_write_Digital
  3458     01E1  0A74               	incf	i1write_Digital@var_pin,w
  3459     01E2  29E5               	goto	u443_24
  3460     01E3                     u443_25:
  3461     01E3  1003               	clrc
  3462     01E4  0DF1               	rlf	??i1_write_Digital,f
  3463     01E5                     u443_24:
  3464     01E5  3EFF               	addlw	-1
  3465     01E6  1D03               	skipz
  3466     01E7  29E3               	goto	u443_25
  3467     01E8  0871               	movf	??i1_write_Digital,w
  3468     01E9  3AFF               	xorlw	255
  3469     01EA  00F2               	movwf	??i1_write_Digital+1
  3470     01EB  0872               	movf	??i1_write_Digital+1,w
  3471     01EC  1283               	bcf	3,5	;RP0=0, select bank0
  3472     01ED  1303               	bcf	3,6	;RP1=0, select bank0
  3473     01EE  0589               	andwf	9,f	;volatile
  3474     01EF  2A09               	goto	i1l467
  3475     01F0                     i1l4414:
  3476     01F0  0873               	movf	i1write_Digital@var_PortNumber,w
  3477     01F1  00F1               	movwf	??i1_write_Digital
  3478     01F2  01F2               	clrf	??i1_write_Digital+1
  3479                           
  3480                           ; Switch on 2 bytes has been partitioned into a top level switch of size 1, and 1 sub-sw
      +                          itches
  3481                           ; Switch size 1, requested type "simple"
  3482                           ; Number of cases is 1, Range of values is 0 to 0
  3483                           ; switch strategies available:
  3484                           ; Name         Instructions Cycles
  3485                           ; simple_byte            4     3 (average)
  3486                           ; direct_byte           11     8 (fixed)
  3487                           ; jumptable            260     6 (fixed)
  3488                           ;	Chosen strategy is simple_byte
  3489     01F3  0872               	movf	??i1_write_Digital+1,w
  3490     01F4  3A00               	xorlw	0	; case 0
  3491     01F5  1903               	skipnz
  3492     01F6  29F8               	goto	i1l4880
  3493     01F7  2A09               	goto	i1l467
  3494     01F8                     i1l4880:
  3495                           
  3496                           ; Switch size 1, requested type "simple"
  3497                           ; Number of cases is 5, Range of values is 0 to 4
  3498                           ; switch strategies available:
  3499                           ; Name         Instructions Cycles
  3500                           ; simple_byte           16     9 (average)
  3501                           ; direct_byte           23     8 (fixed)
  3502                           ; jumptable            260     6 (fixed)
  3503                           ;	Chosen strategy is simple_byte
  3504     01F8  0871               	movf	??i1_write_Digital,w
  3505     01F9  3A00               	xorlw	0	; case 0
  3506     01FA  1903               	skipnz
  3507     01FB  2932               	goto	i1l4382
  3508     01FC  3A01               	xorlw	1	; case 1
  3509     01FD  1903               	skipnz
  3510     01FE  2958               	goto	i1l4388
  3511     01FF  3A03               	xorlw	3	; case 2
  3512     0200  1903               	skipnz
  3513     0201  297E               	goto	i1l4394
  3514     0202  3A01               	xorlw	1	; case 3
  3515     0203  1903               	skipnz
  3516     0204  29A4               	goto	i1l4400
  3517     0205  3A07               	xorlw	7	; case 4
  3518     0206  1903               	skipnz
  3519     0207  29CA               	goto	i1l4406
  3520     0208  2A09               	goto	i1l467
  3521     0209                     i1l467:
  3522     0209  0008               	return
  3523     020A                     __end_ofi1_write_Digital:
  3524                           
  3525                           	psect	text9
  3526     0444                     __ptext9:	
  3527 ;; *************** function i1_TMR1_set_timer *****************
  3528 ;; Defined at:
  3529 ;;		line 193 in file "../../Sources/16F887/timer.c"
  3530 ;; Parameters:    Size  Location     Type
  3531 ;;  time            2    0[COMMON] unsigned int 
  3532 ;; Auto vars:     Size  Location     Type
  3533 ;;  bytes           2    2[COMMON] unsigned char [2]
  3534 ;; Return value:  Size  Location     Type
  3535 ;;                  1    wreg      void 
  3536 ;; Registers used:
  3537 ;;		wreg, status,2
  3538 ;; Tracked objects:
  3539 ;;		On entry : 0/0
  3540 ;;		On exit  : 0/0
  3541 ;;		Unchanged: 0/0
  3542 ;; Data sizes:     COMMON   BANK0   BANK1   BANK3   BANK2
  3543 ;;      Params:         2       0       0       0       0
  3544 ;;      Locals:         2       0       0       0       0
  3545 ;;      Temps:          0       0       0       0       0
  3546 ;;      Totals:         4       0       0       0       0
  3547 ;;Total ram usage:        4 bytes
  3548 ;; Hardware stack levels used: 1
  3549 ;; This function calls:
  3550 ;;		Nothing
  3551 ;; This function is called by:
  3552 ;;		_test
  3553 ;; This function uses a non-reentrant model
  3554 ;;
  3555                           
  3556     0444                     i1_TMR1_set_timer:	
  3557                           ;psect for function i1_TMR1_set_timer
  3558                           
  3559     0444                     i1l4420:	
  3560                           ;incstack = 0
  3561                           ; Regs used in i1_TMR1_set_timer: [wreg+status,2]
  3562                           
  3563                           
  3564                           ;../../Sources/16F887/timer.c: 194:     uint8_t bytes[2];;../../Sources/16F887/timer.c: 
      +                          195:     bytes[0] = time >> 8;
  3565     0444  0871               	movf	i1TMR1_set_timer@time+1,w
  3566     0445  00F2               	movwf	i1TMR1_set_timer@bytes
  3567     0446                     i1l4422:
  3568                           
  3569                           ;../../Sources/16F887/timer.c: 196:     bytes[1] = time & 0x00FF;
  3570     0446  0870               	movf	i1TMR1_set_timer@time,w
  3571     0447  00F3               	movwf	i1TMR1_set_timer@bytes+1
  3572     0448                     i1l4424:
  3573                           
  3574                           ;../../Sources/16F887/timer.c: 198:     TMR1H = bytes[0];
  3575     0448  0872               	movf	i1TMR1_set_timer@bytes,w
  3576     0449  1283               	bcf	3,5	;RP0=0, select bank0
  3577     044A  1303               	bcf	3,6	;RP1=0, select bank0
  3578     044B  008F               	movwf	15	;volatile
  3579     044C                     i1l4426:
  3580                           
  3581                           ;../../Sources/16F887/timer.c: 199:     TMR1L = bytes[1];
  3582     044C  0873               	movf	i1TMR1_set_timer@bytes+1,w
  3583     044D  008E               	movwf	14	;volatile
  3584     044E                     i1l1051:
  3585     044E  0008               	return
  3586     044F                     __end_ofi1_TMR1_set_timer:
  3587                           
  3588                           	psect	text10
  3589     044F                     __ptext10:	
  3590 ;; *************** function _TMR1_interrupt *****************
  3591 ;; Defined at:
  3592 ;;		line 206 in file "../../Sources/16F887/timer.c"
  3593 ;; Parameters:    Size  Location     Type
  3594 ;;		None
  3595 ;; Auto vars:     Size  Location     Type
  3596 ;;		None
  3597 ;; Return value:  Size  Location     Type
  3598 ;;                  1    wreg      _Bool 
  3599 ;; Registers used:
  3600 ;;		wreg
  3601 ;; Tracked objects:
  3602 ;;		On entry : 0/0
  3603 ;;		On exit  : 0/0
  3604 ;;		Unchanged: 0/0
  3605 ;; Data sizes:     COMMON   BANK0   BANK1   BANK3   BANK2
  3606 ;;      Params:         0       0       0       0       0
  3607 ;;      Locals:         0       0       0       0       0
  3608 ;;      Temps:          0       0       0       0       0
  3609 ;;      Totals:         0       0       0       0       0
  3610 ;;Total ram usage:        0 bytes
  3611 ;; Hardware stack levels used: 1
  3612 ;; This function calls:
  3613 ;;		Nothing
  3614 ;; This function is called by:
  3615 ;;		_test
  3616 ;; This function uses a non-reentrant model
  3617 ;;
  3618                           
  3619     044F                     _TMR1_interrupt:	
  3620                           ;psect for function _TMR1_interrupt
  3621                           
  3622     044F                     i1l2116:	
  3623                           ;incstack = 0
  3624                           ; Regs used in _TMR1_interrupt: [wreg]
  3625                           
  3626                           
  3627                           ;../../Sources/16F887/timer.c: 207:     if(PIR1bits.TMR1IF == 1){
  3628     044F  1283               	bcf	3,5	;RP0=0, select bank0
  3629     0450  1303               	bcf	3,6	;RP1=0, select bank0
  3630     0451  1C0C               	btfss	12,0	;volatile
  3631     0452  2C54               	goto	u90_21
  3632     0453  2C55               	goto	u90_20
  3633     0454                     u90_21:
  3634     0454  2C58               	goto	i1l2124
  3635     0455                     u90_20:
  3636     0455                     i1l2118:
  3637                           
  3638                           ;../../Sources/16F887/timer.c: 208:         PIR1bits.TMR1IF = 0;
  3639     0455  100C               	bcf	12,0	;volatile
  3640     0456                     i1l2120:
  3641                           
  3642                           ;../../Sources/16F887/timer.c: 209:         return 1;
  3643     0456  3001               	movlw	1
  3644     0457  2C59               	goto	i1l1055
  3645     0458                     i1l2124:
  3646                           
  3647                           ;../../Sources/16F887/timer.c: 211:     return 0;
  3648     0458  3000               	movlw	0
  3649     0459                     i1l1055:
  3650     0459  0008               	return
  3651     045A                     __end_of_TMR1_interrupt:
  3652     007E                     btemp	set	126	;btemp
  3653     007E                     wtemp0	set	126
  3654                           
  3655                           	psect	config
  3656                           
  3657                           ;Config register CONFIG1 @ 0x2007
  3658                           ;	Oscillator Selection bits
  3659                           ;	FOSC = HS, HS oscillator: High-speed crystal/resonator on RA6/OSC2/CLKOUT and RA7/OSC1
      +                          /CLKIN
  3660                           ;	Watchdog Timer Enable bit
  3661                           ;	WDTE = ON, WDT enabled
  3662                           ;	Power-up Timer Enable bit
  3663                           ;	PWRTE = OFF, PWRT disabled
  3664                           ;	RE3/MCLR pin function select bit
  3665                           ;	MCLRE = ON, RE3/MCLR pin function is MCLR
  3666                           ;	Code Protection bit
  3667                           ;	CP = OFF, Program memory code protection is disabled
  3668                           ;	Data Code Protection bit
  3669                           ;	CPD = OFF, Data memory code protection is disabled
  3670                           ;	Brown Out Reset Selection bits
  3671                           ;	BOREN = ON, BOR enabled
  3672                           ;	Internal External Switchover bit
  3673                           ;	IESO = ON, Internal/External Switchover mode is enabled
  3674                           ;	Fail-Safe Clock Monitor Enabled bit
  3675                           ;	FCMEN = OFF, Fail-Safe Clock Monitor is disabled
  3676                           ;	Low Voltage Programming Enable bit
  3677                           ;	LVP = OFF, RB3 pin has digital I/O, HV on MCLR must be used for programming
  3678                           ;	In-Circuit Debugger Mode bit
  3679                           ;	DEBUG = 0x1, unprogrammed default
  3680     2007                     	org	8199
  3681     2007  27FA               	dw	10234
  3682                           
  3683                           ;Config register CONFIG2 @ 0x2008
  3684                           ;	Brown-out Reset Selection bit
  3685                           ;	BOR4V = BOR40V, Brown-out Reset set to 4.0V
  3686                           ;	Flash Program Memory Self Write Enable bits
  3687                           ;	WRT = OFF, Write protection off
  3688     2008                     	org	8200
  3689     2008  3FFF               	dw	16383

Data Sizes:
    Strings     61
    Constant    0
    Data        4
    BSS         26
    Persistent  0
    Stack       0

Auto Spaces:
    Space          Size  Autos    Used
    COMMON           14      8      12
    BANK0            80     21      47
    BANK1            80      0       0
    BANK3            96      0       0
    BANK2            96      0       0

Pointer List with Targets:

    strcmp@s2	PTR const unsigned char  size(1) Largest target is 6
		 -> STR_14(CODE[6]), STR_12(CODE[6]), STR_10(CODE[4]), STR_8(CODE[5]), 
		 -> STR_6(CODE[6]), STR_4(CODE[6]), 

    strcmp@s1	PTR const unsigned char  size(1) Largest target is 6
		 -> STR_1(CODE[6]), 

    TMR1_enable@clk_src	PTR unsigned char  size(1) Largest target is 6
		 -> STR_1(CODE[6]), 


Critical Paths under _main in COMMON

    None.

Critical Paths under _test in COMMON

    _test->i1_write_Digital

Critical Paths under _main in BANK0

    _main->_TMR1_enable
    _TMR1_enable->_strcmp

Critical Paths under _test in BANK0

    None.

Critical Paths under _main in BANK1

    None.

Critical Paths under _test in BANK1

    None.

Critical Paths under _main in BANK3

    None.

Critical Paths under _test in BANK3

    None.

Critical Paths under _main in BANK2

    None.

Critical Paths under _test in BANK2

    None.

Call Graph Tables:

 ---------------------------------------------------------------------------------
 (Depth) Function   	        Calls       Base Space   Used Autos Params    Refs
 ---------------------------------------------------------------------------------
 (0) _main                                                 0     0      0    5859
                 _ExternalClock_Init
                        _TMR1_enable
                     _TMR1_set_timer
                      _pin_Direction
                      _write_Digital
 ---------------------------------------------------------------------------------
 (1) _write_Digital                                        5     4      1    2348
                                              0 BANK0      5     4      1
 ---------------------------------------------------------------------------------
 (1) _pin_Direction                                        5     4      1    1918
                                              0 BANK0      5     4      1
 ---------------------------------------------------------------------------------
 (1) _TMR1_set_timer                                       4     2      2     240
                                              0 BANK0      4     2      2
 ---------------------------------------------------------------------------------
 (1) _TMR1_enable                                         15    11      4    1353
                                              6 BANK0     15    11      4
                             _strcmp
 ---------------------------------------------------------------------------------
 (2) _strcmp                                               6     4      2     745
                                              0 BANK0      6     4      2
 ---------------------------------------------------------------------------------
 (1) _ExternalClock_Init                                   0     0      0       0
 ---------------------------------------------------------------------------------
 Estimated maximum stack depth 2
 ---------------------------------------------------------------------------------
 (Depth) Function   	        Calls       Base Space   Used Autos Params    Refs
 ---------------------------------------------------------------------------------
 (3) _test                                                 3     3      0     564
                                              5 COMMON     3     3      0
                     _TMR1_interrupt
                   i1_TMR1_set_timer
                    i1_write_Digital
 ---------------------------------------------------------------------------------
 (4) i1_write_Digital                                      5     4      1     424
                                              0 COMMON     5     4      1
 ---------------------------------------------------------------------------------
 (4) i1_TMR1_set_timer                                     4     2      2     140
                                              0 COMMON     4     2      2
 ---------------------------------------------------------------------------------
 (4) _TMR1_interrupt                                       0     0      0       0
 ---------------------------------------------------------------------------------
 Estimated maximum stack depth 4
 ---------------------------------------------------------------------------------

 Call Graph Graphs:

 _main (ROOT)
   _ExternalClock_Init
   _TMR1_enable
     _strcmp
   _TMR1_set_timer
   _pin_Direction
   _write_Digital

 _test (ROOT)
   _TMR1_interrupt
   i1_TMR1_set_timer
   i1_write_Digital

 Address spaces:
Name               Size   Autos  Total    Cost      Usage
BANK3               60      0       0       9        0.0%
BITBANK3            60      0       0       8        0.0%
SFR3                 0      0       0       4        0.0%
BITSFR3              0      0       0       4        0.0%
BANK2               60      0       0      11        0.0%
BITBANK2            60      0       0      10        0.0%
SFR2                 0      0       0       5        0.0%
BITSFR2              0      0       0       5        0.0%
BANK1               50      0       0       7        0.0%
BITBANK1            50      0       0       6        0.0%
SFR1                 0      0       0       2        0.0%
BITSFR1              0      0       0       2        0.0%
BANK0               50     15      2F       5       58.8%
BITBANK0            50      0       0       4        0.0%
SFR0                 0      0       0       1        0.0%
BITSFR0              0      0       0       1        0.0%
COMMON               E      8       C       1       85.7%
BITCOMMON            E      0       0       0        0.0%
CODE                 0      0       0       0        0.0%
DATA                 0      0      3B      12        0.0%
ABS                  0      0      3B       3        0.0%
NULL                 0      0       0       0        0.0%
STACK                0      0       0       2        0.0%
EEDATA             100      0       0       0        0.0%


Microchip Technology PIC Macro Assembler V2.40 build 20220703182018 
Symbol Table                                                                                   Wed Nov 23 19:25:19 2022

                            pc 0002                             _BF 04A0                             l25 0411  
                           l26 0411                             _GO 00F9                             _RD 0C60  
        i1TMR1_set_timer@bytes 0072                             _WR 0C61        _Array_LCDLineNumAddress 004B  
                           fsr 0004               ??_TMR1_interrupt 0070                            l390 0122  
                          l467 02DE                            l922 0466                            _GIE 005F  
                          _PR2 0092                            _PEN 048A                            _SEN 0488  
                          _R_W 04A2                            fsr0 0004                            indf 0000  
             ??_TMR1_set_timer 0038                           l1051 0443                           _C1IF 006D  
                         l1048 0366                           _C2IF 006E                           l4000 0071  
                         l4010 00AC                           l4002 0076                           l4020 00E8  
                         l4012 00BD                           l4004 0086                           l4022 00F8  
                         l4014 00C2                           l4006 0097                           l4040 0309  
                         l4032 02E2                           l4016 00D2                           l4008 009C  
                         l1706 03DF                           l4050 031F                           l4042 030E  
                         l4034 02F2                           l4018 00E3                           l4026 0109  
                         l4060 0330                           l4052 0321                           l4044 0311  
                         l4036 02F5                           l4062 0333                           l4054 0323  
                         l4046 0315                           l4038 0305                           l4080 035F  
                         l4064 0336                           l4072 033C                           l4056 0328  
                         l4048 031A                           l4082 0362                           l4066 0339  
                         l4074 034F                           l4058 032D                           l4076 0351  
                         l4078 035D                           l4088 0462                           l4440 0402  
                         l4436 03E0                           l4438 03F7                           l3930 03B2  
                         l3932 03B6                           l3940 020D                           l3934 03CE  
                         l3926 03AD                           l3950 023D                           l3942 0217  
                         l3936 03DA                           l3928 03AE                           l3960 0272  
                         l3952 0242                           l3944 021B                           l3970 02A8  
                         l3962 0281                           l3954 0250                           l3946 0220  
                         l3972 02B6                           l3964 0286                           l3956 025F  
                         l3948 022E                           l3982 0439                           l3990 003D  
                         l3966 0294                           l3958 0264                           l3984 043D  
                         l3992 0047                           l3968 02A3                           l3976 02C5  
                         _ADIF 0066                           l3986 043F                           l3994 004B  
                         l4874 02CD                           l3988 0441                           l4876 0111  
                         l3996 0050                           l4878 0341                           l3998 0060  
                         _ADON 00F8                           _EEIF 006C                           STR_1 039B  
                         STR_2 036D                           STR_5 038F                           STR_7 03A1  
                         STR_9 03A6                           _T0IF 005A                           _IOCB 0096  
                         _PIE1 008C                           _PIE2 008D                           u3610 0242  
                         u3611 0241                           u3700 02A8                           u3604 0234  
                         u3701 02A7                           u3605 0232                           u3550 03CE  
                         u3551 03CD                           u3560 03DA                           u3800 009C  
                         u3640 0264                           u3624 0248                           u3561 03D9  
                         u3801 009B                           u3641 0263                           u3625 0246  
                         u3714 02AE                           u3634 0256                           u3715 02AC  
                         u3635 0254                           i1l20 0430                           u3900 0305  
                         u3740 0050                           u3724 02BC                           u3580 0220  
                         u3901 0304                           u3741 004F                           u3725 02BA  
                         u3581 021F                           u3910 030E                           u3830 00C2  
                         u3814 00A2                           u3670 0286                           u3654 026A  
                         _INTF 0059                           u3911 030D                           u3831 00C1  
                         u3815 00A0                           u3735 0040                           u3671 0285  
                         u3655 0268                           u3575 0210                           u3920 031A  
                         u3824 00B2                           u3664 0278                           _RBIF 0058  
                         u3921 0319                           u3825 00B0                           u3665 0276  
                         u3770 0076                           u3754 0056                           u3594 0226  
                         u3771 0075                           u3755 0054                           u3595 0224  
                         u3860 00E8                           u3844 00C8                           u3764 0066  
                         u3684 028C                           _RCEN 048B                           _RCIF 0065  
                         u3861 00E7                           u3845 00C6                           u3765 0064  
                         u3685 028A                           u3854 00D8                           u3694 029A  
                         u3935 0354                           u3855 00D6                           u3695 0298  
                         u3784 007C                           _PCON 008E                           u3785 007A  
                         _PIR1 000C                           u3890 02F2                           u3874 00EE  
                         u3794 008C                           _PIR2 000D                           u3891 02F1  
                         u3875 00EC                           u3795 008A                           u3884 00FE  
                         u3885 00FC                           _RSEN 0489                           _WREN 0C62  
                         _TXIF 0064                           _WPUB 0095                           _main 03E0  
                         _test 0415                           btemp 007E                           start 000E  
                        ?_main 0070                          _ACKEN 048C                          _ACKDT 048D  
                        _BCLIF 006B                          _EEADR 010D                          _EEDAT 010C  
                        STR_12 039B                          STR_13 0395                          STR_14 0395  
                        ?_test 0070                _LastSensorFount 0078                          _T1CON 0010  
                        _T2CON 0012                          i1l467 0209                          _RCREG 001A  
                        _RCSTA 0018                          _OSFIF 006F                          _TMR1H 000F  
                        _TMR1L 000E                          _SPBRG 0099                          _PORTA 0005  
                        _PORTB 0006                          _PORTC 0007                          _PORTD 0008  
                        _PORTE 0009                          _TRISA 0085                          _TRISB 0086  
                        _TRISC 0087                          _TRISD 0088                          _TRISE 0089  
                        u90_20 0455                          _SSPIF 0063                          u90_21 0454  
                        _VRCON 0097                          _TXREG 0019                          _TXSTA 0098  
  pin_Direction@var_PortNumber 0039                          pclath 000A                          status 0003  
                        wtemp0 007E                __initialization 0011                   __end_of_main 0415  
                 __end_of_test 0439                         ??_main 004B                         ??_test 0075  
                       _ADCON0 001F                         _ADCON1 009F                         _CCP1IF 0062  
                       _CCP2IF 0068                         _ADRESH 001E                         _EEADRH 010F  
                       _ADRESL 009E                         _EEDATA 010C                         _ECCPAS 009C  
                       _EEDATH 010E                         _CCPR1L 0015                         _CCPR2L 001B  
                       _EECON2 018D                         i1l1051 044E                         i1l1055 0459  
                       i1l2120 0456                         i1l2124 0458                         i1l2116 044F  
                       i1l2118 0455                         i1l4400 01A4                         i1l4410 01DF  
                       i1l4402 01A9                         i1l4420 0444                         i1l4404 01B9  
                       i1l4422 0446                         i1l4406 01CA                         i1l4414 01F0  
                       i1l4430 0416                         i1l4424 0448                         i1l4408 01CF  
                       i1l4432 041D                         i1l4426 044C                         i1l4434 0426  
                       i1l4380 012E                         i1l4428 0415                         i1l4390 015D  
                       i1l4382 0132                         i1l4392 016D                         i1l4384 0137  
                       i1l4394 017E                         i1l4386 0147                         i1l4378 0124  
                       i1l4396 0183                         i1l4388 0158                         i1l4398 0193  
                       i1l4880 01F8                         _INTCON 000B                         u430_24 013D  
                       u430_25 013B                         u431_24 014D                         u431_25 014B  
                       u432_20 015D                         u432_21 015C                         u440_24 01BF  
                       u440_25 01BD                         u441_20 01CF                         u441_21 01CE  
                       u433_24 0163                         u433_25 0161                         u442_24 01D5  
                       u434_24 0173                         u442_25 01D3                         u434_25 0171  
                       u435_20 0183                         u435_21 0182                         u443_24 01E5  
                       u443_25 01E3                         u444_20 0430                         u444_21 042F  
                       u436_24 0189                         u436_25 0187                         u428_25 0127  
                       u429_20 0137                         u429_21 0136                         u437_24 0199  
                       u437_25 0197                         u438_20 01A9                         u438_21 01A8  
                       u439_24 01AF                         u439_25 01AD                         _OSCCON 008F  
                       _TMR0IF 005A                         _TMR1IF 0060                         _TMR2IF 0061  
                       _SPBRGH 009A                         _TMR2ON 0092                         _WDTCON 0105  
                       _SSPADD 0093                         _TRISC3 043B                         _TRISC4 043C  
                       _SSPCON 0014                         _SSPBUF 0013                         _SSPMSK 0093  
     __end_ofi1_TMR1_set_timer 044F             write_Digital@value 0036                   ?_TMR1_enable 003C  
         pin_Direction@var_pin 003A                         _strcmp 03AA                         saved_w 007E  
i1write_Digital@var_PortNumber 0073        __end_of__initialization 0036              ??i1_write_Digital 0071  
               __pcstackCOMMON 0070                   __pidataBANK0 0467                 _Sensor_Address 002E  
                   __pbssBANK0 0020                     __pmaintext 03E0                     __pintentry 0004  
                      _CM1CON0 0107                        _CM2CON0 0108                        _CCP1CON 0017  
                      _CM2CON1 0109                        _CCP2CON 001D                  _write_Digital 020A  
                      ?_strcmp 0036                        _GO_DONE 00F9                        _OSCTUNE 0090  
                      _PWM1CON 009B                        _PSTRCON 009D                        _SSPCON2 0091  
                      _ULPWUIF 006A                        _SSPSTAT 0094                     __stringtab 0367  
                _pin_Direction 003A                 ?_write_Digital 0036                      _ANSELbits 0188  
                      __ptext1 020A                        __ptext2 003A                        __ptext3 0439  
                      __ptext4 02DF                        __ptext5 03AA                        __ptext6 0462  
                      __ptext7 0415                        __ptext8 0123                        __ptext9 0444  
                    _LCDConfig 0020                        clrloop0 045B           end_of_initialization 0036  
              TMR1_enable@SYNC 003C              ?i1_TMR1_set_timer 0070             ??i1_TMR1_set_timer 0072  
               ?_pin_Direction 0036                        strcmp@r 003A                      _PORTAbits 0005  
      TMR1_enable@var_Settings 004A                      _TRISAbits 0085                i1_write_Digital 0123  
         i1TMR1_set_timer@time 0070                ??_write_Digital 0037            TMR1_set_timer@bytes 0038  
   __end_of_ExternalClock_Init 0467                 __end_of_strcmp 03E0            start_initialization 0011  
              ??_pin_Direction 0037                    __pdataBANK0 004B     pin_Direction@var_derection 0036  
            _LcdTrackCursorPos 007A        __end_ofi1_write_Digital 020A                       ??_strcmp 0038  
                  __pbssCOMMON 0078                      ___latbits 0002                  __pcstackBANK0 0036  
               _TMR1_interrupt 044F                _LcdTrackLineNum 007B                 _TMR1_set_timer 0439  
                    __pstrings 0367         i1write_Digital@var_pin 0074         __end_of_TMR1_interrupt 045A  
            interrupt_function 0004         __end_of_TMR1_set_timer 0444             TMR1_enable@clk_src 0048  
           TMR1_enable@x_LPSOC 0045                      clear_ram0 045A                       _PIE1bits 008C  
                     _PIR1bits 000C                  ??_TMR1_enable 0040               ?i1_write_Digital 0070  
                   _ADCON0bits 001F                    __stringbase 036C                     _ADCON1bits 009F  
         write_Digital@var_pin 003A                ?_TMR1_interrupt 0070                       _DoneFlag 0079  
           TMR1_set_timer@time 0036                ?_TMR1_set_timer 0036           TMR1_enable@Prescaler 003E  
           __end_of__stringtab 036D                     _ANSELHbits 0189            __end_of_TMR1_enable 0367  
                     __ptext10 044F             _ExternalClock_Init 0462    write_Digital@var_PortNumber 0039  
          ?_ExternalClock_Init 0070              TMR1_enable@x_SYNC 0043          __end_of_write_Digital 02DF  
         ??_ExternalClock_Init 0036                     _INTCONbits 000B                       intlevel1 0000  
             TMR1_enable@LPSOC 003D           i1write_Digital@value 0070           TMR1_enable@var_T1CON 0049  
                    stringcode 0367           TMR1_enable@x_clk_src 0041          __end_of_pin_Direction 0123  
                  _TMR1_enable 02DF                     _OPTION_REG 0081               i1_TMR1_set_timer 0444  
                     strcmp@s1 003B                       strcmp@s2 0036                       stringdir 0367  
                     stringtab 0367       TMR1_enable@var_Prescaler 0047  
