

Microchip MPLAB XC8 Assembler V2.41 build 20230208172133 
                                                                                               Sat Mar 11 12:40:48 2023

Microchip MPLAB XC8 C Compiler v2.41 (Free license) build 20230208172133 Og1 
     1                           	processor	16F887
     2                           	pagewidth 120
     3                           	opt	flic
     4                           	psect	idataBANK0,global,class=CODE,delta=2,noexec
     5                           	psect	strings,global,class=STRING,delta=2,noexec
     6                           	psect	cinit,global,class=CODE,merge=1,delta=2
     7                           	psect	bssCOMMON,global,class=COMMON,space=1,delta=1,noexec
     8                           	psect	bssBANK0,global,class=BANK0,space=1,delta=1,noexec
     9                           	psect	dataBANK0,global,class=BANK0,space=1,delta=1,noexec
    10                           	psect	bssBANK1,global,class=BANK1,space=1,delta=1,noexec
    11                           	psect	clrtext,global,class=CODE,delta=2
    12                           	psect	cstackBANK1,global,class=BANK1,space=1,delta=1,noexec
    13                           	psect	cstackCOMMON,global,class=COMMON,space=1,delta=1,noexec
    14                           	psect	cstackBANK0,global,class=BANK0,space=1,delta=1,noexec
    15                           	psect	maintext,global,class=CODE,split=1,delta=2
    16                           	psect	text1,local,class=CODE,merge=1,delta=2
    17                           	psect	text2,local,class=CODE,merge=1,delta=2
    18                           	psect	text3,local,class=CODE,merge=1,delta=2
    19                           	psect	text4,local,class=CODE,merge=1,delta=2
    20                           	psect	text5,local,class=CODE,merge=1,delta=2,group=1
    21                           	psect	text6,local,class=CODE,merge=1,delta=2,group=1
    22                           	psect	text7,local,class=CODE,merge=1,delta=2,group=1
    23                           	psect	text8,local,class=CODE,merge=1,delta=2,group=1
    24                           	psect	text9,local,class=CODE,merge=1,delta=2,group=1
    25                           	psect	text10,local,class=CODE,merge=1,delta=2,group=1
    26                           	psect	text11,local,class=CODE,merge=1,delta=2
    27                           	psect	text12,local,class=CODE,merge=1,delta=2,group=1
    28                           	psect	text13,local,class=CODE,merge=1,delta=2,group=1
    29                           	psect	text14,local,class=CODE,merge=1,delta=2
    30                           	psect	text15,local,class=CODE,merge=1,delta=2
    31                           	psect	text16,local,class=CODE,merge=1,delta=2
    32                           	psect	text17,local,class=CODE,merge=1,delta=2
    33                           	psect	text18,local,class=CODE,merge=1,delta=2
    34                           	psect	text19,local,class=CODE,merge=1,delta=2
    35                           	psect	text20,local,class=CODE,merge=1,delta=2
    36                           	psect	text21,local,class=CODE,merge=1,delta=2
    37                           	psect	text22,local,class=CODE,merge=1,delta=2
    38                           	psect	text23,local,class=CODE,merge=1,delta=2
    39                           	psect	text24,local,class=CODE,merge=1,delta=2
    40                           	psect	text25,local,class=CODE,merge=1,delta=2
    41                           	psect	text26,local,class=CODE,merge=1,delta=2
    42                           	psect	text27,local,class=CODE,merge=1,delta=2
    43                           	psect	text28,local,class=CODE,merge=1,delta=2
    44                           	psect	text29,local,class=CODE,merge=1,delta=2
    45                           	psect	text30,local,class=CODE,merge=1,delta=2
    46                           	psect	text31,local,class=CODE,merge=1,delta=2
    47                           	psect	text32,local,class=CODE,merge=1,delta=2
    48                           	psect	text33,local,class=CODE,merge=1,delta=2
    49                           	psect	intentry,global,class=CODE,delta=2
    50                           	psect	idloc,global,abs,ovrld,class=IDLOC,space=5,delta=2,noexec
    51                           	psect	config,global,abs,ovrld,class=CONFIG,space=4,delta=2,noexec
    52                           	dabs	1,0x7E,2
    53     0000                     
    54                           ; Version 2.40
    55                           ; Generated 17/11/2021 GMT
    56                           ; 
    57                           ; Copyright © 2021, Microchip Technology Inc. and its subsidiaries ("Microchip")
    58                           ; All rights reserved.
    59                           ; 
    60                           ; This software is developed by Microchip Technology Inc. and its subsidiaries ("Microch
      +                          ip").
    61                           ; 
    62                           ; Redistribution and use in source and binary forms, with or without modification, are
    63                           ; permitted provided that the following conditions are met:
    64                           ; 
    65                           ;     1. Redistributions of source code must retain the above copyright notice, this lis
      +                          t of
    66                           ;        conditions and the following disclaimer.
    67                           ; 
    68                           ;     2. Redistributions in binary form must reproduce the above copyright notice, this 
      +                          list
    69                           ;        of conditions and the following disclaimer in the documentation and/or other
    70                           ;        materials provided with the distribution. Publication is not required when
    71                           ;        this file is used in an embedded application.
    72                           ; 
    73                           ;     3. Microchip's name may not be used to endorse or promote products derived from th
      +                          is
    74                           ;        software without specific prior written permission.
    75                           ; 
    76                           ; THIS SOFTWARE IS PROVIDED BY MICROCHIP "AS IS" AND ANY EXPRESS OR IMPLIED WARRANTIES,
    77                           ; INCLUDING, BUT NOT LIMITED TO, THE IMPLIED WARRANTIES OF MERCHANTABILITY AND FITNESS F
      +                          OR
    78                           ; PURPOSE ARE DISCLAIMED.  IN NO EVENT SHALL MICROCHIP BE LIABLE FOR ANY DIRECT, INDIREC
      +                          T,
    79                           ; INCIDENTAL, SPECIAL, EXEMPLARY, OR CONSEQUENTIAL DAMAGES (INCLUDING BUT NOT LIMITED TO
    80                           ; PROCUREMENT OF SUBSTITUTE GOODS OR SERVICES; LOSS OF USE, DATA OR PROFITS; OR BUSINESS
    81                           ; INTERRUPTION) HOWSOEVER CAUSED AND ON ANY THEORY OF LIABILITY, WHETHER IN CONTRACT, ST
      +                          RICT
    82                           ; LIABILITY, OR TORT (INCLUDING NEGLIGENCE OR OTHERWISE) ARISING IN ANY WAY OUT OF THE U
      +                          SE OF
    83                           ; THIS SOFTWARE, EVEN IF ADVISED OF THE POSSIBILITY OF SUCH DAMAGE.
    84                           ; 
    85                           ; 
    86                           ; Code-generator required, PIC16F887 Definitions
    87                           ; 
    88                           ; SFR Addresses
    89     0000                     	;# 
    90     0001                     	;# 
    91     0002                     	;# 
    92     0003                     	;# 
    93     0004                     	;# 
    94     0005                     	;# 
    95     0006                     	;# 
    96     0007                     	;# 
    97     0008                     	;# 
    98     0009                     	;# 
    99     000A                     	;# 
   100     000B                     	;# 
   101     000C                     	;# 
   102     000D                     	;# 
   103     000E                     	;# 
   104     000E                     	;# 
   105     000F                     	;# 
   106     0010                     	;# 
   107     0011                     	;# 
   108     0012                     	;# 
   109     0013                     	;# 
   110     0014                     	;# 
   111     0015                     	;# 
   112     0015                     	;# 
   113     0016                     	;# 
   114     0017                     	;# 
   115     0018                     	;# 
   116     0019                     	;# 
   117     001A                     	;# 
   118     001B                     	;# 
   119     001B                     	;# 
   120     001C                     	;# 
   121     001D                     	;# 
   122     001E                     	;# 
   123     001F                     	;# 
   124     0081                     	;# 
   125     0085                     	;# 
   126     0086                     	;# 
   127     0087                     	;# 
   128     0088                     	;# 
   129     0089                     	;# 
   130     008C                     	;# 
   131     008D                     	;# 
   132     008E                     	;# 
   133     008F                     	;# 
   134     0090                     	;# 
   135     0091                     	;# 
   136     0092                     	;# 
   137     0093                     	;# 
   138     0093                     	;# 
   139     0093                     	;# 
   140     0094                     	;# 
   141     0095                     	;# 
   142     0096                     	;# 
   143     0097                     	;# 
   144     0098                     	;# 
   145     0099                     	;# 
   146     009A                     	;# 
   147     009B                     	;# 
   148     009C                     	;# 
   149     009D                     	;# 
   150     009E                     	;# 
   151     009F                     	;# 
   152     0105                     	;# 
   153     0107                     	;# 
   154     0108                     	;# 
   155     0109                     	;# 
   156     010C                     	;# 
   157     010C                     	;# 
   158     010D                     	;# 
   159     010E                     	;# 
   160     010F                     	;# 
   161     0185                     	;# 
   162     0187                     	;# 
   163     0188                     	;# 
   164     0189                     	;# 
   165     018C                     	;# 
   166     018D                     	;# 
   167     0000                     	;# 
   168     0001                     	;# 
   169     0002                     	;# 
   170     0003                     	;# 
   171     0004                     	;# 
   172     0005                     	;# 
   173     0006                     	;# 
   174     0007                     	;# 
   175     0008                     	;# 
   176     0009                     	;# 
   177     000A                     	;# 
   178     000B                     	;# 
   179     000C                     	;# 
   180     000D                     	;# 
   181     000E                     	;# 
   182     000E                     	;# 
   183     000F                     	;# 
   184     0010                     	;# 
   185     0011                     	;# 
   186     0012                     	;# 
   187     0013                     	;# 
   188     0014                     	;# 
   189     0015                     	;# 
   190     0015                     	;# 
   191     0016                     	;# 
   192     0017                     	;# 
   193     0018                     	;# 
   194     0019                     	;# 
   195     001A                     	;# 
   196     001B                     	;# 
   197     001B                     	;# 
   198     001C                     	;# 
   199     001D                     	;# 
   200     001E                     	;# 
   201     001F                     	;# 
   202     0081                     	;# 
   203     0085                     	;# 
   204     0086                     	;# 
   205     0087                     	;# 
   206     0088                     	;# 
   207     0089                     	;# 
   208     008C                     	;# 
   209     008D                     	;# 
   210     008E                     	;# 
   211     008F                     	;# 
   212     0090                     	;# 
   213     0091                     	;# 
   214     0092                     	;# 
   215     0093                     	;# 
   216     0093                     	;# 
   217     0093                     	;# 
   218     0094                     	;# 
   219     0095                     	;# 
   220     0096                     	;# 
   221     0097                     	;# 
   222     0098                     	;# 
   223     0099                     	;# 
   224     009A                     	;# 
   225     009B                     	;# 
   226     009C                     	;# 
   227     009D                     	;# 
   228     009E                     	;# 
   229     009F                     	;# 
   230     0105                     	;# 
   231     0107                     	;# 
   232     0108                     	;# 
   233     0109                     	;# 
   234     010C                     	;# 
   235     010C                     	;# 
   236     010D                     	;# 
   237     010E                     	;# 
   238     010F                     	;# 
   239     0185                     	;# 
   240     0187                     	;# 
   241     0188                     	;# 
   242     0189                     	;# 
   243     018C                     	;# 
   244     018D                     	;# 
   245     0000                     	;# 
   246     0001                     	;# 
   247     0002                     	;# 
   248     0003                     	;# 
   249     0004                     	;# 
   250     0005                     	;# 
   251     0006                     	;# 
   252     0007                     	;# 
   253     0008                     	;# 
   254     0009                     	;# 
   255     000A                     	;# 
   256     000B                     	;# 
   257     000C                     	;# 
   258     000D                     	;# 
   259     000E                     	;# 
   260     000E                     	;# 
   261     000F                     	;# 
   262     0010                     	;# 
   263     0011                     	;# 
   264     0012                     	;# 
   265     0013                     	;# 
   266     0014                     	;# 
   267     0015                     	;# 
   268     0015                     	;# 
   269     0016                     	;# 
   270     0017                     	;# 
   271     0018                     	;# 
   272     0019                     	;# 
   273     001A                     	;# 
   274     001B                     	;# 
   275     001B                     	;# 
   276     001C                     	;# 
   277     001D                     	;# 
   278     001E                     	;# 
   279     001F                     	;# 
   280     0081                     	;# 
   281     0085                     	;# 
   282     0086                     	;# 
   283     0087                     	;# 
   284     0088                     	;# 
   285     0089                     	;# 
   286     008C                     	;# 
   287     008D                     	;# 
   288     008E                     	;# 
   289     008F                     	;# 
   290     0090                     	;# 
   291     0091                     	;# 
   292     0092                     	;# 
   293     0093                     	;# 
   294     0093                     	;# 
   295     0093                     	;# 
   296     0094                     	;# 
   297     0095                     	;# 
   298     0096                     	;# 
   299     0097                     	;# 
   300     0098                     	;# 
   301     0099                     	;# 
   302     009A                     	;# 
   303     009B                     	;# 
   304     009C                     	;# 
   305     009D                     	;# 
   306     009E                     	;# 
   307     009F                     	;# 
   308     0105                     	;# 
   309     0107                     	;# 
   310     0108                     	;# 
   311     0109                     	;# 
   312     010C                     	;# 
   313     010C                     	;# 
   314     010D                     	;# 
   315     010E                     	;# 
   316     010F                     	;# 
   317     0185                     	;# 
   318     0187                     	;# 
   319     0188                     	;# 
   320     0189                     	;# 
   321     018C                     	;# 
   322     018D                     	;# 
   323     0000                     	;# 
   324     0001                     	;# 
   325     0002                     	;# 
   326     0003                     	;# 
   327     0004                     	;# 
   328     0005                     	;# 
   329     0006                     	;# 
   330     0007                     	;# 
   331     0008                     	;# 
   332     0009                     	;# 
   333     000A                     	;# 
   334     000B                     	;# 
   335     000C                     	;# 
   336     000D                     	;# 
   337     000E                     	;# 
   338     000E                     	;# 
   339     000F                     	;# 
   340     0010                     	;# 
   341     0011                     	;# 
   342     0012                     	;# 
   343     0013                     	;# 
   344     0014                     	;# 
   345     0015                     	;# 
   346     0015                     	;# 
   347     0016                     	;# 
   348     0017                     	;# 
   349     0018                     	;# 
   350     0019                     	;# 
   351     001A                     	;# 
   352     001B                     	;# 
   353     001B                     	;# 
   354     001C                     	;# 
   355     001D                     	;# 
   356     001E                     	;# 
   357     001F                     	;# 
   358     0081                     	;# 
   359     0085                     	;# 
   360     0086                     	;# 
   361     0087                     	;# 
   362     0088                     	;# 
   363     0089                     	;# 
   364     008C                     	;# 
   365     008D                     	;# 
   366     008E                     	;# 
   367     008F                     	;# 
   368     0090                     	;# 
   369     0091                     	;# 
   370     0092                     	;# 
   371     0093                     	;# 
   372     0093                     	;# 
   373     0093                     	;# 
   374     0094                     	;# 
   375     0095                     	;# 
   376     0096                     	;# 
   377     0097                     	;# 
   378     0098                     	;# 
   379     0099                     	;# 
   380     009A                     	;# 
   381     009B                     	;# 
   382     009C                     	;# 
   383     009D                     	;# 
   384     009E                     	;# 
   385     009F                     	;# 
   386     0105                     	;# 
   387     0107                     	;# 
   388     0108                     	;# 
   389     0109                     	;# 
   390     010C                     	;# 
   391     010C                     	;# 
   392     010D                     	;# 
   393     010E                     	;# 
   394     010F                     	;# 
   395     0185                     	;# 
   396     0187                     	;# 
   397     0188                     	;# 
   398     0189                     	;# 
   399     018C                     	;# 
   400     018D                     	;# 
   401     0000                     	;# 
   402     0001                     	;# 
   403     0002                     	;# 
   404     0003                     	;# 
   405     0004                     	;# 
   406     0005                     	;# 
   407     0006                     	;# 
   408     0007                     	;# 
   409     0008                     	;# 
   410     0009                     	;# 
   411     000A                     	;# 
   412     000B                     	;# 
   413     000C                     	;# 
   414     000D                     	;# 
   415     000E                     	;# 
   416     000E                     	;# 
   417     000F                     	;# 
   418     0010                     	;# 
   419     0011                     	;# 
   420     0012                     	;# 
   421     0013                     	;# 
   422     0014                     	;# 
   423     0015                     	;# 
   424     0015                     	;# 
   425     0016                     	;# 
   426     0017                     	;# 
   427     0018                     	;# 
   428     0019                     	;# 
   429     001A                     	;# 
   430     001B                     	;# 
   431     001B                     	;# 
   432     001C                     	;# 
   433     001D                     	;# 
   434     001E                     	;# 
   435     001F                     	;# 
   436     0081                     	;# 
   437     0085                     	;# 
   438     0086                     	;# 
   439     0087                     	;# 
   440     0088                     	;# 
   441     0089                     	;# 
   442     008C                     	;# 
   443     008D                     	;# 
   444     008E                     	;# 
   445     008F                     	;# 
   446     0090                     	;# 
   447     0091                     	;# 
   448     0092                     	;# 
   449     0093                     	;# 
   450     0093                     	;# 
   451     0093                     	;# 
   452     0094                     	;# 
   453     0095                     	;# 
   454     0096                     	;# 
   455     0097                     	;# 
   456     0098                     	;# 
   457     0099                     	;# 
   458     009A                     	;# 
   459     009B                     	;# 
   460     009C                     	;# 
   461     009D                     	;# 
   462     009E                     	;# 
   463     009F                     	;# 
   464     0105                     	;# 
   465     0107                     	;# 
   466     0108                     	;# 
   467     0109                     	;# 
   468     010C                     	;# 
   469     010C                     	;# 
   470     010D                     	;# 
   471     010E                     	;# 
   472     010F                     	;# 
   473     0185                     	;# 
   474     0187                     	;# 
   475     0188                     	;# 
   476     0189                     	;# 
   477     018C                     	;# 
   478     018D                     	;# 
   479     0000                     	;# 
   480     0001                     	;# 
   481     0002                     	;# 
   482     0003                     	;# 
   483     0004                     	;# 
   484     0005                     	;# 
   485     0006                     	;# 
   486     0007                     	;# 
   487     0008                     	;# 
   488     0009                     	;# 
   489     000A                     	;# 
   490     000B                     	;# 
   491     000C                     	;# 
   492     000D                     	;# 
   493     000E                     	;# 
   494     000E                     	;# 
   495     000F                     	;# 
   496     0010                     	;# 
   497     0011                     	;# 
   498     0012                     	;# 
   499     0013                     	;# 
   500     0014                     	;# 
   501     0015                     	;# 
   502     0015                     	;# 
   503     0016                     	;# 
   504     0017                     	;# 
   505     0018                     	;# 
   506     0019                     	;# 
   507     001A                     	;# 
   508     001B                     	;# 
   509     001B                     	;# 
   510     001C                     	;# 
   511     001D                     	;# 
   512     001E                     	;# 
   513     001F                     	;# 
   514     0081                     	;# 
   515     0085                     	;# 
   516     0086                     	;# 
   517     0087                     	;# 
   518     0088                     	;# 
   519     0089                     	;# 
   520     008C                     	;# 
   521     008D                     	;# 
   522     008E                     	;# 
   523     008F                     	;# 
   524     0090                     	;# 
   525     0091                     	;# 
   526     0092                     	;# 
   527     0093                     	;# 
   528     0093                     	;# 
   529     0093                     	;# 
   530     0094                     	;# 
   531     0095                     	;# 
   532     0096                     	;# 
   533     0097                     	;# 
   534     0098                     	;# 
   535     0099                     	;# 
   536     009A                     	;# 
   537     009B                     	;# 
   538     009C                     	;# 
   539     009D                     	;# 
   540     009E                     	;# 
   541     009F                     	;# 
   542     0105                     	;# 
   543     0107                     	;# 
   544     0108                     	;# 
   545     0109                     	;# 
   546     010C                     	;# 
   547     010C                     	;# 
   548     010D                     	;# 
   549     010E                     	;# 
   550     010F                     	;# 
   551     0185                     	;# 
   552     0187                     	;# 
   553     0188                     	;# 
   554     0189                     	;# 
   555     018C                     	;# 
   556     018D                     	;# 
   557     0000                     	;# 
   558     0001                     	;# 
   559     0002                     	;# 
   560     0003                     	;# 
   561     0004                     	;# 
   562     0005                     	;# 
   563     0006                     	;# 
   564     0007                     	;# 
   565     0008                     	;# 
   566     0009                     	;# 
   567     000A                     	;# 
   568     000B                     	;# 
   569     000C                     	;# 
   570     000D                     	;# 
   571     000E                     	;# 
   572     000E                     	;# 
   573     000F                     	;# 
   574     0010                     	;# 
   575     0011                     	;# 
   576     0012                     	;# 
   577     0013                     	;# 
   578     0014                     	;# 
   579     0015                     	;# 
   580     0015                     	;# 
   581     0016                     	;# 
   582     0017                     	;# 
   583     0018                     	;# 
   584     0019                     	;# 
   585     001A                     	;# 
   586     001B                     	;# 
   587     001B                     	;# 
   588     001C                     	;# 
   589     001D                     	;# 
   590     001E                     	;# 
   591     001F                     	;# 
   592     0081                     	;# 
   593     0085                     	;# 
   594     0086                     	;# 
   595     0087                     	;# 
   596     0088                     	;# 
   597     0089                     	;# 
   598     008C                     	;# 
   599     008D                     	;# 
   600     008E                     	;# 
   601     008F                     	;# 
   602     0090                     	;# 
   603     0091                     	;# 
   604     0092                     	;# 
   605     0093                     	;# 
   606     0093                     	;# 
   607     0093                     	;# 
   608     0094                     	;# 
   609     0095                     	;# 
   610     0096                     	;# 
   611     0097                     	;# 
   612     0098                     	;# 
   613     0099                     	;# 
   614     009A                     	;# 
   615     009B                     	;# 
   616     009C                     	;# 
   617     009D                     	;# 
   618     009E                     	;# 
   619     009F                     	;# 
   620     0105                     	;# 
   621     0107                     	;# 
   622     0108                     	;# 
   623     0109                     	;# 
   624     010C                     	;# 
   625     010C                     	;# 
   626     010D                     	;# 
   627     010E                     	;# 
   628     010F                     	;# 
   629     0185                     	;# 
   630     0187                     	;# 
   631     0188                     	;# 
   632     0189                     	;# 
   633     018C                     	;# 
   634     018D                     	;# 
   635     0000                     	;# 
   636     0001                     	;# 
   637     0002                     	;# 
   638     0003                     	;# 
   639     0004                     	;# 
   640     0005                     	;# 
   641     0006                     	;# 
   642     0007                     	;# 
   643     0008                     	;# 
   644     0009                     	;# 
   645     000A                     	;# 
   646     000B                     	;# 
   647     000C                     	;# 
   648     000D                     	;# 
   649     000E                     	;# 
   650     000E                     	;# 
   651     000F                     	;# 
   652     0010                     	;# 
   653     0011                     	;# 
   654     0012                     	;# 
   655     0013                     	;# 
   656     0014                     	;# 
   657     0015                     	;# 
   658     0015                     	;# 
   659     0016                     	;# 
   660     0017                     	;# 
   661     0018                     	;# 
   662     0019                     	;# 
   663     001A                     	;# 
   664     001B                     	;# 
   665     001B                     	;# 
   666     001C                     	;# 
   667     001D                     	;# 
   668     001E                     	;# 
   669     001F                     	;# 
   670     0081                     	;# 
   671     0085                     	;# 
   672     0086                     	;# 
   673     0087                     	;# 
   674     0088                     	;# 
   675     0089                     	;# 
   676     008C                     	;# 
   677     008D                     	;# 
   678     008E                     	;# 
   679     008F                     	;# 
   680     0090                     	;# 
   681     0091                     	;# 
   682     0092                     	;# 
   683     0093                     	;# 
   684     0093                     	;# 
   685     0093                     	;# 
   686     0094                     	;# 
   687     0095                     	;# 
   688     0096                     	;# 
   689     0097                     	;# 
   690     0098                     	;# 
   691     0099                     	;# 
   692     009A                     	;# 
   693     009B                     	;# 
   694     009C                     	;# 
   695     009D                     	;# 
   696     009E                     	;# 
   697     009F                     	;# 
   698     0105                     	;# 
   699     0107                     	;# 
   700     0108                     	;# 
   701     0109                     	;# 
   702     010C                     	;# 
   703     010C                     	;# 
   704     010D                     	;# 
   705     010E                     	;# 
   706     010F                     	;# 
   707     0185                     	;# 
   708     0187                     	;# 
   709     0188                     	;# 
   710     0189                     	;# 
   711     018C                     	;# 
   712     018D                     	;# 
   713     0000                     	;# 
   714     0001                     	;# 
   715     0002                     	;# 
   716     0003                     	;# 
   717     0004                     	;# 
   718     0005                     	;# 
   719     0006                     	;# 
   720     0007                     	;# 
   721     0008                     	;# 
   722     0009                     	;# 
   723     000A                     	;# 
   724     000B                     	;# 
   725     000C                     	;# 
   726     000D                     	;# 
   727     000E                     	;# 
   728     000E                     	;# 
   729     000F                     	;# 
   730     0010                     	;# 
   731     0011                     	;# 
   732     0012                     	;# 
   733     0013                     	;# 
   734     0014                     	;# 
   735     0015                     	;# 
   736     0015                     	;# 
   737     0016                     	;# 
   738     0017                     	;# 
   739     0018                     	;# 
   740     0019                     	;# 
   741     001A                     	;# 
   742     001B                     	;# 
   743     001B                     	;# 
   744     001C                     	;# 
   745     001D                     	;# 
   746     001E                     	;# 
   747     001F                     	;# 
   748     0081                     	;# 
   749     0085                     	;# 
   750     0086                     	;# 
   751     0087                     	;# 
   752     0088                     	;# 
   753     0089                     	;# 
   754     008C                     	;# 
   755     008D                     	;# 
   756     008E                     	;# 
   757     008F                     	;# 
   758     0090                     	;# 
   759     0091                     	;# 
   760     0092                     	;# 
   761     0093                     	;# 
   762     0093                     	;# 
   763     0093                     	;# 
   764     0094                     	;# 
   765     0095                     	;# 
   766     0096                     	;# 
   767     0097                     	;# 
   768     0098                     	;# 
   769     0099                     	;# 
   770     009A                     	;# 
   771     009B                     	;# 
   772     009C                     	;# 
   773     009D                     	;# 
   774     009E                     	;# 
   775     009F                     	;# 
   776     0105                     	;# 
   777     0107                     	;# 
   778     0108                     	;# 
   779     0109                     	;# 
   780     010C                     	;# 
   781     010C                     	;# 
   782     010D                     	;# 
   783     010E                     	;# 
   784     010F                     	;# 
   785     0185                     	;# 
   786     0187                     	;# 
   787     0188                     	;# 
   788     0189                     	;# 
   789     018C                     	;# 
   790     018D                     	;# 
   791     0000                     	;# 
   792     0001                     	;# 
   793     0002                     	;# 
   794     0003                     	;# 
   795     0004                     	;# 
   796     0005                     	;# 
   797     0006                     	;# 
   798     0007                     	;# 
   799     0008                     	;# 
   800     0009                     	;# 
   801     000A                     	;# 
   802     000B                     	;# 
   803     000C                     	;# 
   804     000D                     	;# 
   805     000E                     	;# 
   806     000E                     	;# 
   807     000F                     	;# 
   808     0010                     	;# 
   809     0011                     	;# 
   810     0012                     	;# 
   811     0013                     	;# 
   812     0014                     	;# 
   813     0015                     	;# 
   814     0015                     	;# 
   815     0016                     	;# 
   816     0017                     	;# 
   817     0018                     	;# 
   818     0019                     	;# 
   819     001A                     	;# 
   820     001B                     	;# 
   821     001B                     	;# 
   822     001C                     	;# 
   823     001D                     	;# 
   824     001E                     	;# 
   825     001F                     	;# 
   826     0081                     	;# 
   827     0085                     	;# 
   828     0086                     	;# 
   829     0087                     	;# 
   830     0088                     	;# 
   831     0089                     	;# 
   832     008C                     	;# 
   833     008D                     	;# 
   834     008E                     	;# 
   835     008F                     	;# 
   836     0090                     	;# 
   837     0091                     	;# 
   838     0092                     	;# 
   839     0093                     	;# 
   840     0093                     	;# 
   841     0093                     	;# 
   842     0094                     	;# 
   843     0095                     	;# 
   844     0096                     	;# 
   845     0097                     	;# 
   846     0098                     	;# 
   847     0099                     	;# 
   848     009A                     	;# 
   849     009B                     	;# 
   850     009C                     	;# 
   851     009D                     	;# 
   852     009E                     	;# 
   853     009F                     	;# 
   854     0105                     	;# 
   855     0107                     	;# 
   856     0108                     	;# 
   857     0109                     	;# 
   858     010C                     	;# 
   859     010C                     	;# 
   860     010D                     	;# 
   861     010E                     	;# 
   862     010F                     	;# 
   863     0185                     	;# 
   864     0187                     	;# 
   865     0188                     	;# 
   866     0189                     	;# 
   867     018C                     	;# 
   868     018D                     	;# 
   869     0000                     	;# 
   870     0001                     	;# 
   871     0002                     	;# 
   872     0003                     	;# 
   873     0004                     	;# 
   874     0005                     	;# 
   875     0006                     	;# 
   876     0007                     	;# 
   877     0008                     	;# 
   878     0009                     	;# 
   879     000A                     	;# 
   880     000B                     	;# 
   881     000C                     	;# 
   882     000D                     	;# 
   883     000E                     	;# 
   884     000E                     	;# 
   885     000F                     	;# 
   886     0010                     	;# 
   887     0011                     	;# 
   888     0012                     	;# 
   889     0013                     	;# 
   890     0014                     	;# 
   891     0015                     	;# 
   892     0015                     	;# 
   893     0016                     	;# 
   894     0017                     	;# 
   895     0018                     	;# 
   896     0019                     	;# 
   897     001A                     	;# 
   898     001B                     	;# 
   899     001B                     	;# 
   900     001C                     	;# 
   901     001D                     	;# 
   902     001E                     	;# 
   903     001F                     	;# 
   904     0081                     	;# 
   905     0085                     	;# 
   906     0086                     	;# 
   907     0087                     	;# 
   908     0088                     	;# 
   909     0089                     	;# 
   910     008C                     	;# 
   911     008D                     	;# 
   912     008E                     	;# 
   913     008F                     	;# 
   914     0090                     	;# 
   915     0091                     	;# 
   916     0092                     	;# 
   917     0093                     	;# 
   918     0093                     	;# 
   919     0093                     	;# 
   920     0094                     	;# 
   921     0095                     	;# 
   922     0096                     	;# 
   923     0097                     	;# 
   924     0098                     	;# 
   925     0099                     	;# 
   926     009A                     	;# 
   927     009B                     	;# 
   928     009C                     	;# 
   929     009D                     	;# 
   930     009E                     	;# 
   931     009F                     	;# 
   932     0105                     	;# 
   933     0107                     	;# 
   934     0108                     	;# 
   935     0109                     	;# 
   936     010C                     	;# 
   937     010C                     	;# 
   938     010D                     	;# 
   939     010E                     	;# 
   940     010F                     	;# 
   941     0185                     	;# 
   942     0187                     	;# 
   943     0188                     	;# 
   944     0189                     	;# 
   945     018C                     	;# 
   946     018D                     	;# 
   947     0000                     	;# 
   948     0001                     	;# 
   949     0002                     	;# 
   950     0003                     	;# 
   951     0004                     	;# 
   952     0005                     	;# 
   953     0006                     	;# 
   954     0007                     	;# 
   955     0008                     	;# 
   956     0009                     	;# 
   957     000A                     	;# 
   958     000B                     	;# 
   959     000C                     	;# 
   960     000D                     	;# 
   961     000E                     	;# 
   962     000E                     	;# 
   963     000F                     	;# 
   964     0010                     	;# 
   965     0011                     	;# 
   966     0012                     	;# 
   967     0013                     	;# 
   968     0014                     	;# 
   969     0015                     	;# 
   970     0015                     	;# 
   971     0016                     	;# 
   972     0017                     	;# 
   973     0018                     	;# 
   974     0019                     	;# 
   975     001A                     	;# 
   976     001B                     	;# 
   977     001B                     	;# 
   978     001C                     	;# 
   979     001D                     	;# 
   980     001E                     	;# 
   981     001F                     	;# 
   982     0081                     	;# 
   983     0085                     	;# 
   984     0086                     	;# 
   985     0087                     	;# 
   986     0088                     	;# 
   987     0089                     	;# 
   988     008C                     	;# 
   989     008D                     	;# 
   990     008E                     	;# 
   991     008F                     	;# 
   992     0090                     	;# 
   993     0091                     	;# 
   994     0092                     	;# 
   995     0093                     	;# 
   996     0093                     	;# 
   997     0093                     	;# 
   998     0094                     	;# 
   999     0095                     	;# 
  1000     0096                     	;# 
  1001     0097                     	;# 
  1002     0098                     	;# 
  1003     0099                     	;# 
  1004     009A                     	;# 
  1005     009B                     	;# 
  1006     009C                     	;# 
  1007     009D                     	;# 
  1008     009E                     	;# 
  1009     009F                     	;# 
  1010     0105                     	;# 
  1011     0107                     	;# 
  1012     0108                     	;# 
  1013     0109                     	;# 
  1014     010C                     	;# 
  1015     010C                     	;# 
  1016     010D                     	;# 
  1017     010E                     	;# 
  1018     010F                     	;# 
  1019     0185                     	;# 
  1020     0187                     	;# 
  1021     0188                     	;# 
  1022     0189                     	;# 
  1023     018C                     	;# 
  1024     018D                     	;# 
  1025     0000                     	;# 
  1026     0001                     	;# 
  1027     0002                     	;# 
  1028     0003                     	;# 
  1029     0004                     	;# 
  1030     0005                     	;# 
  1031     0006                     	;# 
  1032     0007                     	;# 
  1033     0008                     	;# 
  1034     0009                     	;# 
  1035     000A                     	;# 
  1036     000B                     	;# 
  1037     000C                     	;# 
  1038     000D                     	;# 
  1039     000E                     	;# 
  1040     000E                     	;# 
  1041     000F                     	;# 
  1042     0010                     	;# 
  1043     0011                     	;# 
  1044     0012                     	;# 
  1045     0013                     	;# 
  1046     0014                     	;# 
  1047     0015                     	;# 
  1048     0015                     	;# 
  1049     0016                     	;# 
  1050     0017                     	;# 
  1051     0018                     	;# 
  1052     0019                     	;# 
  1053     001A                     	;# 
  1054     001B                     	;# 
  1055     001B                     	;# 
  1056     001C                     	;# 
  1057     001D                     	;# 
  1058     001E                     	;# 
  1059     001F                     	;# 
  1060     0081                     	;# 
  1061     0085                     	;# 
  1062     0086                     	;# 
  1063     0087                     	;# 
  1064     0088                     	;# 
  1065     0089                     	;# 
  1066     008C                     	;# 
  1067     008D                     	;# 
  1068     008E                     	;# 
  1069     008F                     	;# 
  1070     0090                     	;# 
  1071     0091                     	;# 
  1072     0092                     	;# 
  1073     0093                     	;# 
  1074     0093                     	;# 
  1075     0093                     	;# 
  1076     0094                     	;# 
  1077     0095                     	;# 
  1078     0096                     	;# 
  1079     0097                     	;# 
  1080     0098                     	;# 
  1081     0099                     	;# 
  1082     009A                     	;# 
  1083     009B                     	;# 
  1084     009C                     	;# 
  1085     009D                     	;# 
  1086     009E                     	;# 
  1087     009F                     	;# 
  1088     0105                     	;# 
  1089     0107                     	;# 
  1090     0108                     	;# 
  1091     0109                     	;# 
  1092     010C                     	;# 
  1093     010C                     	;# 
  1094     010D                     	;# 
  1095     010E                     	;# 
  1096     010F                     	;# 
  1097     0185                     	;# 
  1098     0187                     	;# 
  1099     0188                     	;# 
  1100     0189                     	;# 
  1101     018C                     	;# 
  1102     018D                     	;# 
  1103     0000                     	;# 
  1104     0001                     	;# 
  1105     0002                     	;# 
  1106     0003                     	;# 
  1107     0004                     	;# 
  1108     0005                     	;# 
  1109     0006                     	;# 
  1110     0007                     	;# 
  1111     0008                     	;# 
  1112     0009                     	;# 
  1113     000A                     	;# 
  1114     000B                     	;# 
  1115     000C                     	;# 
  1116     000D                     	;# 
  1117     000E                     	;# 
  1118     000E                     	;# 
  1119     000F                     	;# 
  1120     0010                     	;# 
  1121     0011                     	;# 
  1122     0012                     	;# 
  1123     0013                     	;# 
  1124     0014                     	;# 
  1125     0015                     	;# 
  1126     0015                     	;# 
  1127     0016                     	;# 
  1128     0017                     	;# 
  1129     0018                     	;# 
  1130     0019                     	;# 
  1131     001A                     	;# 
  1132     001B                     	;# 
  1133     001B                     	;# 
  1134     001C                     	;# 
  1135     001D                     	;# 
  1136     001E                     	;# 
  1137     001F                     	;# 
  1138     0081                     	;# 
  1139     0085                     	;# 
  1140     0086                     	;# 
  1141     0087                     	;# 
  1142     0088                     	;# 
  1143     0089                     	;# 
  1144     008C                     	;# 
  1145     008D                     	;# 
  1146     008E                     	;# 
  1147     008F                     	;# 
  1148     0090                     	;# 
  1149     0091                     	;# 
  1150     0092                     	;# 
  1151     0093                     	;# 
  1152     0093                     	;# 
  1153     0093                     	;# 
  1154     0094                     	;# 
  1155     0095                     	;# 
  1156     0096                     	;# 
  1157     0097                     	;# 
  1158     0098                     	;# 
  1159     0099                     	;# 
  1160     009A                     	;# 
  1161     009B                     	;# 
  1162     009C                     	;# 
  1163     009D                     	;# 
  1164     009E                     	;# 
  1165     009F                     	;# 
  1166     0105                     	;# 
  1167     0107                     	;# 
  1168     0108                     	;# 
  1169     0109                     	;# 
  1170     010C                     	;# 
  1171     010C                     	;# 
  1172     010D                     	;# 
  1173     010E                     	;# 
  1174     010F                     	;# 
  1175     0185                     	;# 
  1176     0187                     	;# 
  1177     0188                     	;# 
  1178     0189                     	;# 
  1179     018C                     	;# 
  1180     018D                     	;# 
  1181     0000                     	;# 
  1182     0001                     	;# 
  1183     0002                     	;# 
  1184     0003                     	;# 
  1185     0004                     	;# 
  1186     0005                     	;# 
  1187     0006                     	;# 
  1188     0007                     	;# 
  1189     0008                     	;# 
  1190     0009                     	;# 
  1191     000A                     	;# 
  1192     000B                     	;# 
  1193     000C                     	;# 
  1194     000D                     	;# 
  1195     000E                     	;# 
  1196     000E                     	;# 
  1197     000F                     	;# 
  1198     0010                     	;# 
  1199     0011                     	;# 
  1200     0012                     	;# 
  1201     0013                     	;# 
  1202     0014                     	;# 
  1203     0015                     	;# 
  1204     0015                     	;# 
  1205     0016                     	;# 
  1206     0017                     	;# 
  1207     0018                     	;# 
  1208     0019                     	;# 
  1209     001A                     	;# 
  1210     001B                     	;# 
  1211     001B                     	;# 
  1212     001C                     	;# 
  1213     001D                     	;# 
  1214     001E                     	;# 
  1215     001F                     	;# 
  1216     0081                     	;# 
  1217     0085                     	;# 
  1218     0086                     	;# 
  1219     0087                     	;# 
  1220     0088                     	;# 
  1221     0089                     	;# 
  1222     008C                     	;# 
  1223     008D                     	;# 
  1224     008E                     	;# 
  1225     008F                     	;# 
  1226     0090                     	;# 
  1227     0091                     	;# 
  1228     0092                     	;# 
  1229     0093                     	;# 
  1230     0093                     	;# 
  1231     0093                     	;# 
  1232     0094                     	;# 
  1233     0095                     	;# 
  1234     0096                     	;# 
  1235     0097                     	;# 
  1236     0098                     	;# 
  1237     0099                     	;# 
  1238     009A                     	;# 
  1239     009B                     	;# 
  1240     009C                     	;# 
  1241     009D                     	;# 
  1242     009E                     	;# 
  1243     009F                     	;# 
  1244     0105                     	;# 
  1245     0107                     	;# 
  1246     0108                     	;# 
  1247     0109                     	;# 
  1248     010C                     	;# 
  1249     010C                     	;# 
  1250     010D                     	;# 
  1251     010E                     	;# 
  1252     010F                     	;# 
  1253     0185                     	;# 
  1254     0187                     	;# 
  1255     0188                     	;# 
  1256     0189                     	;# 
  1257     018C                     	;# 
  1258     018D                     	;# 
  1259     0000                     	;# 
  1260     0001                     	;# 
  1261     0002                     	;# 
  1262     0003                     	;# 
  1263     0004                     	;# 
  1264     0005                     	;# 
  1265     0006                     	;# 
  1266     0007                     	;# 
  1267     0008                     	;# 
  1268     0009                     	;# 
  1269     000A                     	;# 
  1270     000B                     	;# 
  1271     000C                     	;# 
  1272     000D                     	;# 
  1273     000E                     	;# 
  1274     000E                     	;# 
  1275     000F                     	;# 
  1276     0010                     	;# 
  1277     0011                     	;# 
  1278     0012                     	;# 
  1279     0013                     	;# 
  1280     0014                     	;# 
  1281     0015                     	;# 
  1282     0015                     	;# 
  1283     0016                     	;# 
  1284     0017                     	;# 
  1285     0018                     	;# 
  1286     0019                     	;# 
  1287     001A                     	;# 
  1288     001B                     	;# 
  1289     001B                     	;# 
  1290     001C                     	;# 
  1291     001D                     	;# 
  1292     001E                     	;# 
  1293     001F                     	;# 
  1294     0081                     	;# 
  1295     0085                     	;# 
  1296     0086                     	;# 
  1297     0087                     	;# 
  1298     0088                     	;# 
  1299     0089                     	;# 
  1300     008C                     	;# 
  1301     008D                     	;# 
  1302     008E                     	;# 
  1303     008F                     	;# 
  1304     0090                     	;# 
  1305     0091                     	;# 
  1306     0092                     	;# 
  1307     0093                     	;# 
  1308     0093                     	;# 
  1309     0093                     	;# 
  1310     0094                     	;# 
  1311     0095                     	;# 
  1312     0096                     	;# 
  1313     0097                     	;# 
  1314     0098                     	;# 
  1315     0099                     	;# 
  1316     009A                     	;# 
  1317     009B                     	;# 
  1318     009C                     	;# 
  1319     009D                     	;# 
  1320     009E                     	;# 
  1321     009F                     	;# 
  1322     0105                     	;# 
  1323     0107                     	;# 
  1324     0108                     	;# 
  1325     0109                     	;# 
  1326     010C                     	;# 
  1327     010C                     	;# 
  1328     010D                     	;# 
  1329     010E                     	;# 
  1330     010F                     	;# 
  1331     0185                     	;# 
  1332     0187                     	;# 
  1333     0188                     	;# 
  1334     0189                     	;# 
  1335     018C                     	;# 
  1336     018D                     	;# 
  1337                           
  1338                           	psect	idataBANK0
  1339     1503                     __pidataBANK0:
  1340                           
  1341                           ;initializer for _Array_LCDLineNumAddress
  1342     1503  3480               	retlw	128
  1343     1504  34C0               	retlw	192
  1344     1505  3490               	retlw	144
  1345     1506  34D0               	retlw	208
  1346     0019                     _TXREG	set	25
  1347     001A                     _RCREG	set	26
  1348     0011                     _TMR2	set	17
  1349     000C                     _PIR1bits	set	12
  1350     000E                     _TMR1L	set	14
  1351     000F                     _TMR1H	set	15
  1352     000B                     _INTCONbits	set	11
  1353     0001                     _TMR0	set	1
  1354     001B                     _CCPR2L	set	27
  1355     0015                     _CCPR1L	set	21
  1356     0005                     _PORTAbits	set	5
  1357     001D                     _CCP2CON	set	29
  1358     0018                     _RCSTA	set	24
  1359     0017                     _CCP1CON	set	23
  1360     0012                     _T2CON	set	18
  1361     0010                     _T1CON	set	16
  1362     000D                     _PIR2	set	13
  1363     000C                     _PIR1	set	12
  1364     0009                     _PORTE	set	9
  1365     0008                     _PORTD	set	8
  1366     0007                     _PORTC	set	7
  1367     0006                     _PORTB	set	6
  1368     0005                     _PORTA	set	5
  1369     000B                     _INTCON	set	11
  1370     0013                     _SSPBUF	set	19
  1371     0014                     _SSPCON	set	20
  1372     001E                     _ADRESH	set	30
  1373     001F                     _ADCON0bits	set	31
  1374     001F                     _ADCON0	set	31
  1375     0092                     _TMR2ON	set	146
  1376     0068                     _CCP2IF	set	104
  1377     006A                     _ULPWUIF	set	106
  1378     006B                     _BCLIF	set	107
  1379     006C                     _EEIF	set	108
  1380     006D                     _C1IF	set	109
  1381     006E                     _C2IF	set	110
  1382     006F                     _OSFIF	set	111
  1383     0060                     _TMR1IF	set	96
  1384     0061                     _TMR2IF	set	97
  1385     005A                     _TMR0IF	set	90
  1386     0062                     _CCP1IF	set	98
  1387     0063                     _SSPIF	set	99
  1388     0064                     _TXIF	set	100
  1389     0065                     _RCIF	set	101
  1390     0066                     _ADIF	set	102
  1391     0058                     _RBIF	set	88
  1392     0059                     _INTF	set	89
  1393     005A                     _T0IF	set	90
  1394     005F                     _GIE	set	95
  1395     00F9                     _GO_DONE	set	249
  1396     00F9                     _GO	set	249
  1397     00F8                     _ADON	set	248
  1398     008C                     _PIE1bits	set	140
  1399     0092                     _PR2	set	146
  1400     0085                     _TRISAbits	set	133
  1401     009F                     _ADCON1	set	159
  1402     009D                     _PSTRCON	set	157
  1403     009C                     _ECCPAS	set	156
  1404     009B                     _PWM1CON	set	155
  1405     009A                     _SPBRGH	set	154
  1406     0099                     _SPBRG	set	153
  1407     0098                     _TXSTA	set	152
  1408     0097                     _VRCON	set	151
  1409     0096                     _IOCB	set	150
  1410     0095                     _WPUB	set	149
  1411     0093                     _SSPMSK	set	147
  1412     0091                     _SSPCON2	set	145
  1413     0090                     _OSCTUNE	set	144
  1414     008F                     _OSCCON	set	143
  1415     008E                     _PCON	set	142
  1416     008D                     _PIE2	set	141
  1417     008C                     _PIE1	set	140
  1418     0089                     _TRISE	set	137
  1419     0088                     _TRISD	set	136
  1420     0087                     _TRISC	set	135
  1421     0086                     _TRISB	set	134
  1422     0085                     _TRISA	set	133
  1423     0081                     _OPTION_REG	set	129
  1424     0093                     _SSPADD	set	147
  1425     0094                     _SSPSTAT	set	148
  1426     009E                     _ADRESL	set	158
  1427     009F                     _ADCON1bits	set	159
  1428     048C                     _ACKEN	set	1164
  1429     048D                     _ACKDT	set	1165
  1430     04A2                     _R_W	set	1186
  1431     048B                     _RCEN	set	1163
  1432     04A0                     _BF	set	1184
  1433     048A                     _PEN	set	1162
  1434     0489                     _RSEN	set	1161
  1435     0488                     _SEN	set	1160
  1436     043C                     _TRISC4	set	1084
  1437     043B                     _TRISC3	set	1083
  1438     010F                     _EEADRH	set	271
  1439     010E                     _EEDATH	set	270
  1440     010C                     _EEDAT	set	268
  1441     0109                     _CM2CON1	set	265
  1442     0108                     _CM2CON0	set	264
  1443     0107                     _CM1CON0	set	263
  1444     0105                     _WDTCON	set	261
  1445     010C                     _EEDATA	set	268
  1446     010D                     _EEADR	set	269
  1447     0189                     _ANSELHbits	set	393
  1448     0188                     _ANSELbits	set	392
  1449     018D                     _EECON2	set	397
  1450     0C60                     _RD	set	3168
  1451     0C62                     _WREN	set	3170
  1452     0C61                     _WR	set	3169
  1453                           
  1454                           	psect	strings
  1455     1000                     __pstrings:
  1456     1000                     stringtab:
  1457     1000                     __stringtab:
  1458     1000                     stringcode:	
  1459                           ;	String table - string pointers are 1 byte each
  1460                           
  1461     1000                     stringdir:
  1462     1000  3010               	movlw	high stringdir
  1463     1001  008A               	movwf	10
  1464     1002  0804               	movf	4,w
  1465     1003  0A84               	incf	4,f
  1466     1004  0782               	addwf	2,f
  1467     1005                     __stringbase:
  1468     1005  3400               	retlw	0
  1469     1006                     __end_of__stringtab:
  1470     1006                     STR_2:
  1471     1006  3431               	retlw	49	;'1'
  1472     1007  3436               	retlw	54	;'6'
  1473     1008  3446               	retlw	70	;'F'
  1474     1009  3438               	retlw	56	;'8'
  1475     100A  3438               	retlw	56	;'8'
  1476     100B  3437               	retlw	55	;'7'
  1477     100C  3420               	retlw	32	;' '
  1478     100D  3426               	retlw	38	;'&'
  1479     100E  3420               	retlw	32	;' '
  1480     100F  3444               	retlw	68	;'D'
  1481     1010  3453               	retlw	83	;'S'
  1482     1011  3431               	retlw	49	;'1'
  1483     1012  3438               	retlw	56	;'8'
  1484     1013  3442               	retlw	66	;'B'
  1485     1014  3432               	retlw	50	;'2'
  1486     1015  3430               	retlw	48	;'0'
  1487     1016  340A               	retlw	10
  1488     1017  3454               	retlw	84	;'T'
  1489     1018  3465               	retlw	101	;'e'
  1490     1019  346D               	retlw	109	;'m'
  1491     101A  3470               	retlw	112	;'p'
  1492     101B  3465               	retlw	101	;'e'
  1493     101C  3472               	retlw	114	;'r'
  1494     101D  3461               	retlw	97	;'a'
  1495     101E  3474               	retlw	116	;'t'
  1496     101F  3475               	retlw	117	;'u'
  1497     1020  3472               	retlw	114	;'r'
  1498     1021  3465               	retlw	101	;'e'
  1499     1022  343A               	retlw	58	;':'
  1500     1023  3425               	retlw	37	;'%'
  1501     1024  3466               	retlw	102	;'f'
  1502     1025  3443               	retlw	67	;'C'
  1503     1026  340A               	retlw	10
  1504     1027  3400               	retlw	0
  1505     1028                     STR_1:
  1506     1028  3454               	retlw	84	;'T'
  1507     1029  3445               	retlw	69	;'E'
  1508     102A  3453               	retlw	83	;'S'
  1509     102B  3454               	retlw	84	;'T'
  1510     102C  340A               	retlw	10
  1511     102D  344C               	retlw	76	;'L'
  1512     102E  3469               	retlw	105	;'i'
  1513     102F  346E               	retlw	110	;'n'
  1514     1030  3465               	retlw	101	;'e'
  1515     1031  3432               	retlw	50	;'2'
  1516     1032  3400               	retlw	0
  1517     1033                     STR_3:
  1518     1033  3446               	retlw	70	;'F'
  1519     1034  344F               	retlw	79	;'O'
  1520     1035  3453               	retlw	83	;'S'
  1521     1036  3443               	retlw	67	;'C'
  1522     1037  3434               	retlw	52	;'4'
  1523     1038  3400               	retlw	0
  1524     1039                     STR_5:
  1525     1039  3454               	retlw	84	;'T'
  1526     103A  3430               	retlw	48	;'0'
  1527     103B  3443               	retlw	67	;'C'
  1528     103C  344B               	retlw	75	;'K'
  1529     103D  3449               	retlw	73	;'I'
  1530     103E  3400               	retlw	0
  1531     103F                     STR_13:
  1532     103F  3454               	retlw	84	;'T'
  1533     1040  3431               	retlw	49	;'1'
  1534     1041  3443               	retlw	67	;'C'
  1535     1042  344B               	retlw	75	;'K'
  1536     1043  3449               	retlw	73	;'I'
  1537     1044  3400               	retlw	0
  1538     1045                     STR_7:
  1539     1045  3448               	retlw	72	;'H'
  1540     1046  3449               	retlw	73	;'I'
  1541     1047  3447               	retlw	71	;'G'
  1542     1048  3448               	retlw	72	;'H'
  1543     1049  3400               	retlw	0
  1544     104A                     STR_9:
  1545     104A  344C               	retlw	76	;'L'
  1546     104B  344F               	retlw	79	;'O'
  1547     104C  3457               	retlw	87	;'W'
  1548     104D  3400               	retlw	0
  1549     1033                     
  1550                           	psect	cinit
  1551     000F                     start_initialization:	
  1552                           ; #config settings
  1553                           
  1554     000F                     __initialization:
  1555                           
  1556                           ; Initialize objects allocated to BANK0
  1557     000F  160A  118A  2503  120A  118A  	fcall	__pidataBANK0	;fetch initializer
  1558     0014  00D5               	movwf	__pdataBANK0& (0+127)
  1559     0015  160A  118A  2504  120A  118A  	fcall	__pidataBANK0+1	;fetch initializer
  1560     001A  00D6               	movwf	(__pdataBANK0+1)& (0+127)
  1561     001B  160A  118A  2505  120A  118A  	fcall	__pidataBANK0+2	;fetch initializer
  1562     0020  00D7               	movwf	(__pdataBANK0+2)& (0+127)
  1563     0021  160A  118A  2506  120A  118A  	fcall	__pidataBANK0+3	;fetch initializer
  1564     0026  00D8               	movwf	(__pdataBANK0+3)& (0+127)
  1565                           
  1566                           ; Clear objects allocated to BANK1
  1567     0027  1383               	bcf	3,7	;select IRP bank0
  1568     0028  30A0               	movlw	low __pbssBANK1
  1569     0029  0084               	movwf	4
  1570     002A  30B6               	movlw	low (__pbssBANK1+22)
  1571     002B  160A  118A  2513  120A  118A  	fcall	clear_ram0
  1572                           
  1573                           ; Clear objects allocated to BANK0
  1574     0030  01D9               	clrf	__pbssBANK0& (0+127)
  1575     0031  01DA               	clrf	(__pbssBANK0+1)& (0+127)
  1576                           
  1577                           ; Clear objects allocated to COMMON
  1578     0032  01FA               	clrf	__pbssCOMMON& (0+127)
  1579     0033  01FB               	clrf	(__pbssCOMMON+1)& (0+127)
  1580     0034                     end_of_initialization:	
  1581                           ;End of C runtime variable initialization code
  1582                           
  1583     0034                     __end_of__initialization:
  1584     0034  0183               	clrf	3
  1585     0035  120A  158A  280D   	ljmp	_main	;jump to C main() function
  1586                           
  1587                           	psect	bssCOMMON
  1588     007A                     __pbssCOMMON:
  1589     007A                     _LastSensorFount:
  1590     007A                     	ds	1
  1591     007B                     _LcdTrackLineNum:
  1592     007B                     	ds	1
  1593                           
  1594                           	psect	bssBANK0
  1595     0059                     __pbssBANK0:
  1596     0059                     _DoneFlag:
  1597     0059                     	ds	1
  1598     005A                     _LcdTrackCursorPos:
  1599     005A                     	ds	1
  1600                           
  1601                           	psect	dataBANK0
  1602     0055                     __pdataBANK0:
  1603     0055                     _Array_LCDLineNumAddress:
  1604     0055                     	ds	4
  1605                           
  1606                           	psect	bssBANK1
  1607     00A0                     __pbssBANK1:
  1608     00A0                     _LCDConfig:
  1609     00A0                     	ds	14
  1610     00AE                     _Sensor_Address:
  1611     00AE                     	ds	8
  1612                           
  1613                           	psect	clrtext
  1614     1513                     clear_ram0:	
  1615                           ;	Called with FSR containing the base address, and
  1616                           ;	W with the last address+1
  1617                           
  1618     1513  0064               	clrwdt	;clear the watchdog before getting into this loop
  1619     1514                     clrloop0:
  1620     1514  0180               	clrf	0	;clear RAM location pointed to by FSR
  1621     1515  0A84               	incf	4,f	;increment pointer
  1622     1516  0604               	xorwf	4,w	;XOR with final address
  1623     1517  1903               	btfsc	3,2	;have we reached the end yet?
  1624     1518  3400               	retlw	0	;all done for this memory range, return
  1625     1519  0604               	xorwf	4,w	;XOR again to restore value
  1626     151A  2D14               	goto	clrloop0	;do the next byte
  1627                           
  1628                           	psect	cstackBANK1
  1629     00B6                     __pcstackBANK1:
  1630     00B6                     LCD_Printf@var_float_num:
  1631                           
  1632                           ; 4 bytes @ 0x0
  1633     00B6                     	ds	4
  1634     00BA                     LCD_Printf@str:
  1635                           
  1636                           ; 1 bytes @ 0x4
  1637     00BA                     	ds	1
  1638     00BB                     LCD_Printf@argList:
  1639                           
  1640                           ; 1 bytes @ 0x5
  1641     00BB                     	ds	1
  1642     00BC                     LCD_Printf@var_num_u16:
  1643                           
  1644                           ; 2 bytes @ 0x6
  1645     00BC                     	ds	2
  1646     00BE                     LCD_Printf@var_num_s32:
  1647                           
  1648                           ; 4 bytes @ 0x8
  1649     00BE                     	ds	4
  1650     00C2                     LCD_Printf@var_num_u32:
  1651                           
  1652                           ; 4 bytes @ 0xC
  1653     00C2                     	ds	4
  1654     00C6                     LCD_Printf@var_num_s16:
  1655                           
  1656                           ; 2 bytes @ 0x10
  1657     00C6                     	ds	2
  1658     00C8                     LCD_Printf@ptr:
  1659                           
  1660                           ; 1 bytes @ 0x12
  1661     00C8                     	ds	1
  1662     00C9                     LCD_Printf@ch:
  1663                           
  1664                           ; 1 bytes @ 0x13
  1665     00C9                     	ds	1
  1666     00CA                     LCD_Printf@NumOfBinDigitsToDisplay_u8:
  1667                           
  1668                           ; 1 bytes @ 0x14
  1669     00CA                     	ds	1
  1670     00CB                     LCD_Printf@argp:
  1671                           
  1672                           ; 1 bytes @ 0x15
  1673     00CB                     	ds	1
  1674                           
  1675                           	psect	cstackCOMMON
  1676     0070                     __pcstackCOMMON:
  1677     0070                     ?_ExternalClock_Init:
  1678     0070                     ?_LCD_Clear:	
  1679                           ; 1 bytes @ 0x0
  1680                           
  1681     0070                     ?_LCD_GoToLine:	
  1682                           ; 1 bytes @ 0x0
  1683                           
  1684     0070                     ?_LCD_CMD_Write:	
  1685                           ; 1 bytes @ 0x0
  1686                           
  1687     0070                     ?_lcd_Reset:	
  1688                           ; 1 bytes @ 0x0
  1689                           
  1690     0070                     ?_lcd_BusyCheck:	
  1691                           ; 1 bytes @ 0x0
  1692                           
  1693     0070                     ?_lcd_SendLowerData:	
  1694                           ; 1 bytes @ 0x0
  1695                           
  1696     0070                     ?_lcd_SendHigherData:	
  1697                           ; 1 bytes @ 0x0
  1698                           
  1699     0070                     ?_lcd_SendCMDSignlas:	
  1700                           ; 1 bytes @ 0x0
  1701                           
  1702     0070                     ?_lcd_DataWrite:	
  1703                           ; 1 bytes @ 0x0
  1704                           
  1705     0070                     ?_lcd_SendDataSignlas:	
  1706                           ; 1 bytes @ 0x0
  1707                           
  1708     0070                     ?_IRS:	
  1709                           ; 1 bytes @ 0x0
  1710                           
  1711     0070                     ??_IRS:	
  1712                           ; 1 bytes @ 0x0
  1713                           
  1714     0070                     ?_main:	
  1715                           ; 1 bytes @ 0x0
  1716                           
  1717     0070                     ?_read_Digital:	
  1718                           ; 1 bytes @ 0x0
  1719                           
  1720     0070                     ?_LCD_GoToNextLine:	
  1721                           ; 1 bytes @ 0x0
  1722                           
  1723     0070                     ?_LCD_DisplayChar:	
  1724                           ; 1 bytes @ 0x0
  1725                           
  1726     0070                     ?_LCD_DisplayString:	
  1727                           ; 1 bytes @ 0x0
  1728                           
  1729                           
  1730                           ; 1 bytes @ 0x0
  1731     0070                     	ds	2
  1732     0072                     ??_ExternalClock_Init:
  1733     0072                     ?_Delay_us:	
  1734                           ; 1 bytes @ 0x2
  1735                           
  1736     0072                     ?_pin_Direction:	
  1737                           ; 1 bytes @ 0x2
  1738                           
  1739     0072                     ?_write_Digital:	
  1740                           ; 1 bytes @ 0x2
  1741                           
  1742     0072                     ??_read_Digital:	
  1743                           ; 1 bytes @ 0x2
  1744                           
  1745     0072                     ?__Umul8_16:	
  1746                           ; 1 bytes @ 0x2
  1747                           
  1748     0072                     ?___lldiv:	
  1749                           ; 2 bytes @ 0x2
  1750                           
  1751     0072                     ?___fladd:	
  1752                           ; 4 bytes @ 0x2
  1753                           
  1754     0072                     ?___xxtofl:	
  1755                           ; 4 bytes @ 0x2
  1756                           
  1757     0072                     pin_Direction@var_derection:	
  1758                           ; 4 bytes @ 0x2
  1759                           
  1760     0072                     write_Digital@value:	
  1761                           ; 1 bytes @ 0x2
  1762                           
  1763     0072                     __Umul8_16@multiplicand:	
  1764                           ; 1 bytes @ 0x2
  1765                           
  1766     0072                     Delay_us@us_count:	
  1767                           ; 1 bytes @ 0x2
  1768                           
  1769     0072                     ___lldiv@divisor:	
  1770                           ; 2 bytes @ 0x2
  1771                           
  1772     0072                     ___fladd@b:	
  1773                           ; 4 bytes @ 0x2
  1774                           
  1775     0072                     ___xxtofl@val:	
  1776                           ; 4 bytes @ 0x2
  1777                           
  1778                           
  1779                           ; 4 bytes @ 0x2
  1780     0072                     	ds	1
  1781     0073                     ??_pin_Direction:
  1782     0073                     ??_write_Digital:	
  1783                           ; 1 bytes @ 0x3
  1784                           
  1785                           
  1786                           ; 1 bytes @ 0x3
  1787     0073                     	ds	1
  1788     0074                     ??_Delay_us:
  1789     0074                     ??__Umul8_16:	
  1790                           ; 1 bytes @ 0x4
  1791                           
  1792     0074                     ?_Delay_ms:	
  1793                           ; 1 bytes @ 0x4
  1794                           
  1795     0074                     read_Digital@var_PortNum:	
  1796                           ; 1 bytes @ 0x4
  1797                           
  1798     0074                     Delay_ms@ms_count:	
  1799                           ; 1 bytes @ 0x4
  1800                           
  1801                           
  1802                           ; 2 bytes @ 0x4
  1803     0074                     	ds	1
  1804     0075                     pin_Direction@var_PortNumber:
  1805     0075                     write_Digital@var_PortNumber:	
  1806                           ; 1 bytes @ 0x5
  1807                           
  1808     0075                     read_Digital@returnStatus:	
  1809                           ; 1 bytes @ 0x5
  1810                           
  1811                           
  1812                           ; 1 bytes @ 0x5
  1813     0075                     	ds	1
  1814     0076                     ??_Delay_ms:
  1815     0076                     ??___fltol:	
  1816                           ; 1 bytes @ 0x6
  1817                           
  1818     0076                     ??___xxtofl:	
  1819                           ; 1 bytes @ 0x6
  1820                           
  1821     0076                     pin_Direction@var_pin:	
  1822                           ; 1 bytes @ 0x6
  1823                           
  1824     0076                     write_Digital@var_pin:	
  1825                           ; 1 bytes @ 0x6
  1826                           
  1827     0076                     read_Digital@var_pin:	
  1828                           ; 1 bytes @ 0x6
  1829                           
  1830     0076                     ___lldiv@dividend:	
  1831                           ; 1 bytes @ 0x6
  1832                           
  1833     0076                     ___fladd@a:	
  1834                           ; 4 bytes @ 0x6
  1835                           
  1836                           
  1837                           ; 4 bytes @ 0x6
  1838     0076                     	ds	1
  1839     0077                     ??_LCD_Setup:
  1840     0077                     ??_lcd_BusyCheck:	
  1841                           ; 1 bytes @ 0x7
  1842                           
  1843     0077                     ??_lcd_SendLowerData:	
  1844                           ; 1 bytes @ 0x7
  1845                           
  1846     0077                     ??_lcd_SendHigherData:	
  1847                           ; 1 bytes @ 0x7
  1848                           
  1849     0077                     ??_lcd_SendCMDSignlas:	
  1850                           ; 1 bytes @ 0x7
  1851                           
  1852     0077                     ??_lcd_SendDataSignlas:	
  1853                           ; 1 bytes @ 0x7
  1854                           
  1855     0077                     LCD_Setup@RS:	
  1856                           ; 1 bytes @ 0x7
  1857                           
  1858     0077                     lcd_BusyCheck@busyFlag:	
  1859                           ; 1 bytes @ 0x7
  1860                           
  1861     0077                     lcd_SendHigherData@dataFrame:	
  1862                           ; 1 bytes @ 0x7
  1863                           
  1864     0077                     lcd_SendLowerData@dataFrame:	
  1865                           ; 1 bytes @ 0x7
  1866                           
  1867                           
  1868                           ; 1 bytes @ 0x7
  1869     0077                     	ds	1
  1870     0078                     ??_LCD_CMD_Write:
  1871     0078                     ??_lcd_Reset:	
  1872                           ; 1 bytes @ 0x8
  1873                           
  1874     0078                     ??_lcd_DataWrite:	
  1875                           ; 1 bytes @ 0x8
  1876                           
  1877                           
  1878                           ; 1 bytes @ 0x8
  1879     0078                     	ds	1
  1880     0079                     LCD_CMD_Write@CMDFrame:
  1881     0079                     lcd_DataWrite@dataFrame:	
  1882                           ; 1 bytes @ 0x9
  1883                           
  1884                           
  1885                           ; 1 bytes @ 0x9
  1886     0079                     	ds	1
  1887     007A                     ??_LCD_Init:
  1888     007A                     ??_LCD_Clear:	
  1889                           ; 1 bytes @ 0xA
  1890                           
  1891     007A                     ??_LCD_GoToLine:	
  1892                           ; 1 bytes @ 0xA
  1893                           
  1894     007A                     ??_main:	
  1895                           ; 1 bytes @ 0xA
  1896                           
  1897     007A                     ??_LCD_GoToNextLine:	
  1898                           ; 1 bytes @ 0xA
  1899                           
  1900     007A                     ??_LCD_DisplayChar:	
  1901                           ; 1 bytes @ 0xA
  1902                           
  1903     007A                     ??_LCD_DisplayString:	
  1904                           ; 1 bytes @ 0xA
  1905                           
  1906     007A                     ??_LCD_DisplayFloatNumber:	
  1907                           ; 1 bytes @ 0xA
  1908                           
  1909     007A                     ??___bmul:	
  1910                           ; 1 bytes @ 0xA
  1911                           
  1912     007A                     ??___flsub:	
  1913                           ; 1 bytes @ 0xA
  1914                           
  1915                           
  1916                           	psect	cstackBANK0
  1917     0020                     __pcstackBANK0:	
  1918                           ; 1 bytes @ 0xA
  1919                           
  1920     0020                     ?_LCD_Setup:
  1921     0020                     ??___lldiv:	
  1922                           ; 1 bytes @ 0x0
  1923                           
  1924     0020                     ??___fladd:	
  1925                           ; 1 bytes @ 0x0
  1926                           
  1927     0020                     LCD_Setup@RW:	
  1928                           ; 1 bytes @ 0x0
  1929                           
  1930     0020                     LCD_GoToLine@var_LineNum:	
  1931                           ; 1 bytes @ 0x0
  1932                           
  1933     0020                     LCD_DisplayChar@dataFrame:	
  1934                           ; 1 bytes @ 0x0
  1935                           
  1936     0020                     ___xxtofl@sign:	
  1937                           ; 1 bytes @ 0x0
  1938                           
  1939     0020                     __Umul8_16@product:	
  1940                           ; 1 bytes @ 0x0
  1941                           
  1942                           
  1943                           ; 2 bytes @ 0x0
  1944     0020                     	ds	1
  1945     0021                     ?_LCD_Init:
  1946     0021                     LCD_Setup@EN:	
  1947                           ; 1 bytes @ 0x1
  1948                           
  1949     0021                     LCD_Init@var_maxLCDChars:	
  1950                           ; 1 bytes @ 0x1
  1951                           
  1952     0021                     LCD_DisplayString@ptr_MessagePointer:	
  1953                           ; 1 bytes @ 0x1
  1954                           
  1955     0021                     ___xxtofl@exp:	
  1956                           ; 1 bytes @ 0x1
  1957                           
  1958     0021                     ___lldiv@quotient:	
  1959                           ; 1 bytes @ 0x1
  1960                           
  1961                           
  1962                           ; 4 bytes @ 0x1
  1963     0021                     	ds	1
  1964     0022                     LCD_Setup@D0:
  1965     0022                     LCD_Init@var_maxLCDLines:	
  1966                           ; 1 bytes @ 0x2
  1967                           
  1968     0022                     __Umul8_16@word_mpld:	
  1969                           ; 1 bytes @ 0x2
  1970                           
  1971     0022                     ___xxtofl@arg:	
  1972                           ; 2 bytes @ 0x2
  1973                           
  1974                           
  1975                           ; 4 bytes @ 0x2
  1976     0022                     	ds	1
  1977     0023                     LCD_Setup@D1:
  1978                           
  1979                           ; 1 bytes @ 0x3
  1980     0023                     	ds	1
  1981     0024                     LCD_Setup@D2:
  1982     0024                     __Umul8_16@multiplier:	
  1983                           ; 1 bytes @ 0x4
  1984                           
  1985                           
  1986                           ; 1 bytes @ 0x4
  1987     0024                     	ds	1
  1988     0025                     ?___flmul:
  1989     0025                     LCD_Setup@D3:	
  1990                           ; 4 bytes @ 0x5
  1991                           
  1992     0025                     ___lldiv@counter:	
  1993                           ; 1 bytes @ 0x5
  1994                           
  1995     0025                     ___flmul@b:	
  1996                           ; 1 bytes @ 0x5
  1997                           
  1998                           
  1999                           ; 4 bytes @ 0x5
  2000     0025                     	ds	1
  2001     0026                     ?___bmul:
  2002     0026                     LCD_Setup@D4:	
  2003                           ; 1 bytes @ 0x6
  2004                           
  2005     0026                     ___bmul@multiplicand:	
  2006                           ; 1 bytes @ 0x6
  2007                           
  2008                           
  2009                           ; 1 bytes @ 0x6
  2010     0026                     	ds	1
  2011     0027                     LCD_Setup@D5:
  2012     0027                     ___bmul@product:	
  2013                           ; 1 bytes @ 0x7
  2014                           
  2015                           
  2016                           ; 1 bytes @ 0x7
  2017     0027                     	ds	1
  2018     0028                     LCD_Setup@D6:
  2019     0028                     ___bmul@multiplier:	
  2020                           ; 1 bytes @ 0x8
  2021                           
  2022     0028                     ___fladd@signs:	
  2023                           ; 1 bytes @ 0x8
  2024                           
  2025                           
  2026                           ; 1 bytes @ 0x8
  2027     0028                     	ds	1
  2028     0029                     ?_LCD_DisplayNumber:
  2029     0029                     LCD_Setup@D7:	
  2030                           ; 1 bytes @ 0x9
  2031                           
  2032     0029                     ___fladd@aexp:	
  2033                           ; 1 bytes @ 0x9
  2034                           
  2035     0029                     LCD_DisplayNumber@var_number32:	
  2036                           ; 1 bytes @ 0x9
  2037                           
  2038     0029                     ___flmul@a:	
  2039                           ; 4 bytes @ 0x9
  2040                           
  2041                           
  2042                           ; 4 bytes @ 0x9
  2043     0029                     	ds	1
  2044     002A                     ___fladd@bexp:
  2045                           
  2046                           ; 1 bytes @ 0xA
  2047     002A                     	ds	1
  2048     002B                     ___fladd@grs:
  2049                           
  2050                           ; 1 bytes @ 0xB
  2051     002B                     	ds	1
  2052     002C                     ?___flsub:
  2053     002C                     ___flsub@a:	
  2054                           ; 4 bytes @ 0xC
  2055                           
  2056                           
  2057                           ; 4 bytes @ 0xC
  2058     002C                     	ds	1
  2059     002D                     ??___flmul:
  2060     002D                     LCD_DisplayNumber@var_numOfDigitsToDisplay:	
  2061                           ; 1 bytes @ 0xD
  2062                           
  2063                           
  2064                           ; 1 bytes @ 0xD
  2065     002D                     	ds	1
  2066     002E                     ??_LCD_DisplayNumber:
  2067                           
  2068                           ; 1 bytes @ 0xE
  2069     002E                     	ds	2
  2070     0030                     ___flsub@b:
  2071                           
  2072                           ; 4 bytes @ 0x10
  2073     0030                     	ds	2
  2074     0032                     ___flmul@sign:
  2075                           
  2076                           ; 1 bytes @ 0x12
  2077     0032                     	ds	1
  2078     0033                     ___flmul@aexp:
  2079                           
  2080                           ; 1 bytes @ 0x13
  2081     0033                     	ds	1
  2082     0034                     ___flmul@grs:
  2083                           
  2084                           ; 4 bytes @ 0x14
  2085     0034                     	ds	4
  2086     0038                     ___flmul@bexp:
  2087                           
  2088                           ; 1 bytes @ 0x18
  2089     0038                     	ds	1
  2090     0039                     ___flmul@prod:
  2091     0039                     LCD_DisplayNumber@a:	
  2092                           ; 4 bytes @ 0x19
  2093                           
  2094                           
  2095                           ; 10 bytes @ 0x19
  2096     0039                     	ds	4
  2097     003D                     ___flmul@temp:
  2098                           
  2099                           ; 2 bytes @ 0x1D
  2100     003D                     	ds	2
  2101     003F                     ?___fltol:
  2102     003F                     ___fltol@f1:	
  2103                           ; 4 bytes @ 0x1F
  2104                           
  2105                           
  2106                           ; 4 bytes @ 0x1F
  2107     003F                     	ds	4
  2108     0043                     ___fltol@sign1:
  2109     0043                     _LCD_DisplayNumber$660:	
  2110                           ; 1 bytes @ 0x23
  2111                           
  2112                           
  2113                           ; 2 bytes @ 0x23
  2114     0043                     	ds	1
  2115     0044                     ___fltol@exp1:
  2116                           
  2117                           ; 1 bytes @ 0x24
  2118     0044                     	ds	1
  2119     0045                     LCD_DisplayNumber@numberic_System:
  2120                           
  2121                           ; 1 bytes @ 0x25
  2122     0045                     	ds	1
  2123     0046                     LCD_DisplayNumber@i:
  2124                           
  2125                           ; 1 bytes @ 0x26
  2126     0046                     	ds	1
  2127     0047                     ?_LCD_DisplayFloatNumber:
  2128     0047                     LCD_DisplayFloatNumber@var_number:	
  2129                           ; 1 bytes @ 0x27
  2130                           
  2131                           
  2132                           ; 4 bytes @ 0x27
  2133     0047                     	ds	4
  2134     004B                     LCD_DisplayFloatNumber@decNumber:
  2135                           
  2136                           ; 4 bytes @ 0x2B
  2137     004B                     	ds	4
  2138     004F                     ?_LCD_Printf:
  2139                           
  2140                           ; 1 bytes @ 0x2F
  2141     004F                     	ds	4
  2142     0053                     ??_LCD_Printf:
  2143                           
  2144                           ; 1 bytes @ 0x33
  2145     0053                     	ds	2
  2146                           
  2147                           	psect	maintext
  2148     080D                     __pmaintext:	
  2149 ;;
  2150 ;;Main: autosize = 0, tempsize = 0, incstack = 0, save=0
  2151 ;;
  2152 ;; *************** function _main *****************
  2153 ;; Defined at:
  2154 ;;		line 24 in file "main.c"
  2155 ;; Parameters:    Size  Location     Type
  2156 ;;		None
  2157 ;; Auto vars:     Size  Location     Type
  2158 ;;		None
  2159 ;; Return value:  Size  Location     Type
  2160 ;;                  1    wreg      void 
  2161 ;; Registers used:
  2162 ;;		wreg, fsr0l, fsr0h, status,2, status,0, btemp+1, pclath, cstack
  2163 ;; Tracked objects:
  2164 ;;		On entry : B00/0
  2165 ;;		On exit  : 0/0
  2166 ;;		Unchanged: 0/0
  2167 ;; Data sizes:     COMMON   BANK0   BANK1   BANK3   BANK2
  2168 ;;      Params:         0       0       0       0       0
  2169 ;;      Locals:         0       0       0       0       0
  2170 ;;      Temps:          0       0       0       0       0
  2171 ;;      Totals:         0       0       0       0       0
  2172 ;;Total ram usage:        0 bytes
  2173 ;; Hardware stack levels required when called: 10
  2174 ;; This function calls:
  2175 ;;		_ExternalClock_Init
  2176 ;;		_LCD_Clear
  2177 ;;		_LCD_GoToLine
  2178 ;;		_LCD_Init
  2179 ;;		_LCD_Printf
  2180 ;;		_LCD_Setup
  2181 ;; This function is called by:
  2182 ;;		Startup code after reset
  2183 ;; This function uses a non-reentrant model
  2184 ;;
  2185                           
  2186     080D                     _main:	
  2187                           ;psect for function _main
  2188                           
  2189     080D                     l6678:	
  2190                           ;incstack = 0
  2191 ;; hardware stack exceeded
  2192                           ; Regs used in _main: [wreg-fsr0h+status,2+status,0+btemp+1+pclath+cstack]
  2193                           
  2194                           
  2195                           ;main.c: 25:     ExternalClock_Init();
  2196     080D  160A  118A  2507  120A  158A  	fcall	_ExternalClock_Init
  2197     0812                     l6680:
  2198                           
  2199                           ;main.c: 26:     LCD_Setup(RD_0,R_NULL,RD_1,R_NULL,R_NULL,R_NULL,R_NULL,RC_4,RC_5,RC_6,R
      +                          C_7);
  2200     0812  30FF               	movlw	255
  2201     0813  1283               	bcf	3,5	;RP0=0, select bank0
  2202     0814  1303               	bcf	3,6	;RP1=0, select bank0
  2203     0815  00A0               	movwf	LCD_Setup@RW
  2204     0816  3019               	movlw	25
  2205     0817  00A1               	movwf	LCD_Setup@EN
  2206     0818  30FF               	movlw	255
  2207     0819  00A2               	movwf	LCD_Setup@D0
  2208     081A  30FF               	movlw	255
  2209     081B  00A3               	movwf	LCD_Setup@D1
  2210     081C  30FF               	movlw	255
  2211     081D  00A4               	movwf	LCD_Setup@D2
  2212     081E  30FF               	movlw	255
  2213     081F  00A5               	movwf	LCD_Setup@D3
  2214     0820  3014               	movlw	20
  2215     0821  00A6               	movwf	LCD_Setup@D4
  2216     0822  3015               	movlw	21
  2217     0823  00A7               	movwf	LCD_Setup@D5
  2218     0824  3016               	movlw	22
  2219     0825  00A8               	movwf	LCD_Setup@D6
  2220     0826  3017               	movlw	23
  2221     0827  00A9               	movwf	LCD_Setup@D7
  2222     0828  3018               	movlw	24
  2223     0829  120A  158A  22F4  120A  158A  	fcall	_LCD_Setup
  2224     082E                     l6682:
  2225                           
  2226                           ;main.c: 27:     LCD_Init(2,16);
  2227     082E  3010               	movlw	16
  2228     082F  1283               	bcf	3,5	;RP0=0, select bank0
  2229     0830  1303               	bcf	3,6	;RP1=0, select bank0
  2230     0831  00A1               	movwf	LCD_Init@var_maxLCDChars
  2231     0832  3002               	movlw	2
  2232     0833  160A  118A  27AE  120A  158A  	fcall	_LCD_Init
  2233     0838                     l6684:
  2234                           
  2235                           ;main.c: 28:     LCD_Clear();
  2236     0838  120A  158A  2000  120A  158A  	fcall	_LCD_Clear
  2237     083D                     l6686:
  2238                           
  2239                           ;main.c: 29:     LCD_GoToLine(0);
  2240     083D  3000               	movlw	0
  2241     083E  160A  118A  2549  120A  158A  	fcall	_LCD_GoToLine
  2242     0843                     l6688:
  2243                           
  2244                           ;main.c: 32:         LCD_Printf("TEST\nLine2");
  2245     0843  3023               	movlw	(low ((STR_1-__stringbase)| (0+32768)))& (0+255)
  2246     0844  120A  118A  237D  120A  158A  	fcall	_LCD_Printf
  2247     0849  2843               	goto	l6688
  2248     084A  120A  118A  280C   	ljmp	start
  2249     084D                     __end_of_main:
  2250                           
  2251                           	psect	text1
  2252     0AF4                     __ptext1:	
  2253 ;; *************** function _LCD_Setup *****************
  2254 ;; Defined at:
  2255 ;;		line 67 in file "../../Sources/16F887/lcd.c"
  2256 ;; Parameters:    Size  Location     Type
  2257 ;;  RS              1    wreg     enum E1462
  2258 ;;  RW              1    0[BANK0 ] enum E1462
  2259 ;;  EN              1    1[BANK0 ] enum E1462
  2260 ;;  D0              1    2[BANK0 ] enum E1462
  2261 ;;  D1              1    3[BANK0 ] enum E1462
  2262 ;;  D2              1    4[BANK0 ] enum E1462
  2263 ;;  D3              1    5[BANK0 ] enum E1462
  2264 ;;  D4              1    6[BANK0 ] enum E1462
  2265 ;;  D5              1    7[BANK0 ] enum E1462
  2266 ;;  D6              1    8[BANK0 ] enum E1462
  2267 ;;  D7              1    9[BANK0 ] enum E1462
  2268 ;; Auto vars:     Size  Location     Type
  2269 ;;  RS              1    7[COMMON] enum E1462
  2270 ;; Return value:  Size  Location     Type
  2271 ;;                  1    wreg      void 
  2272 ;; Registers used:
  2273 ;;		wreg, fsr0l, fsr0h, status,2, status,0, btemp+1, pclath, cstack
  2274 ;; Tracked objects:
  2275 ;;		On entry : 0/0
  2276 ;;		On exit  : 0/0
  2277 ;;		Unchanged: 0/0
  2278 ;; Data sizes:     COMMON   BANK0   BANK1   BANK3   BANK2
  2279 ;;      Params:         0      10       0       0       0
  2280 ;;      Locals:         1       0       0       0       0
  2281 ;;      Temps:          0       0       0       0       0
  2282 ;;      Totals:         1      10       0       0       0
  2283 ;;Total ram usage:       11 bytes
  2284 ;; Hardware stack levels used: 1
  2285 ;; Hardware stack levels required when called: 2
  2286 ;; This function calls:
  2287 ;;		_pin_Direction
  2288 ;; This function is called by:
  2289 ;;		_main
  2290 ;; This function uses a non-reentrant model
  2291 ;;
  2292                           
  2293     0AF4                     _LCD_Setup:	
  2294                           ;psect for function _LCD_Setup
  2295                           
  2296                           
  2297                           ;incstack = 0
  2298                           ; Regs used in _LCD_Setup: [wreg-fsr0h+status,2+status,0+btemp+1+pclath+cstack]
  2299                           ;LCD_Setup@RS stored from wreg
  2300     0AF4  00F7               	movwf	LCD_Setup@RS
  2301     0AF5                     l6448:
  2302                           
  2303                           ;../../Sources/16F887/lcd.c: 67: void LCD_Setup(IO_PORT RS,IO_PORT RW,IO_PORT EN,IO_PORT
      +                           D0,;../../Sources/16F887/lcd.c: 68:                 IO_PORT D1,IO_PORT D2,IO_PORT D3,IO
      +                          _PORT D4,;../../Sources/16F887/lcd.c: 69:                 IO_PORT D5,IO_PORT D6,IO_PORT 
      +                          D7){;../../Sources/16F887/lcd.c: 70:     LCDConfig.RS = RS;
  2304     0AF5  0877               	movf	LCD_Setup@RS,w
  2305     0AF6  1683               	bsf	3,5	;RP0=1, select bank1
  2306     0AF7  1303               	bcf	3,6	;RP1=0, select bank1
  2307     0AF8  00A3               	movwf	(_LCDConfig^(0+128)+3)
  2308                           
  2309                           ;../../Sources/16F887/lcd.c: 71:     LCDConfig.RW = RW;
  2310     0AF9  1283               	bcf	3,5	;RP0=0, select bank0
  2311     0AFA  1303               	bcf	3,6	;RP1=0, select bank0
  2312     0AFB  0820               	movf	LCD_Setup@RW,w
  2313     0AFC  1683               	bsf	3,5	;RP0=1, select bank1
  2314     0AFD  1303               	bcf	3,6	;RP1=0, select bank1
  2315     0AFE  00A4               	movwf	(_LCDConfig^(0+128)+4)
  2316                           
  2317                           ;../../Sources/16F887/lcd.c: 72:     LCDConfig.EN = EN;
  2318     0AFF  1283               	bcf	3,5	;RP0=0, select bank0
  2319     0B00  1303               	bcf	3,6	;RP1=0, select bank0
  2320     0B01  0821               	movf	LCD_Setup@EN,w
  2321     0B02  1683               	bsf	3,5	;RP0=1, select bank1
  2322     0B03  1303               	bcf	3,6	;RP1=0, select bank1
  2323     0B04  00A5               	movwf	(_LCDConfig^(0+128)+5)
  2324                           
  2325                           ;../../Sources/16F887/lcd.c: 73:     LCDConfig.D0 = D0;
  2326     0B05  1283               	bcf	3,5	;RP0=0, select bank0
  2327     0B06  1303               	bcf	3,6	;RP1=0, select bank0
  2328     0B07  0822               	movf	LCD_Setup@D0,w
  2329     0B08  1683               	bsf	3,5	;RP0=1, select bank1
  2330     0B09  1303               	bcf	3,6	;RP1=0, select bank1
  2331     0B0A  00A6               	movwf	(_LCDConfig^(0+128)+6)
  2332                           
  2333                           ;../../Sources/16F887/lcd.c: 74:     LCDConfig.D1 = D1;
  2334     0B0B  1283               	bcf	3,5	;RP0=0, select bank0
  2335     0B0C  1303               	bcf	3,6	;RP1=0, select bank0
  2336     0B0D  0823               	movf	LCD_Setup@D1,w
  2337     0B0E  1683               	bsf	3,5	;RP0=1, select bank1
  2338     0B0F  1303               	bcf	3,6	;RP1=0, select bank1
  2339     0B10  00A7               	movwf	(_LCDConfig^(0+128)+7)
  2340                           
  2341                           ;../../Sources/16F887/lcd.c: 75:     LCDConfig.D2 = D2;
  2342     0B11  1283               	bcf	3,5	;RP0=0, select bank0
  2343     0B12  1303               	bcf	3,6	;RP1=0, select bank0
  2344     0B13  0824               	movf	LCD_Setup@D2,w
  2345     0B14  1683               	bsf	3,5	;RP0=1, select bank1
  2346     0B15  1303               	bcf	3,6	;RP1=0, select bank1
  2347     0B16  00A8               	movwf	(_LCDConfig^(0+128)+8)
  2348                           
  2349                           ;../../Sources/16F887/lcd.c: 76:     LCDConfig.D3 = D3;
  2350     0B17  1283               	bcf	3,5	;RP0=0, select bank0
  2351     0B18  1303               	bcf	3,6	;RP1=0, select bank0
  2352     0B19  0825               	movf	LCD_Setup@D3,w
  2353     0B1A  1683               	bsf	3,5	;RP0=1, select bank1
  2354     0B1B  1303               	bcf	3,6	;RP1=0, select bank1
  2355     0B1C  00A9               	movwf	(_LCDConfig^(0+128)+9)
  2356                           
  2357                           ;../../Sources/16F887/lcd.c: 77:     LCDConfig.D4 = D4;
  2358     0B1D  1283               	bcf	3,5	;RP0=0, select bank0
  2359     0B1E  1303               	bcf	3,6	;RP1=0, select bank0
  2360     0B1F  0826               	movf	LCD_Setup@D4,w
  2361     0B20  1683               	bsf	3,5	;RP0=1, select bank1
  2362     0B21  1303               	bcf	3,6	;RP1=0, select bank1
  2363     0B22  00AA               	movwf	(_LCDConfig^(0+128)+10)
  2364                           
  2365                           ;../../Sources/16F887/lcd.c: 78:     LCDConfig.D5 = D5;
  2366     0B23  1283               	bcf	3,5	;RP0=0, select bank0
  2367     0B24  1303               	bcf	3,6	;RP1=0, select bank0
  2368     0B25  0827               	movf	LCD_Setup@D5,w
  2369     0B26  1683               	bsf	3,5	;RP0=1, select bank1
  2370     0B27  1303               	bcf	3,6	;RP1=0, select bank1
  2371     0B28  00AB               	movwf	(_LCDConfig^(0+128)+11)
  2372                           
  2373                           ;../../Sources/16F887/lcd.c: 79:     LCDConfig.D6 = D6;
  2374     0B29  1283               	bcf	3,5	;RP0=0, select bank0
  2375     0B2A  1303               	bcf	3,6	;RP1=0, select bank0
  2376     0B2B  0828               	movf	LCD_Setup@D6,w
  2377     0B2C  1683               	bsf	3,5	;RP0=1, select bank1
  2378     0B2D  1303               	bcf	3,6	;RP1=0, select bank1
  2379     0B2E  00AC               	movwf	(_LCDConfig^(0+128)+12)
  2380                           
  2381                           ;../../Sources/16F887/lcd.c: 80:     LCDConfig.D7 = D7;
  2382     0B2F  1283               	bcf	3,5	;RP0=0, select bank0
  2383     0B30  1303               	bcf	3,6	;RP1=0, select bank0
  2384     0B31  0829               	movf	LCD_Setup@D7,w
  2385     0B32  1683               	bsf	3,5	;RP0=1, select bank1
  2386     0B33  1303               	bcf	3,6	;RP1=0, select bank1
  2387     0B34  00AD               	movwf	(_LCDConfig^(0+128)+13)
  2388     0B35                     l6450:
  2389                           
  2390                           ;../../Sources/16F887/lcd.c: 81:     if((D0 == R_NULL) || (D1 == R_NULL) || (D2 == R_NUL
      +                          L) || (D3 == R_NULL)){
  2391     0B35  1283               	bcf	3,5	;RP0=0, select bank0
  2392     0B36  1303               	bcf	3,6	;RP1=0, select bank0
  2393     0B37  0A22               	incf	LCD_Setup@D0,w
  2394     0B38  1903               	btfsc	3,2
  2395     0B39  2B3B               	goto	u8821
  2396     0B3A  2B3C               	goto	u8820
  2397     0B3B                     u8821:
  2398     0B3B  2B4B               	goto	l6458
  2399     0B3C                     u8820:
  2400     0B3C                     l6452:
  2401     0B3C  0A23               	incf	LCD_Setup@D1,w
  2402     0B3D  1903               	btfsc	3,2
  2403     0B3E  2B40               	goto	u8831
  2404     0B3F  2B41               	goto	u8830
  2405     0B40                     u8831:
  2406     0B40  2B4B               	goto	l6458
  2407     0B41                     u8830:
  2408     0B41                     l6454:
  2409     0B41  0A24               	incf	LCD_Setup@D2,w
  2410     0B42  1903               	btfsc	3,2
  2411     0B43  2B45               	goto	u8841
  2412     0B44  2B46               	goto	u8840
  2413     0B45                     u8841:
  2414     0B45  2B4B               	goto	l6458
  2415     0B46                     u8840:
  2416     0B46                     l6456:
  2417     0B46  0A25               	incf	LCD_Setup@D3,w
  2418     0B47  1D03               	btfss	3,2
  2419     0B48  2B4A               	goto	u8851
  2420     0B49  2B4B               	goto	u8850
  2421     0B4A                     u8851:
  2422     0B4A  2B50               	goto	l6460
  2423     0B4B                     u8850:
  2424     0B4B                     l6458:
  2425                           
  2426                           ;../../Sources/16F887/lcd.c: 82:         LCDConfig.LcdMode = 4;
  2427     0B4B  3004               	movlw	4
  2428     0B4C  1683               	bsf	3,5	;RP0=1, select bank1
  2429     0B4D  1303               	bcf	3,6	;RP1=0, select bank1
  2430     0B4E  00A2               	movwf	(_LCDConfig^(0+128)+2)
  2431                           
  2432                           ;../../Sources/16F887/lcd.c: 83:     }else{
  2433     0B4F  2B78               	goto	l6470
  2434     0B50                     l6460:
  2435                           
  2436                           ;../../Sources/16F887/lcd.c: 84:         LCDConfig.LcdMode = 8;
  2437     0B50  3008               	movlw	8
  2438     0B51  1683               	bsf	3,5	;RP0=1, select bank1
  2439     0B52  1303               	bcf	3,6	;RP1=0, select bank1
  2440     0B53  00A2               	movwf	(_LCDConfig^(0+128)+2)
  2441     0B54                     l6462:
  2442                           
  2443                           ;../../Sources/16F887/lcd.c: 85:         pin_Direction(D0,0x00);
  2444     0B54  01F2               	clrf	pin_Direction@var_derection
  2445     0B55  1283               	bcf	3,5	;RP0=0, select bank0
  2446     0B56  1303               	bcf	3,6	;RP1=0, select bank0
  2447     0B57  0822               	movf	LCD_Setup@D0,w
  2448     0B58  120A  158A  23DA  120A  158A  	fcall	_pin_Direction
  2449     0B5D                     l6464:
  2450                           
  2451                           ;../../Sources/16F887/lcd.c: 86:         pin_Direction(D1,0x00);
  2452     0B5D  01F2               	clrf	pin_Direction@var_derection
  2453     0B5E  1283               	bcf	3,5	;RP0=0, select bank0
  2454     0B5F  1303               	bcf	3,6	;RP1=0, select bank0
  2455     0B60  0823               	movf	LCD_Setup@D1,w
  2456     0B61  120A  158A  23DA  120A  158A  	fcall	_pin_Direction
  2457     0B66                     l6466:
  2458                           
  2459                           ;../../Sources/16F887/lcd.c: 87:         pin_Direction(D2,0x00);
  2460     0B66  01F2               	clrf	pin_Direction@var_derection
  2461     0B67  1283               	bcf	3,5	;RP0=0, select bank0
  2462     0B68  1303               	bcf	3,6	;RP1=0, select bank0
  2463     0B69  0824               	movf	LCD_Setup@D2,w
  2464     0B6A  120A  158A  23DA  120A  158A  	fcall	_pin_Direction
  2465     0B6F                     l6468:
  2466                           
  2467                           ;../../Sources/16F887/lcd.c: 88:         pin_Direction(D3,0x00);
  2468     0B6F  01F2               	clrf	pin_Direction@var_derection
  2469     0B70  1283               	bcf	3,5	;RP0=0, select bank0
  2470     0B71  1303               	bcf	3,6	;RP1=0, select bank0
  2471     0B72  0825               	movf	LCD_Setup@D3,w
  2472     0B73  120A  158A  23DA  120A  158A  	fcall	_pin_Direction
  2473     0B78                     l6470:
  2474                           
  2475                           ;../../Sources/16F887/lcd.c: 90:     pin_Direction(RS,0x00);
  2476     0B78  01F2               	clrf	pin_Direction@var_derection
  2477     0B79  0877               	movf	LCD_Setup@RS,w
  2478     0B7A  120A  158A  23DA  120A  158A  	fcall	_pin_Direction
  2479     0B7F                     l6472:
  2480                           
  2481                           ;../../Sources/16F887/lcd.c: 91:     pin_Direction(RW,0x00);
  2482     0B7F  01F2               	clrf	pin_Direction@var_derection
  2483     0B80  1283               	bcf	3,5	;RP0=0, select bank0
  2484     0B81  1303               	bcf	3,6	;RP1=0, select bank0
  2485     0B82  0820               	movf	LCD_Setup@RW,w
  2486     0B83  120A  158A  23DA  120A  158A  	fcall	_pin_Direction
  2487     0B88                     l6474:
  2488                           
  2489                           ;../../Sources/16F887/lcd.c: 92:     pin_Direction(EN,0x00);
  2490     0B88  01F2               	clrf	pin_Direction@var_derection
  2491     0B89  1283               	bcf	3,5	;RP0=0, select bank0
  2492     0B8A  1303               	bcf	3,6	;RP1=0, select bank0
  2493     0B8B  0821               	movf	LCD_Setup@EN,w
  2494     0B8C  120A  158A  23DA  120A  158A  	fcall	_pin_Direction
  2495     0B91                     l6476:
  2496                           
  2497                           ;../../Sources/16F887/lcd.c: 93:     pin_Direction(D0,0x00);
  2498     0B91  01F2               	clrf	pin_Direction@var_derection
  2499     0B92  1283               	bcf	3,5	;RP0=0, select bank0
  2500     0B93  1303               	bcf	3,6	;RP1=0, select bank0
  2501     0B94  0822               	movf	LCD_Setup@D0,w
  2502     0B95  120A  158A  23DA  120A  158A  	fcall	_pin_Direction
  2503     0B9A                     l6478:
  2504                           
  2505                           ;../../Sources/16F887/lcd.c: 94:     pin_Direction(D1,0x00);
  2506     0B9A  01F2               	clrf	pin_Direction@var_derection
  2507     0B9B  1283               	bcf	3,5	;RP0=0, select bank0
  2508     0B9C  1303               	bcf	3,6	;RP1=0, select bank0
  2509     0B9D  0823               	movf	LCD_Setup@D1,w
  2510     0B9E  120A  158A  23DA  120A  158A  	fcall	_pin_Direction
  2511     0BA3                     l6480:
  2512                           
  2513                           ;../../Sources/16F887/lcd.c: 95:     pin_Direction(D2,0x00);
  2514     0BA3  01F2               	clrf	pin_Direction@var_derection
  2515     0BA4  1283               	bcf	3,5	;RP0=0, select bank0
  2516     0BA5  1303               	bcf	3,6	;RP1=0, select bank0
  2517     0BA6  0824               	movf	LCD_Setup@D2,w
  2518     0BA7  120A  158A  23DA  120A  158A  	fcall	_pin_Direction
  2519     0BAC                     l6482:
  2520                           
  2521                           ;../../Sources/16F887/lcd.c: 96:     pin_Direction(D3,0x00);
  2522     0BAC  01F2               	clrf	pin_Direction@var_derection
  2523     0BAD  1283               	bcf	3,5	;RP0=0, select bank0
  2524     0BAE  1303               	bcf	3,6	;RP1=0, select bank0
  2525     0BAF  0825               	movf	LCD_Setup@D3,w
  2526     0BB0  120A  158A  23DA  120A  158A  	fcall	_pin_Direction
  2527     0BB5                     l6484:
  2528                           
  2529                           ;../../Sources/16F887/lcd.c: 97:     pin_Direction(D4,0x00);
  2530     0BB5  01F2               	clrf	pin_Direction@var_derection
  2531     0BB6  1283               	bcf	3,5	;RP0=0, select bank0
  2532     0BB7  1303               	bcf	3,6	;RP1=0, select bank0
  2533     0BB8  0826               	movf	LCD_Setup@D4,w
  2534     0BB9  120A  158A  23DA  120A  158A  	fcall	_pin_Direction
  2535     0BBE                     l6486:
  2536                           
  2537                           ;../../Sources/16F887/lcd.c: 98:     pin_Direction(D5,0x00);
  2538     0BBE  01F2               	clrf	pin_Direction@var_derection
  2539     0BBF  1283               	bcf	3,5	;RP0=0, select bank0
  2540     0BC0  1303               	bcf	3,6	;RP1=0, select bank0
  2541     0BC1  0827               	movf	LCD_Setup@D5,w
  2542     0BC2  120A  158A  23DA  120A  158A  	fcall	_pin_Direction
  2543     0BC7                     l6488:
  2544                           
  2545                           ;../../Sources/16F887/lcd.c: 99:     pin_Direction(D6,0x00);
  2546     0BC7  01F2               	clrf	pin_Direction@var_derection
  2547     0BC8  1283               	bcf	3,5	;RP0=0, select bank0
  2548     0BC9  1303               	bcf	3,6	;RP1=0, select bank0
  2549     0BCA  0828               	movf	LCD_Setup@D6,w
  2550     0BCB  120A  158A  23DA  120A  158A  	fcall	_pin_Direction
  2551     0BD0                     l6490:
  2552                           
  2553                           ;../../Sources/16F887/lcd.c: 100:     pin_Direction(D7,0x00);
  2554     0BD0  01F2               	clrf	pin_Direction@var_derection
  2555     0BD1  1283               	bcf	3,5	;RP0=0, select bank0
  2556     0BD2  1303               	bcf	3,6	;RP1=0, select bank0
  2557     0BD3  0829               	movf	LCD_Setup@D7,w
  2558     0BD4  120A  158A  23DA  120A  158A  	fcall	_pin_Direction
  2559     0BD9                     l538:
  2560     0BD9  0008               	return
  2561     0BDA                     __end_of_LCD_Setup:
  2562                           
  2563                           	psect	text2
  2564     037D                     __ptext2:	
  2565 ;; *************** function _LCD_Printf *****************
  2566 ;; Defined at:
  2567 ;;		line 294 in file "../../Sources/16F887/lcd.c"
  2568 ;; Parameters:    Size  Location     Type
  2569 ;;  argList         1    wreg     PTR const unsigned char 
  2570 ;;		 -> STR_2(34), STR_1(11), 
  2571 ;; Auto vars:     Size  Location     Type
  2572 ;;  argList         1    5[BANK1 ] PTR const unsigned char 
  2573 ;;		 -> STR_2(34), STR_1(11), 
  2574 ;;  var_num_u32     4   12[BANK1 ] unsigned long 
  2575 ;;  var_num_s32     4    8[BANK1 ] long 
  2576 ;;  var_float_nu    4    0[BANK1 ] long 
  2577 ;;  var_num_s16     2   16[BANK1 ] int 
  2578 ;;  var_num_u16     2    6[BANK1 ] unsigned int 
  2579 ;;  argp            1   21[BANK1 ] PTR void [1]
  2580 ;;		 -> ?_LCD_Printf(1), 
  2581 ;;  NumOfBinDigi    1   20[BANK1 ] unsigned char 
  2582 ;;  ch              1   19[BANK1 ] unsigned char 
  2583 ;;  ptr             1   18[BANK1 ] PTR const unsigned char 
  2584 ;;		 -> STR_2(34), STR_1(11), 
  2585 ;;  str             1    4[BANK1 ] PTR unsigned char 
  2586 ;;		 -> ?_LCD_Printf(1), 
  2587 ;; Return value:  Size  Location     Type
  2588 ;;                  1    wreg      void 
  2589 ;; Registers used:
  2590 ;;		wreg, fsr0l, fsr0h, status,2, status,0, btemp+1, pclath, cstack
  2591 ;; Tracked objects:
  2592 ;;		On entry : 0/0
  2593 ;;		On exit  : 0/0
  2594 ;;		Unchanged: 0/0
  2595 ;; Data sizes:     COMMON   BANK0   BANK1   BANK3   BANK2
  2596 ;;      Params:         0       4       0       0       0
  2597 ;;      Locals:         0       0      22       0       0
  2598 ;;      Temps:          0       2       0       0       0
  2599 ;;      Totals:         0       6      22       0       0
  2600 ;;Total ram usage:       28 bytes
  2601 ;; Hardware stack levels used: 1
  2602 ;; Hardware stack levels required when called: 9
  2603 ;; This function calls:
  2604 ;;		_LCD_DisplayChar
  2605 ;;		_LCD_DisplayFloatNumber
  2606 ;;		_LCD_DisplayNumber
  2607 ;;		_LCD_DisplayString
  2608 ;;		___bmul
  2609 ;; This function is called by:
  2610 ;;		_main
  2611 ;;		_DS_Print_temperature
  2612 ;; This function uses a non-reentrant model
  2613 ;;
  2614                           
  2615     037D                     _LCD_Printf:	
  2616                           ;psect for function _LCD_Printf
  2617                           
  2618                           
  2619                           ;incstack = 0
  2620 ;; hardware stack exceeded
  2621                           ; Regs used in _LCD_Printf: [wreg-fsr0h+status,2+status,0+btemp+1+pclath+cstack]
  2622                           ;LCD_Printf@argList stored from wreg
  2623     037D  1683               	bsf	3,5	;RP0=1, select bank1
  2624     037E  1303               	bcf	3,6	;RP1=0, select bank1
  2625     037F  00BB               	movwf	LCD_Printf@argList^(0+128)
  2626     0380                     l6506:
  2627                           
  2628                           ;../../Sources/16F887/lcd.c: 295:     const char *ptr;;../../Sources/16F887/lcd.c: 296: 
      +                              va_list argp;;../../Sources/16F887/lcd.c: 297:     sint16_t var_num_s16;;../../Sourc
      +                          es/16F887/lcd.c: 298:     sint32_t var_num_s32;;../../Sources/16F887/lcd.c: 299:     uin
      +                          t16_t var_num_u16;;../../Sources/16F887/lcd.c: 300:     uint32_t var_num_u32;;../../Sour
      +                          ces/16F887/lcd.c: 301:     char *str;;../../Sources/16F887/lcd.c: 302:     char ch;;../.
      +                          ./Sources/16F887/lcd.c: 303:     uint8_t NumOfBinDigitsToDisplay_u8;;../../Sources/16F88
      +                          7/lcd.c: 304:     double var_float_num;
  2629     0380  304F               	movlw	(low (?_LCD_Printf| 0))& (0+255)
  2630     0381  00CB               	movwf	LCD_Printf@argp^(0+128)
  2631                           
  2632                           ;../../Sources/16F887/lcd.c: 307:     for(ptr = argList; *ptr != '\0'; ptr++){
  2633     0382  083B               	movf	LCD_Printf@argList^(0+128),w
  2634     0383  00C8               	movwf	LCD_Printf@ptr^(0+128)
  2635     0384  2E27               	goto	l6628
  2636     0385                     l6508:
  2637                           
  2638                           ;../../Sources/16F887/lcd.c: 308:         ch = *ptr;
  2639     0385  0848               	movf	LCD_Printf@ptr^(0+128),w
  2640     0386  0084               	movwf	4
  2641     0387  160A  118A  2000  120A  118A  	fcall	stringdir
  2642     038C  00C9               	movwf	LCD_Printf@ch^(0+128)
  2643     038D                     l6510:
  2644                           
  2645                           ;../../Sources/16F887/lcd.c: 309:         if(ch == '%'){
  2646     038D  3025               	movlw	37
  2647     038E  0649               	xorwf	LCD_Printf@ch^(0+128),w
  2648     038F  1D03               	btfss	3,2
  2649     0390  2B92               	goto	u8891
  2650     0391  2B93               	goto	u8890
  2651     0392                     u8891:
  2652     0392  2E1B               	goto	l6624
  2653     0393                     u8890:
  2654     0393                     l6512:
  2655                           
  2656                           ;../../Sources/16F887/lcd.c: 310:             ptr++;
  2657     0393  3001               	movlw	1
  2658     0394  00FF               	movwf	btemp+1
  2659     0395  087F               	movf	btemp+1,w
  2660     0396  07C8               	addwf	LCD_Printf@ptr^(0+128),f
  2661     0397                     l6514:
  2662                           
  2663                           ;../../Sources/16F887/lcd.c: 311:             ch=*ptr;
  2664     0397  0848               	movf	LCD_Printf@ptr^(0+128),w
  2665     0398  0084               	movwf	4
  2666     0399  160A  118A  2000  120A  118A  	fcall	stringdir
  2667     039E  00C9               	movwf	LCD_Printf@ch^(0+128)
  2668     039F                     l6516:
  2669                           
  2670                           ;../../Sources/16F887/lcd.c: 312:             if((ch >= 0x30) && (ch <= 0x39)){
  2671     039F  3030               	movlw	48
  2672     03A0  0249               	subwf	LCD_Printf@ch^(0+128),w
  2673     03A1  1C03               	skipc
  2674     03A2  2BA4               	goto	u8901
  2675     03A3  2BA5               	goto	u8900
  2676     03A4                     u8901:
  2677     03A4  2BD7               	goto	l6532
  2678     03A5                     u8900:
  2679     03A5                     l6518:
  2680     03A5  303A               	movlw	58
  2681     03A6  0249               	subwf	LCD_Printf@ch^(0+128),w
  2682     03A7  1803               	skipnc
  2683     03A8  2BAA               	goto	u8911
  2684     03A9  2BAB               	goto	u8910
  2685     03AA                     u8911:
  2686     03AA  2BD7               	goto	l6532
  2687     03AB                     u8910:
  2688     03AB                     l6520:
  2689                           
  2690                           ;../../Sources/16F887/lcd.c: 313:                 NumOfBinDigitsToDisplay_u8 = 0;
  2691     03AB  01CA               	clrf	LCD_Printf@NumOfBinDigitsToDisplay_u8^(0+128)
  2692                           
  2693                           ;../../Sources/16F887/lcd.c: 314:                 while((ch >= 0x30) && (ch <= 0x39)){
  2694     03AC  2BCA               	goto	l6528
  2695     03AD                     l6522:
  2696                           
  2697                           ;../../Sources/16F887/lcd.c: 315:                     NumOfBinDigitsToDisplay_u8 = ((Num
      +                          OfBinDigitsToDisplay_u8 * 10) + (ch - 0x30));
  2698     03AD  300A               	movlw	10
  2699     03AE  1283               	bcf	3,5	;RP0=0, select bank0
  2700     03AF  1303               	bcf	3,6	;RP1=0, select bank0
  2701     03B0  00A6               	movwf	___bmul@multiplicand
  2702     03B1  1683               	bsf	3,5	;RP0=1, select bank1
  2703     03B2  1303               	bcf	3,6	;RP1=0, select bank1
  2704     03B3  084A               	movf	LCD_Printf@NumOfBinDigitsToDisplay_u8^(0+128),w
  2705     03B4  160A  118A  2532  120A  118A  	fcall	___bmul
  2706     03B9  1683               	bsf	3,5	;RP0=1, select bank1
  2707     03BA  1303               	bcf	3,6	;RP1=0, select bank1
  2708     03BB  0749               	addwf	LCD_Printf@ch^(0+128),w
  2709     03BC  3ED0               	addlw	208
  2710     03BD  00CA               	movwf	LCD_Printf@NumOfBinDigitsToDisplay_u8^(0+128)
  2711     03BE                     l6524:
  2712                           
  2713                           ;../../Sources/16F887/lcd.c: 316:                     ptr++;
  2714     03BE  3001               	movlw	1
  2715     03BF  00FF               	movwf	btemp+1
  2716     03C0  087F               	movf	btemp+1,w
  2717     03C1  07C8               	addwf	LCD_Printf@ptr^(0+128),f
  2718     03C2                     l6526:
  2719                           
  2720                           ;../../Sources/16F887/lcd.c: 317:                     ch = *ptr;
  2721     03C2  0848               	movf	LCD_Printf@ptr^(0+128),w
  2722     03C3  0084               	movwf	4
  2723     03C4  160A  118A  2000  120A  118A  	fcall	stringdir
  2724     03C9  00C9               	movwf	LCD_Printf@ch^(0+128)
  2725     03CA                     l6528:
  2726                           
  2727                           ;../../Sources/16F887/lcd.c: 314:                 while((ch >= 0x30) && (ch <= 0x39)){
  2728     03CA  3030               	movlw	48
  2729     03CB  0249               	subwf	LCD_Printf@ch^(0+128),w
  2730     03CC  1C03               	skipc
  2731     03CD  2BCF               	goto	u8921
  2732     03CE  2BD0               	goto	u8920
  2733     03CF                     u8921:
  2734     03CF  2BDA               	goto	l634
  2735     03D0                     u8920:
  2736     03D0                     l6530:
  2737     03D0  303A               	movlw	58
  2738     03D1  0249               	subwf	LCD_Printf@ch^(0+128),w
  2739     03D2  1C03               	skipc
  2740     03D3  2BD5               	goto	u8931
  2741     03D4  2BD6               	goto	u8930
  2742     03D5                     u8931:
  2743     03D5  2BAD               	goto	l6522
  2744     03D6                     u8930:
  2745     03D6  2DE2               	goto	l6622
  2746     03D7                     l6532:
  2747                           
  2748                           ;../../Sources/16F887/lcd.c: 320:                 NumOfBinDigitsToDisplay_u8 = 0xFF;
  2749     03D7  30FF               	movlw	255
  2750     03D8  00CA               	movwf	LCD_Printf@NumOfBinDigitsToDisplay_u8^(0+128)
  2751     03D9  2DE2               	goto	l6622
  2752     03DA                     l634:	
  2753                           ;../../Sources/16F887/lcd.c: 321:             }
  2754                           
  2755                           
  2756                           ;../../Sources/16F887/lcd.c: 323:             switch(ch){
  2757     03DA  2DE2               	goto	l6622
  2758     03DB                     l6534:
  2759                           
  2760                           ;../../Sources/16F887/lcd.c: 326:                     ch = (*(int *)__va_arg((*(int **)a
      +                          rgp), (int)0));
  2761     03DB  1683               	bsf	3,5	;RP0=1, select bank1
  2762     03DC  1303               	bcf	3,6	;RP1=0, select bank1
  2763     03DD  084B               	movf	LCD_Printf@argp^(0+128),w
  2764     03DE  0084               	movwf	4
  2765     03DF  1383               	bcf	3,7	;select IRP bank0
  2766     03E0  0800               	movf	0,w
  2767     03E1  00C9               	movwf	LCD_Printf@ch^(0+128)
  2768     03E2                     l6536:
  2769     03E2  3002               	movlw	2
  2770     03E3  00FF               	movwf	btemp+1
  2771     03E4  087F               	movf	btemp+1,w
  2772     03E5  07CB               	addwf	LCD_Printf@argp^(0+128),f
  2773     03E6                     l6538:
  2774                           
  2775                           ;../../Sources/16F887/lcd.c: 327:                     LCD_DisplayChar(ch);
  2776     03E6  0849               	movf	LCD_Printf@ch^(0+128),w
  2777     03E7  160A  118A  25E7  120A  118A  	fcall	_LCD_DisplayChar
  2778                           
  2779                           ;../../Sources/16F887/lcd.c: 328:                     break;
  2780     03EC  2E21               	goto	l6626
  2781     03ED                     l6540:
  2782                           
  2783                           ;../../Sources/16F887/lcd.c: 330:                     var_num_s16 = (*(int *)__va_arg((*
      +                          (int **)argp), (int)0));
  2784     03ED  1683               	bsf	3,5	;RP0=1, select bank1
  2785     03EE  1303               	bcf	3,6	;RP1=0, select bank1
  2786     03EF  084B               	movf	LCD_Printf@argp^(0+128),w
  2787     03F0  0084               	movwf	4
  2788     03F1  1383               	bcf	3,7	;select IRP bank0
  2789     03F2  0800               	movf	0,w
  2790     03F3  00C6               	movwf	LCD_Printf@var_num_s16^(0+128)
  2791     03F4  0A84               	incf	4,f
  2792     03F5  0800               	movf	0,w
  2793     03F6  00C7               	movwf	(LCD_Printf@var_num_s16+1)^(0+128)
  2794     03F7                     l6542:
  2795     03F7  3002               	movlw	2
  2796     03F8  00FF               	movwf	btemp+1
  2797     03F9  087F               	movf	btemp+1,w
  2798     03FA  07CB               	addwf	LCD_Printf@argp^(0+128),f
  2799     03FB                     l6544:
  2800                           
  2801                           ;../../Sources/16F887/lcd.c: 331:                     if(var_num_s16 <0){
  2802     03FB  1FC7               	btfss	(LCD_Printf@var_num_s16+1)^(0+128),7
  2803     03FC  2BFE               	goto	u8941
  2804     03FD  2BFF               	goto	u8940
  2805     03FE                     u8941:
  2806     03FE  2C0A               	goto	l6550
  2807     03FF                     u8940:
  2808     03FF                     l6546:
  2809                           
  2810                           ;../../Sources/16F887/lcd.c: 332:                         var_num_s16 = -var_num_s16;
  2811     03FF  09C6               	comf	LCD_Printf@var_num_s16^(0+128),f
  2812     0400  09C7               	comf	(LCD_Printf@var_num_s16+1)^(0+128),f
  2813     0401  0AC6               	incf	LCD_Printf@var_num_s16^(0+128),f
  2814     0402  1903               	skipnz
  2815     0403  0AC7               	incf	(LCD_Printf@var_num_s16+1)^(0+128),f
  2816     0404                     l6548:
  2817                           
  2818                           ;../../Sources/16F887/lcd.c: 333:                         LCD_DisplayChar('-');
  2819     0404  302D               	movlw	45
  2820     0405  160A  118A  25E7  120A  118A  	fcall	_LCD_DisplayChar
  2821     040A                     l6550:
  2822                           
  2823                           ;../../Sources/16F887/lcd.c: 335:                     LCD_DisplayNumber(10u,var_num_s16,
      +                          NumOfBinDigitsToDisplay_u8);
  2824     040A  1683               	bsf	3,5	;RP0=1, select bank1
  2825     040B  1303               	bcf	3,6	;RP1=0, select bank1
  2826     040C  0846               	movf	LCD_Printf@var_num_s16^(0+128),w
  2827     040D  1283               	bcf	3,5	;RP0=0, select bank0
  2828     040E  1303               	bcf	3,6	;RP1=0, select bank0
  2829     040F  00A9               	movwf	LCD_DisplayNumber@var_number32
  2830     0410  1683               	bsf	3,5	;RP0=1, select bank1
  2831     0411  1303               	bcf	3,6	;RP1=0, select bank1
  2832     0412  0847               	movf	(LCD_Printf@var_num_s16+1)^(0+128),w
  2833     0413  1283               	bcf	3,5	;RP0=0, select bank0
  2834     0414  1303               	bcf	3,6	;RP1=0, select bank0
  2835     0415  00AA               	movwf	LCD_DisplayNumber@var_number32+1
  2836     0416  3000               	movlw	0
  2837     0417  1BAA               	btfsc	LCD_DisplayNumber@var_number32+1,7
  2838     0418  30FF               	movlw	255
  2839     0419  00AB               	movwf	LCD_DisplayNumber@var_number32+2
  2840     041A  00AC               	movwf	LCD_DisplayNumber@var_number32+3
  2841     041B  1683               	bsf	3,5	;RP0=1, select bank1
  2842     041C  1303               	bcf	3,6	;RP1=0, select bank1
  2843     041D  084A               	movf	LCD_Printf@NumOfBinDigitsToDisplay_u8^(0+128),w
  2844     041E  1283               	bcf	3,5	;RP0=0, select bank0
  2845     041F  1303               	bcf	3,6	;RP1=0, select bank0
  2846     0420  00AD               	movwf	LCD_DisplayNumber@var_numOfDigitsToDisplay
  2847     0421  300A               	movlw	10
  2848     0422  120A  118A  2634  120A  118A  	fcall	_LCD_DisplayNumber
  2849                           
  2850                           ;../../Sources/16F887/lcd.c: 336:                     break;
  2851     0427  2E21               	goto	l6626
  2852     0428                     l6552:
  2853                           
  2854                           ;../../Sources/16F887/lcd.c: 338:                     var_num_s32 = (*(sint32_t *)__va_a
      +                          rg((*(sint32_t **)argp), (sint32_t)0));
  2855     0428  1683               	bsf	3,5	;RP0=1, select bank1
  2856     0429  1303               	bcf	3,6	;RP1=0, select bank1
  2857     042A  084B               	movf	LCD_Printf@argp^(0+128),w
  2858     042B  0084               	movwf	4
  2859     042C  1383               	bcf	3,7	;select IRP bank0
  2860     042D  0800               	movf	0,w
  2861     042E  00BE               	movwf	LCD_Printf@var_num_s32^(0+128)
  2862     042F  0A84               	incf	4,f
  2863     0430  0800               	movf	0,w
  2864     0431  00BF               	movwf	(LCD_Printf@var_num_s32+1)^(0+128)
  2865     0432  0A84               	incf	4,f
  2866     0433  0800               	movf	0,w
  2867     0434  00C0               	movwf	(LCD_Printf@var_num_s32+2)^(0+128)
  2868     0435  0A84               	incf	4,f
  2869     0436  0800               	movf	0,w
  2870     0437  00C1               	movwf	(LCD_Printf@var_num_s32+3)^(0+128)
  2871     0438                     l6554:
  2872     0438  3004               	movlw	4
  2873     0439  00FF               	movwf	btemp+1
  2874     043A  087F               	movf	btemp+1,w
  2875     043B  07CB               	addwf	LCD_Printf@argp^(0+128),f
  2876     043C                     l6556:
  2877                           
  2878                           ;../../Sources/16F887/lcd.c: 339:                     if(var_num_s32 <0){
  2879     043C  1FC1               	btfss	(LCD_Printf@var_num_s32+3)^(0+128),7
  2880     043D  2C3F               	goto	u8951
  2881     043E  2C40               	goto	u8950
  2882     043F                     u8951:
  2883     043F  2C51               	goto	l642
  2884     0440                     u8950:
  2885     0440                     l6558:
  2886                           
  2887                           ;../../Sources/16F887/lcd.c: 340:                         var_num_s32 = - var_num_s32;
  2888     0440  09BE               	comf	LCD_Printf@var_num_s32^(0+128),f
  2889     0441  09BF               	comf	(LCD_Printf@var_num_s32+1)^(0+128),f
  2890     0442  09C0               	comf	(LCD_Printf@var_num_s32+2)^(0+128),f
  2891     0443  09C1               	comf	(LCD_Printf@var_num_s32+3)^(0+128),f
  2892     0444  0ABE               	incf	LCD_Printf@var_num_s32^(0+128),f
  2893     0445  1903               	skipnz
  2894     0446  0ABF               	incf	(LCD_Printf@var_num_s32+1)^(0+128),f
  2895     0447  1903               	skipnz
  2896     0448  0AC0               	incf	(LCD_Printf@var_num_s32+2)^(0+128),f
  2897     0449  1903               	skipnz
  2898     044A  0AC1               	incf	(LCD_Printf@var_num_s32+3)^(0+128),f
  2899     044B                     l6560:
  2900                           
  2901                           ;../../Sources/16F887/lcd.c: 341:                         LCD_DisplayChar('-');
  2902     044B  302D               	movlw	45
  2903     044C  160A  118A  25E7  120A  118A  	fcall	_LCD_DisplayChar
  2904     0451                     l642:	
  2905                           ;../../Sources/16F887/lcd.c: 342:                     }
  2906                           
  2907                           
  2908                           ;../../Sources/16F887/lcd.c: 343:                     LCD_DisplayNumber(10u,var_num_s32,
      +                          NumOfBinDigitsToDisplay_u8);
  2909     0451  1683               	bsf	3,5	;RP0=1, select bank1
  2910     0452  1303               	bcf	3,6	;RP1=0, select bank1
  2911     0453  0841               	movf	(LCD_Printf@var_num_s32+3)^(0+128),w
  2912     0454  1283               	bcf	3,5	;RP0=0, select bank0
  2913     0455  1303               	bcf	3,6	;RP1=0, select bank0
  2914     0456  00AC               	movwf	LCD_DisplayNumber@var_number32+3
  2915     0457  1683               	bsf	3,5	;RP0=1, select bank1
  2916     0458  1303               	bcf	3,6	;RP1=0, select bank1
  2917     0459  0840               	movf	(LCD_Printf@var_num_s32+2)^(0+128),w
  2918     045A  1283               	bcf	3,5	;RP0=0, select bank0
  2919     045B  1303               	bcf	3,6	;RP1=0, select bank0
  2920     045C  00AB               	movwf	LCD_DisplayNumber@var_number32+2
  2921     045D  1683               	bsf	3,5	;RP0=1, select bank1
  2922     045E  1303               	bcf	3,6	;RP1=0, select bank1
  2923     045F  083F               	movf	(LCD_Printf@var_num_s32+1)^(0+128),w
  2924     0460  1283               	bcf	3,5	;RP0=0, select bank0
  2925     0461  1303               	bcf	3,6	;RP1=0, select bank0
  2926     0462  00AA               	movwf	LCD_DisplayNumber@var_number32+1
  2927     0463  1683               	bsf	3,5	;RP0=1, select bank1
  2928     0464  1303               	bcf	3,6	;RP1=0, select bank1
  2929     0465  083E               	movf	LCD_Printf@var_num_s32^(0+128),w
  2930     0466  1283               	bcf	3,5	;RP0=0, select bank0
  2931     0467  1303               	bcf	3,6	;RP1=0, select bank0
  2932     0468  00A9               	movwf	LCD_DisplayNumber@var_number32
  2933     0469  1683               	bsf	3,5	;RP0=1, select bank1
  2934     046A  1303               	bcf	3,6	;RP1=0, select bank1
  2935     046B  084A               	movf	LCD_Printf@NumOfBinDigitsToDisplay_u8^(0+128),w
  2936     046C  1283               	bcf	3,5	;RP0=0, select bank0
  2937     046D  1303               	bcf	3,6	;RP1=0, select bank0
  2938     046E  00AD               	movwf	LCD_DisplayNumber@var_numOfDigitsToDisplay
  2939     046F  300A               	movlw	10
  2940     0470  120A  118A  2634  120A  118A  	fcall	_LCD_DisplayNumber
  2941                           
  2942                           ;../../Sources/16F887/lcd.c: 344:                     break;
  2943     0475  2E21               	goto	l6626
  2944     0476                     l6562:
  2945                           
  2946                           ;../../Sources/16F887/lcd.c: 346:                     var_num_u16 = (*(int *)__va_arg((*
      +                          (int **)argp), (int)0));
  2947     0476  1683               	bsf	3,5	;RP0=1, select bank1
  2948     0477  1303               	bcf	3,6	;RP1=0, select bank1
  2949     0478  084B               	movf	LCD_Printf@argp^(0+128),w
  2950     0479  0084               	movwf	4
  2951     047A  1383               	bcf	3,7	;select IRP bank0
  2952     047B  0800               	movf	0,w
  2953     047C  00BC               	movwf	LCD_Printf@var_num_u16^(0+128)
  2954     047D  0A84               	incf	4,f
  2955     047E  0800               	movf	0,w
  2956     047F  00BD               	movwf	(LCD_Printf@var_num_u16+1)^(0+128)
  2957     0480                     l6564:
  2958     0480  3002               	movlw	2
  2959     0481  00FF               	movwf	btemp+1
  2960     0482  087F               	movf	btemp+1,w
  2961     0483  07CB               	addwf	LCD_Printf@argp^(0+128),f
  2962     0484                     l6566:
  2963                           
  2964                           ;../../Sources/16F887/lcd.c: 347:                     LCD_DisplayNumber(10u,var_num_u16,
      +                          NumOfBinDigitsToDisplay_u8);
  2965     0484  083C               	movf	LCD_Printf@var_num_u16^(0+128),w
  2966     0485  1283               	bcf	3,5	;RP0=0, select bank0
  2967     0486  1303               	bcf	3,6	;RP1=0, select bank0
  2968     0487  00A9               	movwf	LCD_DisplayNumber@var_number32
  2969     0488  1683               	bsf	3,5	;RP0=1, select bank1
  2970     0489  1303               	bcf	3,6	;RP1=0, select bank1
  2971     048A  083D               	movf	(LCD_Printf@var_num_u16+1)^(0+128),w
  2972     048B  1283               	bcf	3,5	;RP0=0, select bank0
  2973     048C  1303               	bcf	3,6	;RP1=0, select bank0
  2974     048D  00AA               	movwf	LCD_DisplayNumber@var_number32+1
  2975     048E  01AB               	clrf	LCD_DisplayNumber@var_number32+2
  2976     048F  01AC               	clrf	LCD_DisplayNumber@var_number32+3
  2977     0490  1683               	bsf	3,5	;RP0=1, select bank1
  2978     0491  1303               	bcf	3,6	;RP1=0, select bank1
  2979     0492  084A               	movf	LCD_Printf@NumOfBinDigitsToDisplay_u8^(0+128),w
  2980     0493  1283               	bcf	3,5	;RP0=0, select bank0
  2981     0494  1303               	bcf	3,6	;RP1=0, select bank0
  2982     0495  00AD               	movwf	LCD_DisplayNumber@var_numOfDigitsToDisplay
  2983     0496  300A               	movlw	10
  2984     0497  120A  118A  2634  120A  118A  	fcall	_LCD_DisplayNumber
  2985                           
  2986                           ;../../Sources/16F887/lcd.c: 348:                     break;
  2987     049C  2E21               	goto	l6626
  2988     049D                     l6568:
  2989                           
  2990                           ;../../Sources/16F887/lcd.c: 350:                     var_num_u32 = (*(uint32_t *)__va_a
      +                          rg((*(uint32_t **)argp), (uint32_t)0));
  2991     049D  1683               	bsf	3,5	;RP0=1, select bank1
  2992     049E  1303               	bcf	3,6	;RP1=0, select bank1
  2993     049F  084B               	movf	LCD_Printf@argp^(0+128),w
  2994     04A0  0084               	movwf	4
  2995     04A1  1383               	bcf	3,7	;select IRP bank0
  2996     04A2  0800               	movf	0,w
  2997     04A3  00C2               	movwf	LCD_Printf@var_num_u32^(0+128)
  2998     04A4  0A84               	incf	4,f
  2999     04A5  0800               	movf	0,w
  3000     04A6  00C3               	movwf	(LCD_Printf@var_num_u32+1)^(0+128)
  3001     04A7  0A84               	incf	4,f
  3002     04A8  0800               	movf	0,w
  3003     04A9  00C4               	movwf	(LCD_Printf@var_num_u32+2)^(0+128)
  3004     04AA  0A84               	incf	4,f
  3005     04AB  0800               	movf	0,w
  3006     04AC  00C5               	movwf	(LCD_Printf@var_num_u32+3)^(0+128)
  3007     04AD                     l6570:
  3008     04AD  3004               	movlw	4
  3009     04AE  00FF               	movwf	btemp+1
  3010     04AF  087F               	movf	btemp+1,w
  3011     04B0  07CB               	addwf	LCD_Printf@argp^(0+128),f
  3012     04B1                     l6572:
  3013                           
  3014                           ;../../Sources/16F887/lcd.c: 351:                     LCD_DisplayNumber(10u,var_num_u32,
      +                          NumOfBinDigitsToDisplay_u8);
  3015     04B1  0845               	movf	(LCD_Printf@var_num_u32+3)^(0+128),w
  3016     04B2  1283               	bcf	3,5	;RP0=0, select bank0
  3017     04B3  1303               	bcf	3,6	;RP1=0, select bank0
  3018     04B4  00AC               	movwf	LCD_DisplayNumber@var_number32+3
  3019     04B5  1683               	bsf	3,5	;RP0=1, select bank1
  3020     04B6  1303               	bcf	3,6	;RP1=0, select bank1
  3021     04B7  0844               	movf	(LCD_Printf@var_num_u32+2)^(0+128),w
  3022     04B8  1283               	bcf	3,5	;RP0=0, select bank0
  3023     04B9  1303               	bcf	3,6	;RP1=0, select bank0
  3024     04BA  00AB               	movwf	LCD_DisplayNumber@var_number32+2
  3025     04BB  1683               	bsf	3,5	;RP0=1, select bank1
  3026     04BC  1303               	bcf	3,6	;RP1=0, select bank1
  3027     04BD  0843               	movf	(LCD_Printf@var_num_u32+1)^(0+128),w
  3028     04BE  1283               	bcf	3,5	;RP0=0, select bank0
  3029     04BF  1303               	bcf	3,6	;RP1=0, select bank0
  3030     04C0  00AA               	movwf	LCD_DisplayNumber@var_number32+1
  3031     04C1  1683               	bsf	3,5	;RP0=1, select bank1
  3032     04C2  1303               	bcf	3,6	;RP1=0, select bank1
  3033     04C3  0842               	movf	LCD_Printf@var_num_u32^(0+128),w
  3034     04C4  1283               	bcf	3,5	;RP0=0, select bank0
  3035     04C5  1303               	bcf	3,6	;RP1=0, select bank0
  3036     04C6  00A9               	movwf	LCD_DisplayNumber@var_number32
  3037     04C7  1683               	bsf	3,5	;RP0=1, select bank1
  3038     04C8  1303               	bcf	3,6	;RP1=0, select bank1
  3039     04C9  084A               	movf	LCD_Printf@NumOfBinDigitsToDisplay_u8^(0+128),w
  3040     04CA  1283               	bcf	3,5	;RP0=0, select bank0
  3041     04CB  1303               	bcf	3,6	;RP1=0, select bank0
  3042     04CC  00AD               	movwf	LCD_DisplayNumber@var_numOfDigitsToDisplay
  3043     04CD  300A               	movlw	10
  3044     04CE  120A  118A  2634  120A  118A  	fcall	_LCD_DisplayNumber
  3045                           
  3046                           ;../../Sources/16F887/lcd.c: 352:                     break;
  3047     04D3  2E21               	goto	l6626
  3048     04D4                     l6574:
  3049     04D4                     l6576:
  3050     04D4  3002               	movlw	2
  3051     04D5  00FF               	movwf	btemp+1
  3052     04D6  087F               	movf	btemp+1,w
  3053     04D7  1683               	bsf	3,5	;RP0=1, select bank1
  3054     04D8  1303               	bcf	3,6	;RP1=0, select bank1
  3055     04D9  07CB               	addwf	LCD_Printf@argp^(0+128),f
  3056     04DA                     l6578:
  3057                           
  3058                           ;../../Sources/16F887/lcd.c: 355:                     LCD_DisplayNumber(16u,var_num_s16,
      +                          NumOfBinDigitsToDisplay_u8);
  3059     04DA  0846               	movf	LCD_Printf@var_num_s16^(0+128),w
  3060     04DB  1283               	bcf	3,5	;RP0=0, select bank0
  3061     04DC  1303               	bcf	3,6	;RP1=0, select bank0
  3062     04DD  00A9               	movwf	LCD_DisplayNumber@var_number32
  3063     04DE  1683               	bsf	3,5	;RP0=1, select bank1
  3064     04DF  1303               	bcf	3,6	;RP1=0, select bank1
  3065     04E0  0847               	movf	(LCD_Printf@var_num_s16+1)^(0+128),w
  3066     04E1  1283               	bcf	3,5	;RP0=0, select bank0
  3067     04E2  1303               	bcf	3,6	;RP1=0, select bank0
  3068     04E3  00AA               	movwf	LCD_DisplayNumber@var_number32+1
  3069     04E4  3000               	movlw	0
  3070     04E5  1BAA               	btfsc	LCD_DisplayNumber@var_number32+1,7
  3071     04E6  30FF               	movlw	255
  3072     04E7  00AB               	movwf	LCD_DisplayNumber@var_number32+2
  3073     04E8  00AC               	movwf	LCD_DisplayNumber@var_number32+3
  3074     04E9  1683               	bsf	3,5	;RP0=1, select bank1
  3075     04EA  1303               	bcf	3,6	;RP1=0, select bank1
  3076     04EB  084A               	movf	LCD_Printf@NumOfBinDigitsToDisplay_u8^(0+128),w
  3077     04EC  1283               	bcf	3,5	;RP0=0, select bank0
  3078     04ED  1303               	bcf	3,6	;RP1=0, select bank0
  3079     04EE  00AD               	movwf	LCD_DisplayNumber@var_numOfDigitsToDisplay
  3080     04EF  3010               	movlw	16
  3081     04F0  120A  118A  2634  120A  118A  	fcall	_LCD_DisplayNumber
  3082                           
  3083                           ;../../Sources/16F887/lcd.c: 356:                     break;
  3084     04F5  2E21               	goto	l6626
  3085     04F6                     l6580:
  3086                           
  3087                           ;../../Sources/16F887/lcd.c: 358:                     var_num_u32 = (*(uint32_t *)__va_a
      +                          rg((*(uint32_t **)argp), (uint32_t)0));
  3088     04F6  1683               	bsf	3,5	;RP0=1, select bank1
  3089     04F7  1303               	bcf	3,6	;RP1=0, select bank1
  3090     04F8  084B               	movf	LCD_Printf@argp^(0+128),w
  3091     04F9  0084               	movwf	4
  3092     04FA  1383               	bcf	3,7	;select IRP bank0
  3093     04FB  0800               	movf	0,w
  3094     04FC  00C2               	movwf	LCD_Printf@var_num_u32^(0+128)
  3095     04FD  0A84               	incf	4,f
  3096     04FE  0800               	movf	0,w
  3097     04FF  00C3               	movwf	(LCD_Printf@var_num_u32+1)^(0+128)
  3098     0500  0A84               	incf	4,f
  3099     0501  0800               	movf	0,w
  3100     0502  00C4               	movwf	(LCD_Printf@var_num_u32+2)^(0+128)
  3101     0503  0A84               	incf	4,f
  3102     0504  0800               	movf	0,w
  3103     0505  00C5               	movwf	(LCD_Printf@var_num_u32+3)^(0+128)
  3104     0506                     l6582:
  3105     0506  3004               	movlw	4
  3106     0507  00FF               	movwf	btemp+1
  3107     0508  087F               	movf	btemp+1,w
  3108     0509  07CB               	addwf	LCD_Printf@argp^(0+128),f
  3109     050A                     l6584:
  3110                           
  3111                           ;../../Sources/16F887/lcd.c: 359:                     LCD_DisplayNumber(16u,var_num_u32,
      +                          NumOfBinDigitsToDisplay_u8);
  3112     050A  0845               	movf	(LCD_Printf@var_num_u32+3)^(0+128),w
  3113     050B  1283               	bcf	3,5	;RP0=0, select bank0
  3114     050C  1303               	bcf	3,6	;RP1=0, select bank0
  3115     050D  00AC               	movwf	LCD_DisplayNumber@var_number32+3
  3116     050E  1683               	bsf	3,5	;RP0=1, select bank1
  3117     050F  1303               	bcf	3,6	;RP1=0, select bank1
  3118     0510  0844               	movf	(LCD_Printf@var_num_u32+2)^(0+128),w
  3119     0511  1283               	bcf	3,5	;RP0=0, select bank0
  3120     0512  1303               	bcf	3,6	;RP1=0, select bank0
  3121     0513  00AB               	movwf	LCD_DisplayNumber@var_number32+2
  3122     0514  1683               	bsf	3,5	;RP0=1, select bank1
  3123     0515  1303               	bcf	3,6	;RP1=0, select bank1
  3124     0516  0843               	movf	(LCD_Printf@var_num_u32+1)^(0+128),w
  3125     0517  1283               	bcf	3,5	;RP0=0, select bank0
  3126     0518  1303               	bcf	3,6	;RP1=0, select bank0
  3127     0519  00AA               	movwf	LCD_DisplayNumber@var_number32+1
  3128     051A  1683               	bsf	3,5	;RP0=1, select bank1
  3129     051B  1303               	bcf	3,6	;RP1=0, select bank1
  3130     051C  0842               	movf	LCD_Printf@var_num_u32^(0+128),w
  3131     051D  1283               	bcf	3,5	;RP0=0, select bank0
  3132     051E  1303               	bcf	3,6	;RP1=0, select bank0
  3133     051F  00A9               	movwf	LCD_DisplayNumber@var_number32
  3134     0520  1683               	bsf	3,5	;RP0=1, select bank1
  3135     0521  1303               	bcf	3,6	;RP1=0, select bank1
  3136     0522  084A               	movf	LCD_Printf@NumOfBinDigitsToDisplay_u8^(0+128),w
  3137     0523  1283               	bcf	3,5	;RP0=0, select bank0
  3138     0524  1303               	bcf	3,6	;RP1=0, select bank0
  3139     0525  00AD               	movwf	LCD_DisplayNumber@var_numOfDigitsToDisplay
  3140     0526  3010               	movlw	16
  3141     0527  120A  118A  2634  120A  118A  	fcall	_LCD_DisplayNumber
  3142                           
  3143                           ;../../Sources/16F887/lcd.c: 360:                     break;
  3144     052C  2E21               	goto	l6626
  3145     052D                     l6586:
  3146                           
  3147                           ;../../Sources/16F887/lcd.c: 362:                     var_num_u16 = (*(int *)__va_arg((*
      +                          (int **)argp), (int)0));
  3148     052D  1683               	bsf	3,5	;RP0=1, select bank1
  3149     052E  1303               	bcf	3,6	;RP1=0, select bank1
  3150     052F  084B               	movf	LCD_Printf@argp^(0+128),w
  3151     0530  0084               	movwf	4
  3152     0531  1383               	bcf	3,7	;select IRP bank0
  3153     0532  0800               	movf	0,w
  3154     0533  00BC               	movwf	LCD_Printf@var_num_u16^(0+128)
  3155     0534  0A84               	incf	4,f
  3156     0535  0800               	movf	0,w
  3157     0536  00BD               	movwf	(LCD_Printf@var_num_u16+1)^(0+128)
  3158     0537                     l6588:
  3159     0537  3002               	movlw	2
  3160     0538  00FF               	movwf	btemp+1
  3161     0539  087F               	movf	btemp+1,w
  3162     053A  07CB               	addwf	LCD_Printf@argp^(0+128),f
  3163     053B                     l6590:
  3164                           
  3165                           ;../../Sources/16F887/lcd.c: 363:                     if(NumOfBinDigitsToDisplay_u8 == 0
      +                          xFF){
  3166     053B  0A4A               	incf	LCD_Printf@NumOfBinDigitsToDisplay_u8^(0+128),w
  3167     053C  1D03               	btfss	3,2
  3168     053D  2D3F               	goto	u8961
  3169     053E  2D40               	goto	u8960
  3170     053F                     u8961:
  3171     053F  2D42               	goto	l6594
  3172     0540                     u8960:
  3173     0540                     l6592:
  3174                           
  3175                           ;../../Sources/16F887/lcd.c: 364:                         NumOfBinDigitsToDisplay_u8 = 1
      +                          6;
  3176     0540  3010               	movlw	16
  3177     0541  00CA               	movwf	LCD_Printf@NumOfBinDigitsToDisplay_u8^(0+128)
  3178     0542                     l6594:
  3179                           
  3180                           ;../../Sources/16F887/lcd.c: 366:                     LCD_DisplayNumber(2u,var_num_u16,N
      +                          umOfBinDigitsToDisplay_u8);
  3181     0542  083C               	movf	LCD_Printf@var_num_u16^(0+128),w
  3182     0543  1283               	bcf	3,5	;RP0=0, select bank0
  3183     0544  1303               	bcf	3,6	;RP1=0, select bank0
  3184     0545  00A9               	movwf	LCD_DisplayNumber@var_number32
  3185     0546  1683               	bsf	3,5	;RP0=1, select bank1
  3186     0547  1303               	bcf	3,6	;RP1=0, select bank1
  3187     0548  083D               	movf	(LCD_Printf@var_num_u16+1)^(0+128),w
  3188     0549  1283               	bcf	3,5	;RP0=0, select bank0
  3189     054A  1303               	bcf	3,6	;RP1=0, select bank0
  3190     054B  00AA               	movwf	LCD_DisplayNumber@var_number32+1
  3191     054C  01AB               	clrf	LCD_DisplayNumber@var_number32+2
  3192     054D  01AC               	clrf	LCD_DisplayNumber@var_number32+3
  3193     054E  1683               	bsf	3,5	;RP0=1, select bank1
  3194     054F  1303               	bcf	3,6	;RP1=0, select bank1
  3195     0550  084A               	movf	LCD_Printf@NumOfBinDigitsToDisplay_u8^(0+128),w
  3196     0551  1283               	bcf	3,5	;RP0=0, select bank0
  3197     0552  1303               	bcf	3,6	;RP1=0, select bank0
  3198     0553  00AD               	movwf	LCD_DisplayNumber@var_numOfDigitsToDisplay
  3199     0554  3002               	movlw	2
  3200     0555  120A  118A  2634  120A  118A  	fcall	_LCD_DisplayNumber
  3201                           
  3202                           ;../../Sources/16F887/lcd.c: 367:                     break;
  3203     055A  2E21               	goto	l6626
  3204     055B                     l6596:
  3205                           
  3206                           ;../../Sources/16F887/lcd.c: 369:                     var_num_u32 = (*(uint32_t *)__va_a
      +                          rg((*(uint32_t **)argp), (uint32_t)0));
  3207     055B  1683               	bsf	3,5	;RP0=1, select bank1
  3208     055C  1303               	bcf	3,6	;RP1=0, select bank1
  3209     055D  084B               	movf	LCD_Printf@argp^(0+128),w
  3210     055E  0084               	movwf	4
  3211     055F  1383               	bcf	3,7	;select IRP bank0
  3212     0560  0800               	movf	0,w
  3213     0561  00C2               	movwf	LCD_Printf@var_num_u32^(0+128)
  3214     0562  0A84               	incf	4,f
  3215     0563  0800               	movf	0,w
  3216     0564  00C3               	movwf	(LCD_Printf@var_num_u32+1)^(0+128)
  3217     0565  0A84               	incf	4,f
  3218     0566  0800               	movf	0,w
  3219     0567  00C4               	movwf	(LCD_Printf@var_num_u32+2)^(0+128)
  3220     0568  0A84               	incf	4,f
  3221     0569  0800               	movf	0,w
  3222     056A  00C5               	movwf	(LCD_Printf@var_num_u32+3)^(0+128)
  3223     056B                     l6598:
  3224     056B  3004               	movlw	4
  3225     056C  00FF               	movwf	btemp+1
  3226     056D  087F               	movf	btemp+1,w
  3227     056E  07CB               	addwf	LCD_Printf@argp^(0+128),f
  3228     056F                     l6600:
  3229                           
  3230                           ;../../Sources/16F887/lcd.c: 370:                     if(NumOfBinDigitsToDisplay_u8 == 0
      +                          xFF){
  3231     056F  0A4A               	incf	LCD_Printf@NumOfBinDigitsToDisplay_u8^(0+128),w
  3232     0570  1D03               	btfss	3,2
  3233     0571  2D73               	goto	u8971
  3234     0572  2D74               	goto	u8970
  3235     0573                     u8971:
  3236     0573  2D76               	goto	l6604
  3237     0574                     u8970:
  3238     0574                     l6602:
  3239                           
  3240                           ;../../Sources/16F887/lcd.c: 371:                         NumOfBinDigitsToDisplay_u8 = 1
      +                          6;
  3241     0574  3010               	movlw	16
  3242     0575  00CA               	movwf	LCD_Printf@NumOfBinDigitsToDisplay_u8^(0+128)
  3243     0576                     l6604:
  3244                           
  3245                           ;../../Sources/16F887/lcd.c: 373:                     LCD_DisplayNumber(2u,var_num_u32,N
      +                          umOfBinDigitsToDisplay_u8);
  3246     0576  0845               	movf	(LCD_Printf@var_num_u32+3)^(0+128),w
  3247     0577  1283               	bcf	3,5	;RP0=0, select bank0
  3248     0578  1303               	bcf	3,6	;RP1=0, select bank0
  3249     0579  00AC               	movwf	LCD_DisplayNumber@var_number32+3
  3250     057A  1683               	bsf	3,5	;RP0=1, select bank1
  3251     057B  1303               	bcf	3,6	;RP1=0, select bank1
  3252     057C  0844               	movf	(LCD_Printf@var_num_u32+2)^(0+128),w
  3253     057D  1283               	bcf	3,5	;RP0=0, select bank0
  3254     057E  1303               	bcf	3,6	;RP1=0, select bank0
  3255     057F  00AB               	movwf	LCD_DisplayNumber@var_number32+2
  3256     0580  1683               	bsf	3,5	;RP0=1, select bank1
  3257     0581  1303               	bcf	3,6	;RP1=0, select bank1
  3258     0582  0843               	movf	(LCD_Printf@var_num_u32+1)^(0+128),w
  3259     0583  1283               	bcf	3,5	;RP0=0, select bank0
  3260     0584  1303               	bcf	3,6	;RP1=0, select bank0
  3261     0585  00AA               	movwf	LCD_DisplayNumber@var_number32+1
  3262     0586  1683               	bsf	3,5	;RP0=1, select bank1
  3263     0587  1303               	bcf	3,6	;RP1=0, select bank1
  3264     0588  0842               	movf	LCD_Printf@var_num_u32^(0+128),w
  3265     0589  1283               	bcf	3,5	;RP0=0, select bank0
  3266     058A  1303               	bcf	3,6	;RP1=0, select bank0
  3267     058B  00A9               	movwf	LCD_DisplayNumber@var_number32
  3268     058C  1683               	bsf	3,5	;RP0=1, select bank1
  3269     058D  1303               	bcf	3,6	;RP1=0, select bank1
  3270     058E  084A               	movf	LCD_Printf@NumOfBinDigitsToDisplay_u8^(0+128),w
  3271     058F  1283               	bcf	3,5	;RP0=0, select bank0
  3272     0590  1303               	bcf	3,6	;RP1=0, select bank0
  3273     0591  00AD               	movwf	LCD_DisplayNumber@var_numOfDigitsToDisplay
  3274     0592  3002               	movlw	2
  3275     0593  120A  118A  2634  120A  118A  	fcall	_LCD_DisplayNumber
  3276                           
  3277                           ;../../Sources/16F887/lcd.c: 374:                     break;
  3278     0598  2E21               	goto	l6626
  3279     0599                     l6606:
  3280                           
  3281                           ;../../Sources/16F887/lcd.c: 377:                     var_float_num = (*(double *)__va_a
      +                          rg((*(double **)argp), (double)0));
  3282     0599  1683               	bsf	3,5	;RP0=1, select bank1
  3283     059A  1303               	bcf	3,6	;RP1=0, select bank1
  3284     059B  084B               	movf	LCD_Printf@argp^(0+128),w
  3285     059C  0084               	movwf	4
  3286     059D  1383               	bcf	3,7	;select IRP bank0
  3287     059E  0800               	movf	0,w
  3288     059F  00B6               	movwf	LCD_Printf@var_float_num^(0+128)
  3289     05A0  0A84               	incf	4,f
  3290     05A1  0800               	movf	0,w
  3291     05A2  00B7               	movwf	(LCD_Printf@var_float_num+1)^(0+128)
  3292     05A3  0A84               	incf	4,f
  3293     05A4  0800               	movf	0,w
  3294     05A5  00B8               	movwf	(LCD_Printf@var_float_num+2)^(0+128)
  3295     05A6  0A84               	incf	4,f
  3296     05A7  0800               	movf	0,w
  3297     05A8  00B9               	movwf	(LCD_Printf@var_float_num+3)^(0+128)
  3298     05A9                     l6608:
  3299     05A9  3004               	movlw	4
  3300     05AA  00FF               	movwf	btemp+1
  3301     05AB  087F               	movf	btemp+1,w
  3302     05AC  07CB               	addwf	LCD_Printf@argp^(0+128),f
  3303     05AD                     l6610:
  3304                           
  3305                           ;../../Sources/16F887/lcd.c: 378:                     LCD_DisplayFloatNumber(var_float_n
      +                          um);
  3306     05AD  0839               	movf	(LCD_Printf@var_float_num+3)^(0+128),w
  3307     05AE  1283               	bcf	3,5	;RP0=0, select bank0
  3308     05AF  1303               	bcf	3,6	;RP1=0, select bank0
  3309     05B0  00CA               	movwf	LCD_DisplayFloatNumber@var_number+3
  3310     05B1  1683               	bsf	3,5	;RP0=1, select bank1
  3311     05B2  1303               	bcf	3,6	;RP1=0, select bank1
  3312     05B3  0838               	movf	(LCD_Printf@var_float_num+2)^(0+128),w
  3313     05B4  1283               	bcf	3,5	;RP0=0, select bank0
  3314     05B5  1303               	bcf	3,6	;RP1=0, select bank0
  3315     05B6  00C9               	movwf	LCD_DisplayFloatNumber@var_number+2
  3316     05B7  1683               	bsf	3,5	;RP0=1, select bank1
  3317     05B8  1303               	bcf	3,6	;RP1=0, select bank1
  3318     05B9  0837               	movf	(LCD_Printf@var_float_num+1)^(0+128),w
  3319     05BA  1283               	bcf	3,5	;RP0=0, select bank0
  3320     05BB  1303               	bcf	3,6	;RP1=0, select bank0
  3321     05BC  00C8               	movwf	LCD_DisplayFloatNumber@var_number+1
  3322     05BD  1683               	bsf	3,5	;RP0=1, select bank1
  3323     05BE  1303               	bcf	3,6	;RP1=0, select bank1
  3324     05BF  0836               	movf	LCD_Printf@var_float_num^(0+128),w
  3325     05C0  1283               	bcf	3,5	;RP0=0, select bank0
  3326     05C1  1303               	bcf	3,6	;RP1=0, select bank0
  3327     05C2  00C7               	movwf	LCD_DisplayFloatNumber@var_number
  3328     05C3  120A  158A  2255  120A  118A  	fcall	_LCD_DisplayFloatNumber
  3329                           
  3330                           ;../../Sources/16F887/lcd.c: 379:                     break;
  3331     05C8  2E21               	goto	l6626
  3332     05C9                     l6612:
  3333                           
  3334                           ;../../Sources/16F887/lcd.c: 382:                     str = (*(char* *)__va_arg((*(char*
      +                           **)argp), (char*)0));
  3335     05C9  1683               	bsf	3,5	;RP0=1, select bank1
  3336     05CA  1303               	bcf	3,6	;RP1=0, select bank1
  3337     05CB  084B               	movf	LCD_Printf@argp^(0+128),w
  3338     05CC  0084               	movwf	4
  3339     05CD  1383               	bcf	3,7	;select IRP bank0
  3340     05CE  0800               	movf	0,w
  3341     05CF  00BA               	movwf	LCD_Printf@str^(0+128)
  3342     05D0                     l6614:
  3343     05D0  3001               	movlw	1
  3344     05D1  00FF               	movwf	btemp+1
  3345     05D2  087F               	movf	btemp+1,w
  3346     05D3  07CB               	addwf	LCD_Printf@argp^(0+128),f
  3347     05D4                     l6616:
  3348                           
  3349                           ;../../Sources/16F887/lcd.c: 383:                     LCD_DisplayString(str);
  3350     05D4  083A               	movf	LCD_Printf@str^(0+128),w
  3351     05D5  160A  118A  257F  120A  118A  	fcall	_LCD_DisplayString
  3352                           
  3353                           ;../../Sources/16F887/lcd.c: 384:                     break;
  3354     05DA  2E21               	goto	l6626
  3355     05DB                     l6618:
  3356                           
  3357                           ;../../Sources/16F887/lcd.c: 386:                     LCD_DisplayChar('%');
  3358     05DB  3025               	movlw	37
  3359     05DC  160A  118A  25E7  120A  118A  	fcall	_LCD_DisplayChar
  3360                           
  3361                           ;../../Sources/16F887/lcd.c: 387:                     break;
  3362     05E1  2E21               	goto	l6626
  3363     05E2                     l6622:
  3364     05E2  0849               	movf	LCD_Printf@ch^(0+128),w
  3365     05E3  1283               	bcf	3,5	;RP0=0, select bank0
  3366     05E4  1303               	bcf	3,6	;RP1=0, select bank0
  3367     05E5  00D3               	movwf	??_LCD_Printf
  3368     05E6  01D4               	clrf	??_LCD_Printf+1
  3369                           
  3370                           ; Switch on 2 bytes has been partitioned into a top level switch of size 1, and 1 sub-sw
      +                          itches
  3371                           ; Switch size 1, requested type "simple"
  3372                           ; Number of cases is 1, Range of values is 0 to 0
  3373                           ; switch strategies available:
  3374                           ; Name         Instructions Cycles
  3375                           ; simple_byte            4     3 (average)
  3376                           ; direct_byte           11     8 (fixed)
  3377                           ; jumptable            260     6 (fixed)
  3378                           ;	Chosen strategy is simple_byte
  3379     05E7  0854               	movf	??_LCD_Printf+1,w
  3380     05E8  3A00               	xorlw	0	; case 0
  3381     05E9  1903               	skipnz
  3382     05EA  2DEC               	goto	l6966
  3383     05EB  2E21               	goto	l6626
  3384     05EC                     l6966:
  3385                           
  3386                           ; Switch size 1, requested type "simple"
  3387                           ; Number of cases is 15, Range of values is 37 to 120
  3388                           ; switch strategies available:
  3389                           ; Name         Instructions Cycles
  3390                           ; simple_byte           46    24 (average)
  3391                           ; direct_byte          263    11 (fixed)
  3392                           ; jumptable            263     9 (fixed)
  3393                           ;	Chosen strategy is simple_byte
  3394     05EC  0853               	movf	??_LCD_Printf,w
  3395     05ED  3A25               	xorlw	37	; case 37
  3396     05EE  1903               	skipnz
  3397     05EF  2DDB               	goto	l6618
  3398     05F0  3A67               	xorlw	103	; case 66
  3399     05F1  1903               	skipnz
  3400     05F2  2D5B               	goto	l6596
  3401     05F3  3A01               	xorlw	1	; case 67
  3402     05F4  1903               	skipnz
  3403     05F5  2BDB               	goto	l6534
  3404     05F6  3A07               	xorlw	7	; case 68
  3405     05F7  1903               	skipnz
  3406     05F8  2C28               	goto	l6552
  3407     05F9  3A02               	xorlw	2	; case 70
  3408     05FA  1903               	skipnz
  3409     05FB  2D99               	goto	l6606
  3410     05FC  3A15               	xorlw	21	; case 83
  3411     05FD  1903               	skipnz
  3412     05FE  2DC9               	goto	l6612
  3413     05FF  3A06               	xorlw	6	; case 85
  3414     0600  1903               	skipnz
  3415     0601  2C9D               	goto	l6568
  3416     0602  3A0D               	xorlw	13	; case 88
  3417     0603  1903               	skipnz
  3418     0604  2CF6               	goto	l6580
  3419     0605  3A3A               	xorlw	58	; case 98
  3420     0606  1903               	skipnz
  3421     0607  2D2D               	goto	l6586
  3422     0608  3A01               	xorlw	1	; case 99
  3423     0609  1903               	skipnz
  3424     060A  2BDB               	goto	l6534
  3425     060B  3A07               	xorlw	7	; case 100
  3426     060C  1903               	skipnz
  3427     060D  2BED               	goto	l6540
  3428     060E  3A02               	xorlw	2	; case 102
  3429     060F  1903               	skipnz
  3430     0610  2D99               	goto	l6606
  3431     0611  3A15               	xorlw	21	; case 115
  3432     0612  1903               	skipnz
  3433     0613  2DC9               	goto	l6612
  3434     0614  3A06               	xorlw	6	; case 117
  3435     0615  1903               	skipnz
  3436     0616  2C76               	goto	l6562
  3437     0617  3A0D               	xorlw	13	; case 120
  3438     0618  1903               	skipnz
  3439     0619  2CD4               	goto	l6574
  3440     061A  2E21               	goto	l6626
  3441     061B                     l6624:
  3442                           
  3443                           ;../../Sources/16F887/lcd.c: 390:             LCD_DisplayChar(ch);
  3444     061B  0849               	movf	LCD_Printf@ch^(0+128),w
  3445     061C  160A  118A  25E7  120A  118A  	fcall	_LCD_DisplayChar
  3446     0621                     l6626:
  3447                           
  3448                           ;../../Sources/16F887/lcd.c: 392:     }
  3449     0621  3001               	movlw	1
  3450     0622  00FF               	movwf	btemp+1
  3451     0623  087F               	movf	btemp+1,w
  3452     0624  1683               	bsf	3,5	;RP0=1, select bank1
  3453     0625  1303               	bcf	3,6	;RP1=0, select bank1
  3454     0626  07C8               	addwf	LCD_Printf@ptr^(0+128),f
  3455     0627                     l6628:
  3456     0627  0848               	movf	LCD_Printf@ptr^(0+128),w
  3457     0628  0084               	movwf	4
  3458     0629  160A  118A  2000  120A  118A  	fcall	stringdir
  3459     062E  3A00               	xorlw	0
  3460     062F  1D03               	skipz
  3461     0630  2E32               	goto	u8981
  3462     0631  2E33               	goto	u8980
  3463     0632                     u8981:
  3464     0632  2B85               	goto	l6508
  3465     0633                     u8980:
  3466     0633                     l658:
  3467     0633  0008               	return
  3468     0634                     __end_of_LCD_Printf:
  3469                           
  3470                           	psect	text3
  3471     157F                     __ptext3:	
  3472 ;; *************** function _LCD_DisplayString *****************
  3473 ;; Defined at:
  3474 ;;		line 208 in file "../../Sources/16F887/lcd.c"
  3475 ;; Parameters:    Size  Location     Type
  3476 ;;  ptr_MessageP    1    wreg     PTR const unsigned char 
  3477 ;;		 -> ?_LCD_Printf(1), 
  3478 ;; Auto vars:     Size  Location     Type
  3479 ;;  ptr_MessageP    1    1[BANK0 ] PTR const unsigned char 
  3480 ;;		 -> ?_LCD_Printf(1), 
  3481 ;; Return value:  Size  Location     Type
  3482 ;;                  1    wreg      void 
  3483 ;; Registers used:
  3484 ;;		wreg, fsr0l, fsr0h, status,2, status,0, btemp+1, pclath, cstack
  3485 ;; Tracked objects:
  3486 ;;		On entry : 0/0
  3487 ;;		On exit  : 0/0
  3488 ;;		Unchanged: 0/0
  3489 ;; Data sizes:     COMMON   BANK0   BANK1   BANK3   BANK2
  3490 ;;      Params:         0       0       0       0       0
  3491 ;;      Locals:         0       1       0       0       0
  3492 ;;      Temps:          0       0       0       0       0
  3493 ;;      Totals:         0       1       0       0       0
  3494 ;;Total ram usage:        1 bytes
  3495 ;; Hardware stack levels used: 1
  3496 ;; Hardware stack levels required when called: 7
  3497 ;; This function calls:
  3498 ;;		_LCD_DisplayChar
  3499 ;; This function is called by:
  3500 ;;		_LCD_Printf
  3501 ;; This function uses a non-reentrant model
  3502 ;;
  3503                           
  3504     157F                     _LCD_DisplayString:	
  3505                           ;psect for function _LCD_DisplayString
  3506                           
  3507                           
  3508                           ;incstack = 0
  3509 ;; hardware stack exceeded
  3510                           ; Regs used in _LCD_DisplayString: [wreg-fsr0h+status,2+status,0+btemp+1+pclath+cstack]
  3511                           ;LCD_DisplayString@ptr_MessagePointer stored from wreg
  3512     157F  1283               	bcf	3,5	;RP0=0, select bank0
  3513     1580  1303               	bcf	3,6	;RP1=0, select bank0
  3514     1581  00A1               	movwf	LCD_DisplayString@ptr_MessagePointer
  3515     1582                     l6432:
  3516                           
  3517                           ;../../Sources/16F887/lcd.c: 209:     while((*ptr_MessagePointer) !=0){
  3518     1582  2D91               	goto	l6438
  3519     1583                     l6434:
  3520                           
  3521                           ;../../Sources/16F887/lcd.c: 210:         LCD_DisplayChar(*ptr_MessagePointer++);
  3522     1583  0821               	movf	LCD_DisplayString@ptr_MessagePointer,w
  3523     1584  0084               	movwf	4
  3524     1585  0800               	movf	0,w
  3525     1586  160A  118A  25E7  160A  118A  	fcall	_LCD_DisplayChar
  3526     158B                     l6436:
  3527     158B  3001               	movlw	1
  3528     158C  00FF               	movwf	btemp+1
  3529     158D  087F               	movf	btemp+1,w
  3530     158E  1283               	bcf	3,5	;RP0=0, select bank0
  3531     158F  1303               	bcf	3,6	;RP1=0, select bank0
  3532     1590  07A1               	addwf	LCD_DisplayString@ptr_MessagePointer,f
  3533     1591                     l6438:
  3534                           
  3535                           ;../../Sources/16F887/lcd.c: 209:     while((*ptr_MessagePointer) !=0){
  3536     1591  0821               	movf	LCD_DisplayString@ptr_MessagePointer,w
  3537     1592  0084               	movwf	4
  3538     1593  1383               	bcf	3,7	;select IRP bank0
  3539     1594  0800               	movf	0,w
  3540     1595  1D03               	btfss	3,2
  3541     1596  2D98               	goto	u8811
  3542     1597  2D99               	goto	u8810
  3543     1598                     u8811:
  3544     1598  2D83               	goto	l6434
  3545     1599                     u8810:
  3546     1599                     l578:
  3547     1599  0008               	return
  3548     159A                     __end_of_LCD_DisplayString:
  3549                           
  3550                           	psect	text4
  3551     0A55                     __ptext4:	
  3552 ;; *************** function _LCD_DisplayFloatNumber *****************
  3553 ;; Defined at:
  3554 ;;		line 279 in file "../../Sources/16F887/lcd.c"
  3555 ;; Parameters:    Size  Location     Type
  3556 ;;  var_number      4   39[BANK0 ] void 
  3557 ;; Auto vars:     Size  Location     Type
  3558 ;;  decNumber       4   43[BANK0 ] unsigned long 
  3559 ;; Return value:  Size  Location     Type
  3560 ;;                  1    wreg      void 
  3561 ;; Registers used:
  3562 ;;		wreg, fsr0l, fsr0h, status,2, status,0, btemp+1, pclath, cstack
  3563 ;; Tracked objects:
  3564 ;;		On entry : 0/0
  3565 ;;		On exit  : 0/0
  3566 ;;		Unchanged: 0/0
  3567 ;; Data sizes:     COMMON   BANK0   BANK1   BANK3   BANK2
  3568 ;;      Params:         0       4       0       0       0
  3569 ;;      Locals:         0       4       0       0       0
  3570 ;;      Temps:          0       0       0       0       0
  3571 ;;      Totals:         0       8       0       0       0
  3572 ;;Total ram usage:        8 bytes
  3573 ;; Hardware stack levels used: 1
  3574 ;; Hardware stack levels required when called: 8
  3575 ;; This function calls:
  3576 ;;		_LCD_DisplayChar
  3577 ;;		_LCD_DisplayNumber
  3578 ;;		___flmul
  3579 ;;		___flsub
  3580 ;;		___fltol
  3581 ;;		___xxtofl
  3582 ;; This function is called by:
  3583 ;;		_LCD_Printf
  3584 ;; This function uses a non-reentrant model
  3585 ;;
  3586                           
  3587     0A55                     _LCD_DisplayFloatNumber:	
  3588                           ;psect for function _LCD_DisplayFloatNumber
  3589                           
  3590     0A55                     l6440:	
  3591                           ;incstack = 0
  3592 ;; hardware stack exceeded
  3593                           ; Regs used in _LCD_DisplayFloatNumber: [wreg-fsr0h+status,2+status,0+btemp+1+pclath+cst
      +                          ack]
  3594                           
  3595                           
  3596                           ;../../Sources/16F887/lcd.c: 280:     uint32_t decNumber;;../../Sources/16F887/lcd.c: 28
      +                          1:     decNumber = (uint32_t) var_number;
  3597     0A55  1283               	bcf	3,5	;RP0=0, select bank0
  3598     0A56  1303               	bcf	3,6	;RP1=0, select bank0
  3599     0A57  084A               	movf	LCD_DisplayFloatNumber@var_number+3,w
  3600     0A58  00C2               	movwf	___fltol@f1+3
  3601     0A59  0849               	movf	LCD_DisplayFloatNumber@var_number+2,w
  3602     0A5A  00C1               	movwf	___fltol@f1+2
  3603     0A5B  0848               	movf	LCD_DisplayFloatNumber@var_number+1,w
  3604     0A5C  00C0               	movwf	___fltol@f1+1
  3605     0A5D  0847               	movf	LCD_DisplayFloatNumber@var_number,w
  3606     0A5E  00BF               	movwf	___fltol@f1
  3607     0A5F  120A  158A  20B5  120A  158A  	fcall	___fltol
  3608     0A64  1283               	bcf	3,5	;RP0=0, select bank0
  3609     0A65  1303               	bcf	3,6	;RP1=0, select bank0
  3610     0A66  0842               	movf	?___fltol+3,w
  3611     0A67  00CE               	movwf	LCD_DisplayFloatNumber@decNumber+3
  3612     0A68  0841               	movf	?___fltol+2,w
  3613     0A69  00CD               	movwf	LCD_DisplayFloatNumber@decNumber+2
  3614     0A6A  0840               	movf	?___fltol+1,w
  3615     0A6B  00CC               	movwf	LCD_DisplayFloatNumber@decNumber+1
  3616     0A6C  083F               	movf	?___fltol,w
  3617     0A6D  00CB               	movwf	LCD_DisplayFloatNumber@decNumber
  3618     0A6E                     l6442:
  3619                           
  3620                           ;../../Sources/16F887/lcd.c: 282:     LCD_DisplayNumber(10u,decNumber,0xFF);
  3621     0A6E  084E               	movf	LCD_DisplayFloatNumber@decNumber+3,w
  3622     0A6F  00AC               	movwf	LCD_DisplayNumber@var_number32+3
  3623     0A70  084D               	movf	LCD_DisplayFloatNumber@decNumber+2,w
  3624     0A71  00AB               	movwf	LCD_DisplayNumber@var_number32+2
  3625     0A72  084C               	movf	LCD_DisplayFloatNumber@decNumber+1,w
  3626     0A73  00AA               	movwf	LCD_DisplayNumber@var_number32+1
  3627     0A74  084B               	movf	LCD_DisplayFloatNumber@decNumber,w
  3628     0A75  00A9               	movwf	LCD_DisplayNumber@var_number32
  3629     0A76  30FF               	movlw	255
  3630     0A77  00AD               	movwf	LCD_DisplayNumber@var_numOfDigitsToDisplay
  3631     0A78  300A               	movlw	10
  3632     0A79  120A  118A  2634  120A  158A  	fcall	_LCD_DisplayNumber
  3633     0A7E                     l6444:
  3634                           
  3635                           ;../../Sources/16F887/lcd.c: 283:     LCD_DisplayChar('.');
  3636     0A7E  302E               	movlw	46
  3637     0A7F  160A  118A  25E7  120A  158A  	fcall	_LCD_DisplayChar
  3638                           
  3639                           ;../../Sources/16F887/lcd.c: 284:     var_number = var_number - decNumber;
  3640     0A84  1283               	bcf	3,5	;RP0=0, select bank0
  3641     0A85  1303               	bcf	3,6	;RP1=0, select bank0
  3642     0A86  084E               	movf	LCD_DisplayFloatNumber@decNumber+3,w
  3643     0A87  00F5               	movwf	___xxtofl@val+3
  3644     0A88  084D               	movf	LCD_DisplayFloatNumber@decNumber+2,w
  3645     0A89  00F4               	movwf	___xxtofl@val+2
  3646     0A8A  084C               	movf	LCD_DisplayFloatNumber@decNumber+1,w
  3647     0A8B  00F3               	movwf	___xxtofl@val+1
  3648     0A8C  084B               	movf	LCD_DisplayFloatNumber@decNumber,w
  3649     0A8D  00F2               	movwf	___xxtofl@val
  3650     0A8E  3000               	movlw	0
  3651     0A8F  120A  118A  2737  120A  158A  	fcall	___xxtofl
  3652     0A94  0875               	movf	?___xxtofl+3,w
  3653     0A95  1283               	bcf	3,5	;RP0=0, select bank0
  3654     0A96  1303               	bcf	3,6	;RP1=0, select bank0
  3655     0A97  00AF               	movwf	___flsub@a+3
  3656     0A98  0874               	movf	?___xxtofl+2,w
  3657     0A99  00AE               	movwf	___flsub@a+2
  3658     0A9A  0873               	movf	?___xxtofl+1,w
  3659     0A9B  00AD               	movwf	___flsub@a+1
  3660     0A9C  0872               	movf	?___xxtofl,w
  3661     0A9D  00AC               	movwf	___flsub@a
  3662     0A9E  084A               	movf	LCD_DisplayFloatNumber@var_number+3,w
  3663     0A9F  00B3               	movwf	___flsub@b+3
  3664     0AA0  0849               	movf	LCD_DisplayFloatNumber@var_number+2,w
  3665     0AA1  00B2               	movwf	___flsub@b+2
  3666     0AA2  0848               	movf	LCD_DisplayFloatNumber@var_number+1,w
  3667     0AA3  00B1               	movwf	___flsub@b+1
  3668     0AA4  0847               	movf	LCD_DisplayFloatNumber@var_number,w
  3669     0AA5  00B0               	movwf	___flsub@b
  3670     0AA6  160A  118A  259A  120A  158A  	fcall	___flsub
  3671     0AAB  1283               	bcf	3,5	;RP0=0, select bank0
  3672     0AAC  1303               	bcf	3,6	;RP1=0, select bank0
  3673     0AAD  082F               	movf	?___flsub+3,w
  3674     0AAE  00CA               	movwf	LCD_DisplayFloatNumber@var_number+3
  3675     0AAF  082E               	movf	?___flsub+2,w
  3676     0AB0  00C9               	movwf	LCD_DisplayFloatNumber@var_number+2
  3677     0AB1  082D               	movf	?___flsub+1,w
  3678     0AB2  00C8               	movwf	LCD_DisplayFloatNumber@var_number+1
  3679     0AB3  082C               	movf	?___flsub,w
  3680     0AB4  00C7               	movwf	LCD_DisplayFloatNumber@var_number
  3681                           
  3682                           ;../../Sources/16F887/lcd.c: 285:     decNumber = var_number * 1000000;
  3683     0AB5  084A               	movf	LCD_DisplayFloatNumber@var_number+3,w
  3684     0AB6  00AC               	movwf	___flmul@a+3
  3685     0AB7  0849               	movf	LCD_DisplayFloatNumber@var_number+2,w
  3686     0AB8  00AB               	movwf	___flmul@a+2
  3687     0AB9  0848               	movf	LCD_DisplayFloatNumber@var_number+1,w
  3688     0ABA  00AA               	movwf	___flmul@a+1
  3689     0ABB  0847               	movf	LCD_DisplayFloatNumber@var_number,w
  3690     0ABC  00A9               	movwf	___flmul@a
  3691     0ABD  3049               	movlw	73
  3692     0ABE  00A8               	movwf	___flmul@b+3
  3693     0ABF  3074               	movlw	116
  3694     0AC0  00A7               	movwf	___flmul@b+2
  3695     0AC1  3024               	movlw	36
  3696     0AC2  00A6               	movwf	___flmul@b+1
  3697     0AC3  3000               	movlw	0
  3698     0AC4  00A5               	movwf	___flmul@b
  3699     0AC5  120A  118A  2038  120A  158A  	fcall	___flmul
  3700     0ACA  1283               	bcf	3,5	;RP0=0, select bank0
  3701     0ACB  1303               	bcf	3,6	;RP1=0, select bank0
  3702     0ACC  0828               	movf	?___flmul+3,w
  3703     0ACD  00C2               	movwf	___fltol@f1+3
  3704     0ACE  0827               	movf	?___flmul+2,w
  3705     0ACF  00C1               	movwf	___fltol@f1+2
  3706     0AD0  0826               	movf	?___flmul+1,w
  3707     0AD1  00C0               	movwf	___fltol@f1+1
  3708     0AD2  0825               	movf	?___flmul,w
  3709     0AD3  00BF               	movwf	___fltol@f1
  3710     0AD4  120A  158A  20B5  120A  158A  	fcall	___fltol
  3711     0AD9  1283               	bcf	3,5	;RP0=0, select bank0
  3712     0ADA  1303               	bcf	3,6	;RP1=0, select bank0
  3713     0ADB  0842               	movf	?___fltol+3,w
  3714     0ADC  00CE               	movwf	LCD_DisplayFloatNumber@decNumber+3
  3715     0ADD  0841               	movf	?___fltol+2,w
  3716     0ADE  00CD               	movwf	LCD_DisplayFloatNumber@decNumber+2
  3717     0ADF  0840               	movf	?___fltol+1,w
  3718     0AE0  00CC               	movwf	LCD_DisplayFloatNumber@decNumber+1
  3719     0AE1  083F               	movf	?___fltol,w
  3720     0AE2  00CB               	movwf	LCD_DisplayFloatNumber@decNumber
  3721     0AE3                     l6446:
  3722                           
  3723                           ;../../Sources/16F887/lcd.c: 286:     LCD_DisplayNumber(10u,decNumber,0xFF);
  3724     0AE3  084E               	movf	LCD_DisplayFloatNumber@decNumber+3,w
  3725     0AE4  00AC               	movwf	LCD_DisplayNumber@var_number32+3
  3726     0AE5  084D               	movf	LCD_DisplayFloatNumber@decNumber+2,w
  3727     0AE6  00AB               	movwf	LCD_DisplayNumber@var_number32+2
  3728     0AE7  084C               	movf	LCD_DisplayFloatNumber@decNumber+1,w
  3729     0AE8  00AA               	movwf	LCD_DisplayNumber@var_number32+1
  3730     0AE9  084B               	movf	LCD_DisplayFloatNumber@decNumber,w
  3731     0AEA  00A9               	movwf	LCD_DisplayNumber@var_number32
  3732     0AEB  30FF               	movlw	255
  3733     0AEC  00AD               	movwf	LCD_DisplayNumber@var_numOfDigitsToDisplay
  3734     0AED  300A               	movlw	10
  3735     0AEE  120A  118A  2634  120A  158A  	fcall	_LCD_DisplayNumber
  3736     0AF3                     l622:
  3737     0AF3  0008               	return
  3738     0AF4                     __end_of_LCD_DisplayFloatNumber:
  3739                           
  3740                           	psect	text5
  3741     0737                     __ptext5:	
  3742 ;; *************** function ___xxtofl *****************
  3743 ;; Defined at:
  3744 ;;		line 10 in file "E:\Microchip\xc8\v2.41\pic\sources\c90\common\xxtofl.c"
  3745 ;; Parameters:    Size  Location     Type
  3746 ;;  sign            1    wreg     unsigned char 
  3747 ;;  val             4    2[COMMON] long 
  3748 ;; Auto vars:     Size  Location     Type
  3749 ;;  sign            1    0[BANK0 ] unsigned char 
  3750 ;;  arg             4    2[BANK0 ] unsigned long 
  3751 ;;  exp             1    1[BANK0 ] unsigned char 
  3752 ;; Return value:  Size  Location     Type
  3753 ;;                  4    2[COMMON] unsigned char 
  3754 ;; Registers used:
  3755 ;;		wreg, status,2, status,0, btemp+1
  3756 ;; Tracked objects:
  3757 ;;		On entry : 0/0
  3758 ;;		On exit  : 0/0
  3759 ;;		Unchanged: 0/0
  3760 ;; Data sizes:     COMMON   BANK0   BANK1   BANK3   BANK2
  3761 ;;      Params:         4       0       0       0       0
  3762 ;;      Locals:         0       6       0       0       0
  3763 ;;      Temps:          4       0       0       0       0
  3764 ;;      Totals:         8       6       0       0       0
  3765 ;;Total ram usage:       14 bytes
  3766 ;; Hardware stack levels used: 1
  3767 ;; Hardware stack levels required when called: 1
  3768 ;; This function calls:
  3769 ;;		Nothing
  3770 ;; This function is called by:
  3771 ;;		_LCD_DisplayFloatNumber
  3772 ;;		_DS_Read_temperature
  3773 ;; This function uses a non-reentrant model
  3774 ;;
  3775                           
  3776     0737                     ___xxtofl:	
  3777                           ;psect for function ___xxtofl
  3778                           
  3779                           
  3780                           ;incstack = 0
  3781                           ; Regs used in ___xxtofl: [wreg+status,2+status,0+btemp+1]
  3782                           ;___xxtofl@sign stored from wreg
  3783     0737  1283               	bcf	3,5	;RP0=0, select bank0
  3784     0738  1303               	bcf	3,6	;RP1=0, select bank0
  3785     0739  00A0               	movwf	___xxtofl@sign
  3786     073A                     l6364:
  3787     073A  0820               	movf	___xxtofl@sign,w
  3788     073B  1903               	btfsc	3,2
  3789     073C  2F3E               	goto	u8671
  3790     073D  2F3F               	goto	u8670
  3791     073E                     u8671:
  3792     073E  2F53               	goto	l6370
  3793     073F                     u8670:
  3794     073F                     l6366:
  3795     073F  1FF5               	btfss	___xxtofl@val+3,7
  3796     0740  2F42               	goto	u8681
  3797     0741  2F43               	goto	u8680
  3798     0742                     u8681:
  3799     0742  2F53               	goto	l6370
  3800     0743                     u8680:
  3801     0743                     l6368:
  3802     0743  0972               	comf	___xxtofl@val,w
  3803     0744  00A2               	movwf	___xxtofl@arg
  3804     0745  0973               	comf	___xxtofl@val+1,w
  3805     0746  00A3               	movwf	___xxtofl@arg+1
  3806     0747  0974               	comf	___xxtofl@val+2,w
  3807     0748  00A4               	movwf	___xxtofl@arg+2
  3808     0749  0975               	comf	___xxtofl@val+3,w
  3809     074A  00A5               	movwf	___xxtofl@arg+3
  3810     074B  0AA2               	incf	___xxtofl@arg,f
  3811     074C  1903               	skipnz
  3812     074D  0AA3               	incf	___xxtofl@arg+1,f
  3813     074E  1903               	skipnz
  3814     074F  0AA4               	incf	___xxtofl@arg+2,f
  3815     0750  1903               	skipnz
  3816     0751  0AA5               	incf	___xxtofl@arg+3,f
  3817     0752  2F5B               	goto	l1691
  3818     0753                     l6370:
  3819     0753  0875               	movf	___xxtofl@val+3,w
  3820     0754  00A5               	movwf	___xxtofl@arg+3
  3821     0755  0874               	movf	___xxtofl@val+2,w
  3822     0756  00A4               	movwf	___xxtofl@arg+2
  3823     0757  0873               	movf	___xxtofl@val+1,w
  3824     0758  00A3               	movwf	___xxtofl@arg+1
  3825     0759  0872               	movf	___xxtofl@val,w
  3826     075A  00A2               	movwf	___xxtofl@arg
  3827     075B                     l1691:
  3828     075B  0875               	movf	___xxtofl@val+3,w
  3829     075C  0474               	iorwf	___xxtofl@val+2,w
  3830     075D  0473               	iorwf	___xxtofl@val+1,w
  3831     075E  0472               	iorwf	___xxtofl@val,w
  3832     075F  1D03               	skipz
  3833     0760  2F62               	goto	u8691
  3834     0761  2F63               	goto	u8690
  3835     0762                     u8691:
  3836     0762  2F6C               	goto	l6376
  3837     0763                     u8690:
  3838     0763                     l6372:
  3839     0763  3000               	movlw	0
  3840     0764  00F5               	movwf	?___xxtofl+3
  3841     0765  3000               	movlw	0
  3842     0766  00F4               	movwf	?___xxtofl+2
  3843     0767  3000               	movlw	0
  3844     0768  00F3               	movwf	?___xxtofl+1
  3845     0769  3000               	movlw	0
  3846     076A  00F2               	movwf	?___xxtofl
  3847     076B  2FF0               	goto	l1693
  3848     076C                     l6376:
  3849     076C  3096               	movlw	150
  3850     076D  00A1               	movwf	___xxtofl@exp
  3851     076E  2F7C               	goto	l6382
  3852     076F                     l6378:
  3853     076F  3001               	movlw	1
  3854     0770  00FF               	movwf	btemp+1
  3855     0771  087F               	movf	btemp+1,w
  3856     0772  07A1               	addwf	___xxtofl@exp,f
  3857     0773                     l6380:
  3858     0773  3001               	movlw	1
  3859     0774                     u8705:
  3860     0774  1003               	clrc
  3861     0775  0CA5               	rrf	___xxtofl@arg+3,f
  3862     0776  0CA4               	rrf	___xxtofl@arg+2,f
  3863     0777  0CA3               	rrf	___xxtofl@arg+1,f
  3864     0778  0CA2               	rrf	___xxtofl@arg,f
  3865     0779  3EFF               	addlw	-1
  3866     077A  1D03               	skipz
  3867     077B  2F74               	goto	u8705
  3868     077C                     l6382:
  3869     077C  30FE               	movlw	254
  3870     077D  0525               	andwf	___xxtofl@arg+3,w
  3871     077E  1D03               	btfss	3,2
  3872     077F  2F81               	goto	u8711
  3873     0780  2F82               	goto	u8710
  3874     0781                     u8711:
  3875     0781  2F6F               	goto	l6378
  3876     0782                     u8710:
  3877     0782  2F9E               	goto	l6390
  3878     0783                     l6384:
  3879     0783  3001               	movlw	1
  3880     0784  00FF               	movwf	btemp+1
  3881     0785  087F               	movf	btemp+1,w
  3882     0786  07A1               	addwf	___xxtofl@exp,f
  3883     0787                     l6386:
  3884     0787  3001               	movlw	1
  3885     0788  07A2               	addwf	___xxtofl@arg,f
  3886     0789  3000               	movlw	0
  3887     078A  1803               	skipnc
  3888     078B  3001               	movlw	1
  3889     078C  07A3               	addwf	___xxtofl@arg+1,f
  3890     078D  3000               	movlw	0
  3891     078E  1803               	skipnc
  3892     078F  3001               	movlw	1
  3893     0790  07A4               	addwf	___xxtofl@arg+2,f
  3894     0791  3000               	movlw	0
  3895     0792  1803               	skipnc
  3896     0793  3001               	movlw	1
  3897     0794  07A5               	addwf	___xxtofl@arg+3,f
  3898     0795                     l6388:
  3899     0795  3001               	movlw	1
  3900     0796                     u8725:
  3901     0796  1003               	clrc
  3902     0797  0CA5               	rrf	___xxtofl@arg+3,f
  3903     0798  0CA4               	rrf	___xxtofl@arg+2,f
  3904     0799  0CA3               	rrf	___xxtofl@arg+1,f
  3905     079A  0CA2               	rrf	___xxtofl@arg,f
  3906     079B  3EFF               	addlw	-1
  3907     079C  1D03               	skipz
  3908     079D  2F96               	goto	u8725
  3909     079E                     l6390:
  3910     079E  30FF               	movlw	255
  3911     079F  0525               	andwf	___xxtofl@arg+3,w
  3912     07A0  1D03               	btfss	3,2
  3913     07A1  2FA3               	goto	u8731
  3914     07A2  2FA4               	goto	u8730
  3915     07A3                     u8731:
  3916     07A3  2F83               	goto	l6384
  3917     07A4                     u8730:
  3918     07A4  2FB0               	goto	l6394
  3919     07A5                     l6392:
  3920     07A5  3001               	movlw	1
  3921     07A6  02A1               	subwf	___xxtofl@exp,f
  3922     07A7  3001               	movlw	1
  3923     07A8  00F6               	movwf	??___xxtofl
  3924     07A9                     u8745:
  3925     07A9  1003               	clrc
  3926     07AA  0DA2               	rlf	___xxtofl@arg,f
  3927     07AB  0DA3               	rlf	___xxtofl@arg+1,f
  3928     07AC  0DA4               	rlf	___xxtofl@arg+2,f
  3929     07AD  0DA5               	rlf	___xxtofl@arg+3,f
  3930     07AE  0BF6               	decfsz	??___xxtofl,f
  3931     07AF  2FA9               	goto	u8745
  3932     07B0                     l6394:
  3933     07B0  1BA4               	btfsc	___xxtofl@arg+2,7
  3934     07B1  2FB3               	goto	u8751
  3935     07B2  2FB4               	goto	u8750
  3936     07B3                     u8751:
  3937     07B3  2FBA               	goto	l1704
  3938     07B4                     u8750:
  3939     07B4                     l6396:
  3940     07B4  3002               	movlw	2
  3941     07B5  0221               	subwf	___xxtofl@exp,w
  3942     07B6  1803               	skipnc
  3943     07B7  2FB9               	goto	u8761
  3944     07B8  2FBA               	goto	u8760
  3945     07B9                     u8761:
  3946     07B9  2FA5               	goto	l6392
  3947     07BA                     u8760:
  3948     07BA                     l1704:
  3949     07BA  1821               	btfsc	___xxtofl@exp,0
  3950     07BB  2FBD               	goto	u8771
  3951     07BC  2FBE               	goto	u8770
  3952     07BD                     u8771:
  3953     07BD  2FC6               	goto	l1705
  3954     07BE                     u8770:
  3955     07BE                     l6398:
  3956     07BE  30FF               	movlw	255
  3957     07BF  05A2               	andwf	___xxtofl@arg,f
  3958     07C0  30FF               	movlw	255
  3959     07C1  05A3               	andwf	___xxtofl@arg+1,f
  3960     07C2  307F               	movlw	127
  3961     07C3  05A4               	andwf	___xxtofl@arg+2,f
  3962     07C4  30FF               	movlw	255
  3963     07C5  05A5               	andwf	___xxtofl@arg+3,f
  3964     07C6                     l1705:
  3965     07C6  1003               	clrc
  3966     07C7  0CA1               	rrf	___xxtofl@exp,f
  3967     07C8                     l6400:
  3968     07C8  0821               	movf	___xxtofl@exp,w
  3969     07C9  00F6               	movwf	??___xxtofl
  3970     07CA  01F7               	clrf	??___xxtofl+1
  3971     07CB  01F8               	clrf	??___xxtofl+2
  3972     07CC  01F9               	clrf	??___xxtofl+3
  3973     07CD  3018               	movlw	24
  3974     07CE                     u8785:
  3975     07CE  1003               	clrc
  3976     07CF  0DF6               	rlf	??___xxtofl,f
  3977     07D0  0DF7               	rlf	??___xxtofl+1,f
  3978     07D1  0DF8               	rlf	??___xxtofl+2,f
  3979     07D2  0DF9               	rlf	??___xxtofl+3,f
  3980     07D3                     u8780:
  3981     07D3  3EFF               	addlw	-1
  3982     07D4  1D03               	skipz
  3983     07D5  2FCE               	goto	u8785
  3984     07D6  0876               	movf	??___xxtofl,w
  3985     07D7  04A2               	iorwf	___xxtofl@arg,f
  3986     07D8  0877               	movf	??___xxtofl+1,w
  3987     07D9  04A3               	iorwf	___xxtofl@arg+1,f
  3988     07DA  0878               	movf	??___xxtofl+2,w
  3989     07DB  04A4               	iorwf	___xxtofl@arg+2,f
  3990     07DC  0879               	movf	??___xxtofl+3,w
  3991     07DD  04A5               	iorwf	___xxtofl@arg+3,f
  3992     07DE                     l6402:
  3993     07DE  0820               	movf	___xxtofl@sign,w
  3994     07DF  1903               	btfsc	3,2
  3995     07E0  2FE2               	goto	u8791
  3996     07E1  2FE3               	goto	u8790
  3997     07E2                     u8791:
  3998     07E2  2FE8               	goto	l6408
  3999     07E3                     u8790:
  4000     07E3                     l6404:
  4001     07E3  1FF5               	btfss	___xxtofl@val+3,7
  4002     07E4  2FE6               	goto	u8801
  4003     07E5  2FE7               	goto	u8800
  4004     07E6                     u8801:
  4005     07E6  2FE8               	goto	l6408
  4006     07E7                     u8800:
  4007     07E7                     l6406:
  4008     07E7  17A5               	bsf	___xxtofl@arg+3,7
  4009     07E8                     l6408:
  4010     07E8  0825               	movf	___xxtofl@arg+3,w
  4011     07E9  00F5               	movwf	?___xxtofl+3
  4012     07EA  0824               	movf	___xxtofl@arg+2,w
  4013     07EB  00F4               	movwf	?___xxtofl+2
  4014     07EC  0823               	movf	___xxtofl@arg+1,w
  4015     07ED  00F3               	movwf	?___xxtofl+1
  4016     07EE  0822               	movf	___xxtofl@arg,w
  4017     07EF  00F2               	movwf	?___xxtofl
  4018     07F0                     l1693:
  4019     07F0  0008               	return
  4020     07F1                     __end_of___xxtofl:
  4021                           
  4022                           	psect	text6
  4023     08B5                     __ptext6:	
  4024 ;; *************** function ___fltol *****************
  4025 ;; Defined at:
  4026 ;;		line 43 in file "E:\Microchip\xc8\v2.41\pic\sources\c90\common\fltol.c"
  4027 ;; Parameters:    Size  Location     Type
  4028 ;;  f1              4   31[BANK0 ] unsigned char 
  4029 ;; Auto vars:     Size  Location     Type
  4030 ;;  exp1            1   36[BANK0 ] unsigned char 
  4031 ;;  sign1           1   35[BANK0 ] unsigned char 
  4032 ;; Return value:  Size  Location     Type
  4033 ;;                  4   31[BANK0 ] long 
  4034 ;; Registers used:
  4035 ;;		wreg, status,2, status,0, btemp+1
  4036 ;; Tracked objects:
  4037 ;;		On entry : 0/0
  4038 ;;		On exit  : 0/0
  4039 ;;		Unchanged: 0/0
  4040 ;; Data sizes:     COMMON   BANK0   BANK1   BANK3   BANK2
  4041 ;;      Params:         0       4       0       0       0
  4042 ;;      Locals:         0       2       0       0       0
  4043 ;;      Temps:          4       0       0       0       0
  4044 ;;      Totals:         4       6       0       0       0
  4045 ;;Total ram usage:       10 bytes
  4046 ;; Hardware stack levels used: 1
  4047 ;; Hardware stack levels required when called: 1
  4048 ;; This function calls:
  4049 ;;		Nothing
  4050 ;; This function is called by:
  4051 ;;		_LCD_DisplayFloatNumber
  4052 ;; This function uses a non-reentrant model
  4053 ;;
  4054                           
  4055     08B5                     ___fltol:	
  4056                           ;psect for function ___fltol
  4057                           
  4058     08B5                     l6178:	
  4059                           ;incstack = 0
  4060                           ; Regs used in ___fltol: [wreg+status,2+status,0+btemp+1]
  4061                           
  4062     08B5  1003               	clrc
  4063     08B6  1283               	bcf	3,5	;RP0=0, select bank0
  4064     08B7  1303               	bcf	3,6	;RP1=0, select bank0
  4065     08B8  0D41               	rlf	___fltol@f1+2,w
  4066     08B9  0D42               	rlf	___fltol@f1+3,w
  4067     08BA  00C4               	movwf	___fltol@exp1
  4068     08BB  0844               	movf	___fltol@exp1,w
  4069     08BC  1D03               	btfss	3,2
  4070     08BD  28BF               	goto	u8201
  4071     08BE  28C0               	goto	u8200
  4072     08BF                     u8201:
  4073     08BF  28C9               	goto	l6184
  4074     08C0                     u8200:
  4075     08C0                     l6180:
  4076     08C0  3000               	movlw	0
  4077     08C1  00C2               	movwf	?___fltol+3
  4078     08C2  3000               	movlw	0
  4079     08C3  00C1               	movwf	?___fltol+2
  4080     08C4  3000               	movlw	0
  4081     08C5  00C0               	movwf	?___fltol+1
  4082     08C6  3000               	movlw	0
  4083     08C7  00BF               	movwf	?___fltol
  4084     08C8  292C               	goto	l1444
  4085     08C9                     l6184:
  4086     08C9  083F               	movf	___fltol@f1,w
  4087     08CA  00F6               	movwf	??___fltol
  4088     08CB  0840               	movf	___fltol@f1+1,w
  4089     08CC  00F7               	movwf	??___fltol+1
  4090     08CD  0841               	movf	___fltol@f1+2,w
  4091     08CE  00F8               	movwf	??___fltol+2
  4092     08CF  0842               	movf	___fltol@f1+3,w
  4093     08D0  00F9               	movwf	??___fltol+3
  4094     08D1  301F               	movlw	31
  4095     08D2                     u8215:
  4096     08D2  1003               	clrc
  4097     08D3  0CF9               	rrf	??___fltol+3,f
  4098     08D4  0CF8               	rrf	??___fltol+2,f
  4099     08D5  0CF7               	rrf	??___fltol+1,f
  4100     08D6  0CF6               	rrf	??___fltol,f
  4101     08D7                     u8210:
  4102     08D7  3EFF               	addlw	-1
  4103     08D8  1D03               	skipz
  4104     08D9  28D2               	goto	u8215
  4105     08DA  0876               	movf	??___fltol,w
  4106     08DB  00C3               	movwf	___fltol@sign1
  4107     08DC                     l6186:
  4108     08DC  17C1               	bsf	___fltol@f1+2,7
  4109     08DD                     l6188:
  4110     08DD  30FF               	movlw	255
  4111     08DE  05BF               	andwf	___fltol@f1,f
  4112     08DF  30FF               	movlw	255
  4113     08E0  05C0               	andwf	___fltol@f1+1,f
  4114     08E1  30FF               	movlw	255
  4115     08E2  05C1               	andwf	___fltol@f1+2,f
  4116     08E3  3000               	movlw	0
  4117     08E4  05C2               	andwf	___fltol@f1+3,f
  4118     08E5                     l6190:
  4119     08E5  3096               	movlw	150
  4120     08E6  02C4               	subwf	___fltol@exp1,f
  4121     08E7                     l6192:
  4122     08E7  1FC4               	btfss	___fltol@exp1,7
  4123     08E8  28EA               	goto	u8221
  4124     08E9  28EB               	goto	u8220
  4125     08EA                     u8221:
  4126     08EA  2905               	goto	l6204
  4127     08EB                     u8220:
  4128     08EB                     l6194:
  4129     08EB  0844               	movf	___fltol@exp1,w
  4130     08EC  3A80               	xorlw	128
  4131     08ED  3E97               	addlw	151
  4132     08EE  1803               	skipnc
  4133     08EF  28F1               	goto	u8231
  4134     08F0  28F2               	goto	u8230
  4135     08F1                     u8231:
  4136     08F1  28F3               	goto	l6200
  4137     08F2                     u8230:
  4138     08F2  28C0               	goto	l6180
  4139     08F3                     l6200:
  4140     08F3  3001               	movlw	1
  4141     08F4                     u8245:
  4142     08F4  1003               	clrc
  4143     08F5  0CC2               	rrf	___fltol@f1+3,f
  4144     08F6  0CC1               	rrf	___fltol@f1+2,f
  4145     08F7  0CC0               	rrf	___fltol@f1+1,f
  4146     08F8  0CBF               	rrf	___fltol@f1,f
  4147     08F9  3EFF               	addlw	-1
  4148     08FA  1D03               	skipz
  4149     08FB  28F4               	goto	u8245
  4150     08FC                     l6202:
  4151     08FC  3001               	movlw	1
  4152     08FD  00FF               	movwf	btemp+1
  4153     08FE  087F               	movf	btemp+1,w
  4154     08FF  07C4               	addwf	___fltol@exp1,f
  4155     0900  1D03               	btfss	3,2
  4156     0901  2903               	goto	u8251
  4157     0902  2904               	goto	u8250
  4158     0903                     u8251:
  4159     0903  28F3               	goto	l6200
  4160     0904                     u8250:
  4161     0904  291C               	goto	l6212
  4162     0905                     l6204:
  4163     0905  3020               	movlw	32
  4164     0906  0244               	subwf	___fltol@exp1,w
  4165     0907  1C03               	skipc
  4166     0908  290A               	goto	u8261
  4167     0909  290B               	goto	u8260
  4168     090A                     u8261:
  4169     090A  2917               	goto	l1451
  4170     090B                     u8260:
  4171     090B  28C0               	goto	l6180
  4172     090C                     l6210:
  4173     090C  3001               	movlw	1
  4174     090D  00F6               	movwf	??___fltol
  4175     090E                     u8275:
  4176     090E  1003               	clrc
  4177     090F  0DBF               	rlf	___fltol@f1,f
  4178     0910  0DC0               	rlf	___fltol@f1+1,f
  4179     0911  0DC1               	rlf	___fltol@f1+2,f
  4180     0912  0DC2               	rlf	___fltol@f1+3,f
  4181     0913  0BF6               	decfsz	??___fltol,f
  4182     0914  290E               	goto	u8275
  4183     0915  3001               	movlw	1
  4184     0916  02C4               	subwf	___fltol@exp1,f
  4185     0917                     l1451:
  4186     0917  0844               	movf	___fltol@exp1,w
  4187     0918  1D03               	btfss	3,2
  4188     0919  291B               	goto	u8281
  4189     091A  291C               	goto	u8280
  4190     091B                     u8281:
  4191     091B  290C               	goto	l6210
  4192     091C                     u8280:
  4193     091C                     l6212:
  4194     091C  0843               	movf	___fltol@sign1,w
  4195     091D  1903               	btfsc	3,2
  4196     091E  2920               	goto	u8291
  4197     091F  2921               	goto	u8290
  4198     0920                     u8291:
  4199     0920  292C               	goto	l1454
  4200     0921                     u8290:
  4201     0921                     l6214:
  4202     0921  09BF               	comf	___fltol@f1,f
  4203     0922  09C0               	comf	___fltol@f1+1,f
  4204     0923  09C1               	comf	___fltol@f1+2,f
  4205     0924  09C2               	comf	___fltol@f1+3,f
  4206     0925  0ABF               	incf	___fltol@f1,f
  4207     0926  1903               	skipnz
  4208     0927  0AC0               	incf	___fltol@f1+1,f
  4209     0928  1903               	skipnz
  4210     0929  0AC1               	incf	___fltol@f1+2,f
  4211     092A  1903               	skipnz
  4212     092B  0AC2               	incf	___fltol@f1+3,f
  4213     092C                     l1454:
  4214     092C                     l1444:
  4215     092C  0008               	return
  4216     092D                     __end_of___fltol:
  4217                           
  4218                           	psect	text7
  4219     159A                     __ptext7:	
  4220 ;; *************** function ___flsub *****************
  4221 ;; Defined at:
  4222 ;;		line 242 in file "E:\Microchip\xc8\v2.41\pic\sources\c90\common\sprcadd.c"
  4223 ;; Parameters:    Size  Location     Type
  4224 ;;  a               4   12[BANK0 ] long 
  4225 ;;  b               4   16[BANK0 ] long 
  4226 ;; Auto vars:     Size  Location     Type
  4227 ;;		None
  4228 ;; Return value:  Size  Location     Type
  4229 ;;                  4   12[BANK0 ] long 
  4230 ;; Registers used:
  4231 ;;		wreg, status,2, status,0, btemp+1, pclath, cstack
  4232 ;; Tracked objects:
  4233 ;;		On entry : 0/0
  4234 ;;		On exit  : 0/0
  4235 ;;		Unchanged: 0/0
  4236 ;; Data sizes:     COMMON   BANK0   BANK1   BANK3   BANK2
  4237 ;;      Params:         0       8       0       0       0
  4238 ;;      Locals:         0       0       0       0       0
  4239 ;;      Temps:          0       0       0       0       0
  4240 ;;      Totals:         0       8       0       0       0
  4241 ;;Total ram usage:        8 bytes
  4242 ;; Hardware stack levels used: 1
  4243 ;; Hardware stack levels required when called: 2
  4244 ;; This function calls:
  4245 ;;		___fladd
  4246 ;; This function is called by:
  4247 ;;		_LCD_DisplayFloatNumber
  4248 ;; This function uses a non-reentrant model
  4249 ;;
  4250                           
  4251     159A                     ___flsub:	
  4252                           ;psect for function ___flsub
  4253                           
  4254     159A                     l6216:	
  4255                           ;incstack = 0
  4256                           ; Regs used in ___flsub: [wreg+status,2+status,0+btemp+1+pclath+cstack]
  4257                           
  4258     159A  3080               	movlw	128
  4259     159B  1283               	bcf	3,5	;RP0=0, select bank0
  4260     159C  1303               	bcf	3,6	;RP1=0, select bank0
  4261     159D  06AF               	xorwf	___flsub@a+3,f
  4262     159E                     l6218:
  4263     159E  0833               	movf	___flsub@b+3,w
  4264     159F  00F5               	movwf	___fladd@b+3
  4265     15A0  0832               	movf	___flsub@b+2,w
  4266     15A1  00F4               	movwf	___fladd@b+2
  4267     15A2  0831               	movf	___flsub@b+1,w
  4268     15A3  00F3               	movwf	___fladd@b+1
  4269     15A4  0830               	movf	___flsub@b,w
  4270     15A5  00F2               	movwf	___fladd@b
  4271     15A6  082F               	movf	___flsub@a+3,w
  4272     15A7  00F9               	movwf	___fladd@a+3
  4273     15A8  082E               	movf	___flsub@a+2,w
  4274     15A9  00F8               	movwf	___fladd@a+2
  4275     15AA  082D               	movf	___flsub@a+1,w
  4276     15AB  00F7               	movwf	___fladd@a+1
  4277     15AC  082C               	movf	___flsub@a,w
  4278     15AD  00F6               	movwf	___fladd@a
  4279     15AE  120A  158A  25A8  160A  118A  	fcall	___fladd
  4280     15B3  0875               	movf	?___fladd+3,w
  4281     15B4  1283               	bcf	3,5	;RP0=0, select bank0
  4282     15B5  1303               	bcf	3,6	;RP1=0, select bank0
  4283     15B6  00AF               	movwf	?___flsub+3
  4284     15B7  0874               	movf	?___fladd+2,w
  4285     15B8  00AE               	movwf	?___flsub+2
  4286     15B9  0873               	movf	?___fladd+1,w
  4287     15BA  00AD               	movwf	?___flsub+1
  4288     15BB  0872               	movf	?___fladd,w
  4289     15BC  00AC               	movwf	?___flsub
  4290     15BD                     l1597:
  4291     15BD  0008               	return
  4292     15BE                     __end_of___flsub:
  4293                           
  4294                           	psect	text8
  4295     0DA8                     __ptext8:	
  4296 ;; *************** function ___fladd *****************
  4297 ;; Defined at:
  4298 ;;		line 10 in file "E:\Microchip\xc8\v2.41\pic\sources\c90\common\sprcadd.c"
  4299 ;; Parameters:    Size  Location     Type
  4300 ;;  b               4    2[COMMON] long 
  4301 ;;  a               4    6[COMMON] long 
  4302 ;; Auto vars:     Size  Location     Type
  4303 ;;  grs             1   11[BANK0 ] unsigned char 
  4304 ;;  bexp            1   10[BANK0 ] unsigned char 
  4305 ;;  aexp            1    9[BANK0 ] unsigned char 
  4306 ;;  signs           1    8[BANK0 ] unsigned char 
  4307 ;; Return value:  Size  Location     Type
  4308 ;;                  4    2[COMMON] unsigned char 
  4309 ;; Registers used:
  4310 ;;		wreg, status,2, status,0, btemp+1
  4311 ;; Tracked objects:
  4312 ;;		On entry : 0/0
  4313 ;;		On exit  : 0/0
  4314 ;;		Unchanged: 0/0
  4315 ;; Data sizes:     COMMON   BANK0   BANK1   BANK3   BANK2
  4316 ;;      Params:         8       0       0       0       0
  4317 ;;      Locals:         0       4       0       0       0
  4318 ;;      Temps:          0       8       0       0       0
  4319 ;;      Totals:         8      12       0       0       0
  4320 ;;Total ram usage:       20 bytes
  4321 ;; Hardware stack levels used: 1
  4322 ;; Hardware stack levels required when called: 1
  4323 ;; This function calls:
  4324 ;;		Nothing
  4325 ;; This function is called by:
  4326 ;;		___flsub
  4327 ;; This function uses a non-reentrant model
  4328 ;;
  4329                           
  4330     0DA8                     ___fladd:	
  4331                           ;psect for function ___fladd
  4332                           
  4333     0DA8                     l5906:	
  4334                           ;incstack = 0
  4335                           ; Regs used in ___fladd: [wreg+status,2+status,0+btemp+1]
  4336                           
  4337     0DA8  0875               	movf	___fladd@b+3,w
  4338     0DA9  3980               	andlw	128
  4339     0DAA  1283               	bcf	3,5	;RP0=0, select bank0
  4340     0DAB  1303               	bcf	3,6	;RP1=0, select bank0
  4341     0DAC  00A8               	movwf	___fladd@signs
  4342     0DAD                     l5908:
  4343     0DAD  0875               	movf	___fladd@b+3,w
  4344     0DAE  00A0               	movwf	??___fladd
  4345     0DAF  0720               	addwf	??___fladd,w
  4346     0DB0  00AA               	movwf	___fladd@bexp
  4347     0DB1                     l5910:
  4348     0DB1  1FF4               	btfss	___fladd@b+2,7
  4349     0DB2  2DB4               	goto	u7581
  4350     0DB3  2DB5               	goto	u7580
  4351     0DB4                     u7581:
  4352     0DB4  2DB6               	goto	l5914
  4353     0DB5                     u7580:
  4354     0DB5                     l5912:
  4355     0DB5  142A               	bsf	___fladd@bexp,0
  4356     0DB6                     l5914:
  4357     0DB6  082A               	movf	___fladd@bexp,w
  4358     0DB7  1903               	btfsc	3,2
  4359     0DB8  2DBA               	goto	u7591
  4360     0DB9  2DBB               	goto	u7590
  4361     0DBA                     u7591:
  4362     0DBA  2DCB               	goto	l5924
  4363     0DBB                     u7590:
  4364     0DBB                     l5916:
  4365     0DBB  0A2A               	incf	___fladd@bexp,w
  4366     0DBC  1D03               	btfss	3,2
  4367     0DBD  2DBF               	goto	u7601
  4368     0DBE  2DC0               	goto	u7600
  4369     0DBF                     u7601:
  4370     0DBF  2DC8               	goto	l5920
  4371     0DC0                     u7600:
  4372     0DC0                     l5918:
  4373     0DC0  3000               	movlw	0
  4374     0DC1  00F5               	movwf	___fladd@b+3
  4375     0DC2  3000               	movlw	0
  4376     0DC3  00F4               	movwf	___fladd@b+2
  4377     0DC4  3000               	movlw	0
  4378     0DC5  00F3               	movwf	___fladd@b+1
  4379     0DC6  3000               	movlw	0
  4380     0DC7  00F2               	movwf	___fladd@b
  4381     0DC8                     l5920:
  4382     0DC8  17F4               	bsf	___fladd@b+2,7
  4383     0DC9                     l5922:
  4384     0DC9  01F5               	clrf	___fladd@b+3
  4385     0DCA  2DD3               	goto	l5926
  4386     0DCB                     l5924:
  4387     0DCB  3000               	movlw	0
  4388     0DCC  00F5               	movwf	___fladd@b+3
  4389     0DCD  3000               	movlw	0
  4390     0DCE  00F4               	movwf	___fladd@b+2
  4391     0DCF  3000               	movlw	0
  4392     0DD0  00F3               	movwf	___fladd@b+1
  4393     0DD1  3000               	movlw	0
  4394     0DD2  00F2               	movwf	___fladd@b
  4395     0DD3                     l5926:
  4396     0DD3  0879               	movf	___fladd@a+3,w
  4397     0DD4  3980               	andlw	128
  4398     0DD5  00A9               	movwf	___fladd@aexp
  4399     0DD6                     l5928:
  4400     0DD6  0829               	movf	___fladd@aexp,w
  4401     0DD7  0628               	xorwf	___fladd@signs,w
  4402     0DD8  1903               	skipnz
  4403     0DD9  2DDB               	goto	u7611
  4404     0DDA  2DDC               	goto	u7610
  4405     0DDB                     u7611:
  4406     0DDB  2DDD               	goto	l5932
  4407     0DDC                     u7610:
  4408     0DDC                     l5930:
  4409     0DDC  1728               	bsf	___fladd@signs,6
  4410     0DDD                     l5932:
  4411     0DDD  0879               	movf	___fladd@a+3,w
  4412     0DDE  00A0               	movwf	??___fladd
  4413     0DDF  0720               	addwf	??___fladd,w
  4414     0DE0  00A9               	movwf	___fladd@aexp
  4415     0DE1                     l5934:
  4416     0DE1  1FF8               	btfss	___fladd@a+2,7
  4417     0DE2  2DE4               	goto	u7621
  4418     0DE3  2DE5               	goto	u7620
  4419     0DE4                     u7621:
  4420     0DE4  2DE6               	goto	l5938
  4421     0DE5                     u7620:
  4422     0DE5                     l5936:
  4423     0DE5  1429               	bsf	___fladd@aexp,0
  4424     0DE6                     l5938:
  4425     0DE6  0829               	movf	___fladd@aexp,w
  4426     0DE7  1903               	btfsc	3,2
  4427     0DE8  2DEA               	goto	u7631
  4428     0DE9  2DEB               	goto	u7630
  4429     0DEA                     u7631:
  4430     0DEA  2DFB               	goto	l5948
  4431     0DEB                     u7630:
  4432     0DEB                     l5940:
  4433     0DEB  0A29               	incf	___fladd@aexp,w
  4434     0DEC  1D03               	btfss	3,2
  4435     0DED  2DEF               	goto	u7641
  4436     0DEE  2DF0               	goto	u7640
  4437     0DEF                     u7641:
  4438     0DEF  2DF8               	goto	l5944
  4439     0DF0                     u7640:
  4440     0DF0                     l5942:
  4441     0DF0  3000               	movlw	0
  4442     0DF1  00F9               	movwf	___fladd@a+3
  4443     0DF2  3000               	movlw	0
  4444     0DF3  00F8               	movwf	___fladd@a+2
  4445     0DF4  3000               	movlw	0
  4446     0DF5  00F7               	movwf	___fladd@a+1
  4447     0DF6  3000               	movlw	0
  4448     0DF7  00F6               	movwf	___fladd@a
  4449     0DF8                     l5944:
  4450     0DF8  17F8               	bsf	___fladd@a+2,7
  4451     0DF9                     l5946:
  4452     0DF9  01F9               	clrf	___fladd@a+3
  4453     0DFA  2E03               	goto	l1551
  4454     0DFB                     l5948:
  4455     0DFB  3000               	movlw	0
  4456     0DFC  00F9               	movwf	___fladd@a+3
  4457     0DFD  3000               	movlw	0
  4458     0DFE  00F8               	movwf	___fladd@a+2
  4459     0DFF  3000               	movlw	0
  4460     0E00  00F7               	movwf	___fladd@a+1
  4461     0E01  3000               	movlw	0
  4462     0E02  00F6               	movwf	___fladd@a
  4463     0E03                     l1551:
  4464     0E03  082A               	movf	___fladd@bexp,w
  4465     0E04  0229               	subwf	___fladd@aexp,w
  4466     0E05  1803               	skipnc
  4467     0E06  2E08               	goto	u7651
  4468     0E07  2E09               	goto	u7650
  4469     0E08                     u7651:
  4470     0E08  2E2F               	goto	l5984
  4471     0E09                     u7650:
  4472     0E09                     l5950:
  4473     0E09  1F28               	btfss	___fladd@signs,6
  4474     0E0A  2E0C               	goto	u7661
  4475     0E0B  2E0D               	goto	u7660
  4476     0E0C                     u7661:
  4477     0E0C  2E11               	goto	l5954
  4478     0E0D                     u7660:
  4479     0E0D                     l5952:
  4480     0E0D  3080               	movlw	128
  4481     0E0E  00FF               	movwf	btemp+1
  4482     0E0F  087F               	movf	btemp+1,w
  4483     0E10  06A8               	xorwf	___fladd@signs,f
  4484     0E11                     l5954:
  4485     0E11  082A               	movf	___fladd@bexp,w
  4486     0E12  00AB               	movwf	___fladd@grs
  4487     0E13                     l5956:
  4488     0E13  0829               	movf	___fladd@aexp,w
  4489     0E14  00AA               	movwf	___fladd@bexp
  4490     0E15                     l5958:
  4491     0E15  082B               	movf	___fladd@grs,w
  4492     0E16  00A9               	movwf	___fladd@aexp
  4493     0E17                     l5960:
  4494     0E17  0872               	movf	___fladd@b,w
  4495     0E18  00AB               	movwf	___fladd@grs
  4496     0E19                     l5962:
  4497     0E19  0876               	movf	___fladd@a,w
  4498     0E1A  00F2               	movwf	___fladd@b
  4499     0E1B                     l5964:
  4500     0E1B  082B               	movf	___fladd@grs,w
  4501     0E1C  00F6               	movwf	___fladd@a
  4502     0E1D                     l5966:
  4503     0E1D  0873               	movf	___fladd@b+1,w
  4504     0E1E  00AB               	movwf	___fladd@grs
  4505     0E1F                     l5968:
  4506     0E1F  0877               	movf	___fladd@a+1,w
  4507     0E20  00F3               	movwf	___fladd@b+1
  4508     0E21                     l5970:
  4509     0E21  082B               	movf	___fladd@grs,w
  4510     0E22  00F7               	movwf	___fladd@a+1
  4511     0E23                     l5972:
  4512     0E23  0874               	movf	___fladd@b+2,w
  4513     0E24  00AB               	movwf	___fladd@grs
  4514     0E25                     l5974:
  4515     0E25  0878               	movf	___fladd@a+2,w
  4516     0E26  00F4               	movwf	___fladd@b+2
  4517     0E27                     l5976:
  4518     0E27  082B               	movf	___fladd@grs,w
  4519     0E28  00F8               	movwf	___fladd@a+2
  4520     0E29                     l5978:
  4521     0E29  0875               	movf	___fladd@b+3,w
  4522     0E2A  00AB               	movwf	___fladd@grs
  4523     0E2B                     l5980:
  4524     0E2B  0879               	movf	___fladd@a+3,w
  4525     0E2C  00F5               	movwf	___fladd@b+3
  4526     0E2D                     l5982:
  4527     0E2D  082B               	movf	___fladd@grs,w
  4528     0E2E  00F9               	movwf	___fladd@a+3
  4529     0E2F                     l5984:
  4530     0E2F  01AB               	clrf	___fladd@grs
  4531     0E30                     l5986:
  4532     0E30  0829               	movf	___fladd@aexp,w
  4533     0E31  00A0               	movwf	??___fladd
  4534     0E32  01A1               	clrf	??___fladd+1
  4535     0E33  0821               	movf	??___fladd+1,w
  4536     0E34  00A3               	movwf	??___fladd+3
  4537     0E35  082A               	movf	___fladd@bexp,w
  4538     0E36  0220               	subwf	??___fladd,w
  4539     0E37  00A2               	movwf	??___fladd+2
  4540     0E38  1C03               	skipc
  4541     0E39  03A3               	decf	??___fladd+3,f
  4542     0E3A  0823               	movf	??___fladd+3,w
  4543     0E3B  3A80               	xorlw	128
  4544     0E3C  00FF               	movwf	btemp+1
  4545     0E3D  3080               	movlw	128
  4546     0E3E  027F               	subwf	btemp+1,w
  4547     0E3F  1D03               	skipz
  4548     0E40  2E43               	goto	u7675
  4549     0E41  301A               	movlw	26
  4550     0E42  0222               	subwf	??___fladd+2,w
  4551     0E43                     u7675:
  4552     0E43  1C03               	skipc
  4553     0E44  2E46               	goto	u7671
  4554     0E45  2E47               	goto	u7670
  4555     0E46                     u7671:
  4556     0E46  2E7E               	goto	l6002
  4557     0E47                     u7670:
  4558     0E47                     l5988:
  4559     0E47  0875               	movf	___fladd@b+3,w
  4560     0E48  0474               	iorwf	___fladd@b+2,w
  4561     0E49  0473               	iorwf	___fladd@b+1,w
  4562     0E4A  0472               	iorwf	___fladd@b,w
  4563     0E4B  1D03               	skipz
  4564     0E4C  2E4E               	goto	u7681
  4565     0E4D  2E50               	goto	u7680
  4566     0E4E                     u7681:
  4567     0E4E  3001               	movlw	1
  4568     0E4F  2E51               	goto	u7690
  4569     0E50                     u7680:
  4570     0E50  3000               	movlw	0
  4571     0E51                     u7690:
  4572     0E51  1283               	bcf	3,5	;RP0=0, select bank0
  4573     0E52  1303               	bcf	3,6	;RP1=0, select bank0
  4574     0E53  00AB               	movwf	___fladd@grs
  4575     0E54  3000               	movlw	0
  4576     0E55  00F5               	movwf	___fladd@b+3
  4577     0E56  3000               	movlw	0
  4578     0E57  00F4               	movwf	___fladd@b+2
  4579     0E58  3000               	movlw	0
  4580     0E59  00F3               	movwf	___fladd@b+1
  4581     0E5A  3000               	movlw	0
  4582     0E5B  00F2               	movwf	___fladd@b
  4583     0E5C  0829               	movf	___fladd@aexp,w
  4584     0E5D  00AA               	movwf	___fladd@bexp
  4585     0E5E  2E86               	goto	l1555
  4586     0E5F                     l1557:
  4587     0E5F  1C2B               	btfss	___fladd@grs,0
  4588     0E60  2E62               	goto	u7701
  4589     0E61  2E63               	goto	u7700
  4590     0E62                     u7701:
  4591     0E62  2E6A               	goto	l5992
  4592     0E63                     u7700:
  4593     0E63                     l5990:
  4594     0E63  082B               	movf	___fladd@grs,w
  4595     0E64  00A0               	movwf	??___fladd
  4596     0E65  1003               	clrc
  4597     0E66  0C20               	rrf	??___fladd,w
  4598     0E67  3801               	iorlw	1
  4599     0E68  00AB               	movwf	___fladd@grs
  4600     0E69  2E6C               	goto	l5994
  4601     0E6A                     l5992:
  4602     0E6A  1003               	clrc
  4603     0E6B  0CAB               	rrf	___fladd@grs,f
  4604     0E6C                     l5994:
  4605     0E6C  1C72               	btfss	___fladd@b,0
  4606     0E6D  2E6F               	goto	u7711
  4607     0E6E  2E70               	goto	u7710
  4608     0E6F                     u7711:
  4609     0E6F  2E71               	goto	l5998
  4610     0E70                     u7710:
  4611     0E70                     l5996:
  4612     0E70  17AB               	bsf	___fladd@grs,7
  4613     0E71                     l5998:
  4614     0E71  3001               	movlw	1
  4615     0E72  00A0               	movwf	??___fladd
  4616     0E73                     u7725:
  4617     0E73  0D75               	rlf	___fladd@b+3,w
  4618     0E74  0CF5               	rrf	___fladd@b+3,f
  4619     0E75  0CF4               	rrf	___fladd@b+2,f
  4620     0E76  0CF3               	rrf	___fladd@b+1,f
  4621     0E77  0CF2               	rrf	___fladd@b,f
  4622     0E78  0BA0               	decfsz	??___fladd& (0+127),f
  4623     0E79  2E73               	goto	u7725
  4624     0E7A                     l6000:
  4625     0E7A  3001               	movlw	1
  4626     0E7B  00FF               	movwf	btemp+1
  4627     0E7C  087F               	movf	btemp+1,w
  4628     0E7D  07AA               	addwf	___fladd@bexp,f
  4629     0E7E                     l6002:
  4630     0E7E  1283               	bcf	3,5	;RP0=0, select bank0
  4631     0E7F  1303               	bcf	3,6	;RP1=0, select bank0
  4632     0E80  0829               	movf	___fladd@aexp,w
  4633     0E81  022A               	subwf	___fladd@bexp,w
  4634     0E82  1C03               	skipc
  4635     0E83  2E85               	goto	u7731
  4636     0E84  2E86               	goto	u7730
  4637     0E85                     u7731:
  4638     0E85  2E5F               	goto	l1557
  4639     0E86                     u7730:
  4640     0E86                     l1555:
  4641     0E86  1B28               	btfsc	___fladd@signs,6
  4642     0E87  2E89               	goto	u7741
  4643     0E88  2E8A               	goto	u7740
  4644     0E89                     u7741:
  4645     0E89  2ED3               	goto	l6028
  4646     0E8A                     u7740:
  4647     0E8A                     l6004:
  4648     0E8A  082A               	movf	___fladd@bexp,w
  4649     0E8B  1D03               	btfss	3,2
  4650     0E8C  2E8E               	goto	u7751
  4651     0E8D  2E8F               	goto	u7750
  4652     0E8E                     u7751:
  4653     0E8E  2E98               	goto	l6010
  4654     0E8F                     u7750:
  4655     0E8F                     l6006:
  4656     0E8F  3000               	movlw	0
  4657     0E90  00F5               	movwf	?___fladd+3
  4658     0E91  3000               	movlw	0
  4659     0E92  00F4               	movwf	?___fladd+2
  4660     0E93  3000               	movlw	0
  4661     0E94  00F3               	movwf	?___fladd+1
  4662     0E95  3000               	movlw	0
  4663     0E96  00F2               	movwf	?___fladd
  4664     0E97  2FFF               	goto	l1564
  4665     0E98                     l6010:
  4666     0E98  0876               	movf	___fladd@a,w
  4667     0E99  07F2               	addwf	___fladd@b,f
  4668     0E9A  0877               	movf	___fladd@a+1,w
  4669     0E9B  1103               	clrz
  4670     0E9C  1803               	skipnc
  4671     0E9D  3E01               	addlw	1
  4672     0E9E  1903               	skipnz
  4673     0E9F  2EA1               	goto	u7761
  4674     0EA0  07F3               	addwf	___fladd@b+1,f
  4675     0EA1                     u7761:
  4676     0EA1  0878               	movf	___fladd@a+2,w
  4677     0EA2  1103               	clrz
  4678     0EA3  1803               	skipnc
  4679     0EA4  3E01               	addlw	1
  4680     0EA5  1903               	skipnz
  4681     0EA6  2EA8               	goto	u7762
  4682     0EA7  07F4               	addwf	___fladd@b+2,f
  4683     0EA8                     u7762:
  4684     0EA8  0879               	movf	___fladd@a+3,w
  4685     0EA9  1103               	clrz
  4686     0EAA  1803               	skipnc
  4687     0EAB  3E01               	addlw	1
  4688     0EAC  1903               	skipnz
  4689     0EAD  2EAF               	goto	u7763
  4690     0EAE  07F5               	addwf	___fladd@b+3,f
  4691     0EAF                     u7763:
  4692     0EAF                     l6012:
  4693     0EAF  1C75               	btfss	___fladd@b+3,0
  4694     0EB0  2EB2               	goto	u7771
  4695     0EB1  2EB3               	goto	u7770
  4696     0EB2                     u7771:
  4697     0EB2  2F87               	goto	l6064
  4698     0EB3                     u7770:
  4699     0EB3                     l6014:
  4700     0EB3  1C2B               	btfss	___fladd@grs,0
  4701     0EB4  2EB6               	goto	u7781
  4702     0EB5  2EB7               	goto	u7780
  4703     0EB6                     u7781:
  4704     0EB6  2EBE               	goto	l6018
  4705     0EB7                     u7780:
  4706     0EB7                     l6016:
  4707     0EB7  082B               	movf	___fladd@grs,w
  4708     0EB8  00A0               	movwf	??___fladd
  4709     0EB9  1003               	clrc
  4710     0EBA  0C20               	rrf	??___fladd,w
  4711     0EBB  3801               	iorlw	1
  4712     0EBC  00AB               	movwf	___fladd@grs
  4713     0EBD  2EC0               	goto	l6020
  4714     0EBE                     l6018:
  4715     0EBE  1003               	clrc
  4716     0EBF  0CAB               	rrf	___fladd@grs,f
  4717     0EC0                     l6020:
  4718     0EC0  1C72               	btfss	___fladd@b,0
  4719     0EC1  2EC3               	goto	u7791
  4720     0EC2  2EC4               	goto	u7790
  4721     0EC3                     u7791:
  4722     0EC3  2EC5               	goto	l6024
  4723     0EC4                     u7790:
  4724     0EC4                     l6022:
  4725     0EC4  17AB               	bsf	___fladd@grs,7
  4726     0EC5                     l6024:
  4727     0EC5  3001               	movlw	1
  4728     0EC6  00A0               	movwf	??___fladd
  4729     0EC7                     u7805:
  4730     0EC7  0D75               	rlf	___fladd@b+3,w
  4731     0EC8  0CF5               	rrf	___fladd@b+3,f
  4732     0EC9  0CF4               	rrf	___fladd@b+2,f
  4733     0ECA  0CF3               	rrf	___fladd@b+1,f
  4734     0ECB  0CF2               	rrf	___fladd@b,f
  4735     0ECC  0BA0               	decfsz	??___fladd& (0+127),f
  4736     0ECD  2EC7               	goto	u7805
  4737     0ECE                     l6026:
  4738     0ECE  3001               	movlw	1
  4739     0ECF  00FF               	movwf	btemp+1
  4740     0ED0  087F               	movf	btemp+1,w
  4741     0ED1  07AA               	addwf	___fladd@bexp,f
  4742     0ED2  2F87               	goto	l6064
  4743     0ED3                     l6028:
  4744     0ED3  0875               	movf	___fladd@b+3,w
  4745     0ED4  3A80               	xorlw	128
  4746     0ED5  00FF               	movwf	btemp+1
  4747     0ED6  0879               	movf	___fladd@a+3,w
  4748     0ED7  3A80               	xorlw	128
  4749     0ED8  027F               	subwf	btemp+1,w
  4750     0ED9  1D03               	skipz
  4751     0EDA  2EE5               	goto	u7813
  4752     0EDB  0878               	movf	___fladd@a+2,w
  4753     0EDC  0274               	subwf	___fladd@b+2,w
  4754     0EDD  1D03               	skipz
  4755     0EDE  2EE5               	goto	u7813
  4756     0EDF  0877               	movf	___fladd@a+1,w
  4757     0EE0  0273               	subwf	___fladd@b+1,w
  4758     0EE1  1D03               	skipz
  4759     0EE2  2EE5               	goto	u7813
  4760     0EE3  0876               	movf	___fladd@a,w
  4761     0EE4  0272               	subwf	___fladd@b,w
  4762     0EE5                     u7813:
  4763     0EE5  1803               	skipnc
  4764     0EE6  2EE8               	goto	u7811
  4765     0EE7  2EE9               	goto	u7810
  4766     0EE8                     u7811:
  4767     0EE8  2F41               	goto	l6040
  4768     0EE9                     u7810:
  4769     0EE9                     l6030:
  4770     0EE9  30FF               	movlw	255
  4771     0EEA  00A0               	movwf	??___fladd
  4772     0EEB  30FF               	movlw	255
  4773     0EEC  00A1               	movwf	??___fladd+1
  4774     0EED  30FF               	movlw	255
  4775     0EEE  00A2               	movwf	??___fladd+2
  4776     0EEF  30FF               	movlw	255
  4777     0EF0  00A3               	movwf	??___fladd+3
  4778     0EF1  0876               	movf	___fladd@a,w
  4779     0EF2  00A4               	movwf	??___fladd+4
  4780     0EF3  0877               	movf	___fladd@a+1,w
  4781     0EF4  00A5               	movwf	??___fladd+5
  4782     0EF5  0878               	movf	___fladd@a+2,w
  4783     0EF6  00A6               	movwf	??___fladd+6
  4784     0EF7  0879               	movf	___fladd@a+3,w
  4785     0EF8  00A7               	movwf	??___fladd+7
  4786     0EF9  0872               	movf	___fladd@b,w
  4787     0EFA  02A4               	subwf	??___fladd+4,f
  4788     0EFB  0873               	movf	___fladd@b+1,w
  4789     0EFC  1C03               	skipc
  4790     0EFD  0F73               	incfsz	___fladd@b+1,w
  4791     0EFE  2F00               	goto	u7821
  4792     0EFF  2F01               	goto	u7822
  4793     0F00                     u7821:
  4794     0F00  02A5               	subwf	??___fladd+5,f
  4795     0F01                     u7822:
  4796     0F01  0874               	movf	___fladd@b+2,w
  4797     0F02  1C03               	skipc
  4798     0F03  0F74               	incfsz	___fladd@b+2,w
  4799     0F04  2F06               	goto	u7823
  4800     0F05  2F07               	goto	u7824
  4801     0F06                     u7823:
  4802     0F06  02A6               	subwf	??___fladd+6,f
  4803     0F07                     u7824:
  4804     0F07  0875               	movf	___fladd@b+3,w
  4805     0F08  1C03               	skipc
  4806     0F09  0F75               	incfsz	___fladd@b+3,w
  4807     0F0A  2F0C               	goto	u7825
  4808     0F0B  2F0D               	goto	u7826
  4809     0F0C                     u7825:
  4810     0F0C  02A7               	subwf	??___fladd+7,f
  4811     0F0D                     u7826:
  4812     0F0D  0824               	movf	??___fladd+4,w
  4813     0F0E  07A0               	addwf	??___fladd,f
  4814     0F0F  0825               	movf	??___fladd+5,w
  4815     0F10  1803               	skipnc
  4816     0F11  0F25               	incfsz	??___fladd+5,w
  4817     0F12  2F14               	goto	u7830
  4818     0F13  2F15               	goto	u7831
  4819     0F14                     u7830:
  4820     0F14  07A1               	addwf	??___fladd+1,f
  4821     0F15                     u7831:
  4822     0F15  0826               	movf	??___fladd+6,w
  4823     0F16  1803               	skipnc
  4824     0F17  0F26               	incfsz	??___fladd+6,w
  4825     0F18  2F1A               	goto	u7832
  4826     0F19  2F1B               	goto	u7833
  4827     0F1A                     u7832:
  4828     0F1A  07A2               	addwf	??___fladd+2,f
  4829     0F1B                     u7833:
  4830     0F1B  0827               	movf	??___fladd+7,w
  4831     0F1C  1803               	skipnc
  4832     0F1D  0A27               	incf	??___fladd+7,w
  4833     0F1E  07A3               	addwf	??___fladd+3,f
  4834     0F1F  0823               	movf	??___fladd+3,w
  4835     0F20  00F5               	movwf	___fladd@b+3
  4836     0F21  0822               	movf	??___fladd+2,w
  4837     0F22  00F4               	movwf	___fladd@b+2
  4838     0F23  0821               	movf	??___fladd+1,w
  4839     0F24  00F3               	movwf	___fladd@b+1
  4840     0F25  0820               	movf	??___fladd,w
  4841     0F26  00F2               	movwf	___fladd@b
  4842     0F27                     l6032:
  4843     0F27  3080               	movlw	128
  4844     0F28  00FF               	movwf	btemp+1
  4845     0F29  087F               	movf	btemp+1,w
  4846     0F2A  06A8               	xorwf	___fladd@signs,f
  4847     0F2B                     l6034:
  4848     0F2B  09AB               	comf	___fladd@grs,f
  4849     0F2C  0AAB               	incf	___fladd@grs,f
  4850     0F2D                     l6036:
  4851     0F2D  082B               	movf	___fladd@grs,w
  4852     0F2E  1D03               	btfss	3,2
  4853     0F2F  2F31               	goto	u7841
  4854     0F30  2F32               	goto	u7840
  4855     0F31                     u7841:
  4856     0F31  2F4F               	goto	l1572
  4857     0F32                     u7840:
  4858     0F32                     l6038:
  4859     0F32  3001               	movlw	1
  4860     0F33  07F2               	addwf	___fladd@b,f
  4861     0F34  3000               	movlw	0
  4862     0F35  1803               	skipnc
  4863     0F36  3001               	movlw	1
  4864     0F37  07F3               	addwf	___fladd@b+1,f
  4865     0F38  3000               	movlw	0
  4866     0F39  1803               	skipnc
  4867     0F3A  3001               	movlw	1
  4868     0F3B  07F4               	addwf	___fladd@b+2,f
  4869     0F3C  3000               	movlw	0
  4870     0F3D  1803               	skipnc
  4871     0F3E  3001               	movlw	1
  4872     0F3F  07F5               	addwf	___fladd@b+3,f
  4873     0F40  2F4F               	goto	l1572
  4874     0F41                     l6040:
  4875     0F41  0876               	movf	___fladd@a,w
  4876     0F42  02F2               	subwf	___fladd@b,f
  4877     0F43  0877               	movf	___fladd@a+1,w
  4878     0F44  1C03               	skipc
  4879     0F45  0F77               	incfsz	___fladd@a+1,w
  4880     0F46  02F3               	subwf	___fladd@b+1,f
  4881     0F47  0878               	movf	___fladd@a+2,w
  4882     0F48  1C03               	skipc
  4883     0F49  0F78               	incfsz	___fladd@a+2,w
  4884     0F4A  02F4               	subwf	___fladd@b+2,f
  4885     0F4B  0879               	movf	___fladd@a+3,w
  4886     0F4C  1C03               	skipc
  4887     0F4D  0F79               	incfsz	___fladd@a+3,w
  4888     0F4E  02F5               	subwf	___fladd@b+3,f
  4889     0F4F                     l1572:
  4890     0F4F  0875               	movf	___fladd@b+3,w
  4891     0F50  0474               	iorwf	___fladd@b+2,w
  4892     0F51  0473               	iorwf	___fladd@b+1,w
  4893     0F52  0472               	iorwf	___fladd@b,w
  4894     0F53  1D03               	skipz
  4895     0F54  2F56               	goto	u7851
  4896     0F55  2F57               	goto	u7850
  4897     0F56                     u7851:
  4898     0F56  2F83               	goto	l6062
  4899     0F57                     u7850:
  4900     0F57                     l6042:
  4901     0F57  082B               	movf	___fladd@grs,w
  4902     0F58  1D03               	btfss	3,2
  4903     0F59  2F5B               	goto	u7861
  4904     0F5A  2F5C               	goto	u7860
  4905     0F5B                     u7861:
  4906     0F5B  2F83               	goto	l6062
  4907     0F5C                     u7860:
  4908     0F5C                     l6044:
  4909     0F5C  3000               	movlw	0
  4910     0F5D  00F5               	movwf	?___fladd+3
  4911     0F5E  3000               	movlw	0
  4912     0F5F  00F4               	movwf	?___fladd+2
  4913     0F60  3000               	movlw	0
  4914     0F61  00F3               	movwf	?___fladd+1
  4915     0F62  3000               	movlw	0
  4916     0F63  00F2               	movwf	?___fladd
  4917     0F64  2FFF               	goto	l1564
  4918     0F65                     l6048:
  4919     0F65  3001               	movlw	1
  4920     0F66  00A0               	movwf	??___fladd
  4921     0F67                     u7875:
  4922     0F67  1003               	clrc
  4923     0F68  0DF2               	rlf	___fladd@b,f
  4924     0F69  0DF3               	rlf	___fladd@b+1,f
  4925     0F6A  0DF4               	rlf	___fladd@b+2,f
  4926     0F6B  0DF5               	rlf	___fladd@b+3,f
  4927     0F6C  0BA0               	decfsz	??___fladd,f
  4928     0F6D  2F67               	goto	u7875
  4929     0F6E                     l6050:
  4930     0F6E  1FAB               	btfss	___fladd@grs,7
  4931     0F6F  2F71               	goto	u7881
  4932     0F70  2F72               	goto	u7880
  4933     0F71                     u7881:
  4934     0F71  2F73               	goto	l1576
  4935     0F72                     u7880:
  4936     0F72                     l6052:
  4937     0F72  1472               	bsf	___fladd@b,0
  4938     0F73                     l1576:
  4939     0F73  1C2B               	btfss	___fladd@grs,0
  4940     0F74  2F76               	goto	u7891
  4941     0F75  2F77               	goto	u7890
  4942     0F76                     u7891:
  4943     0F76  2F7A               	goto	l6056
  4944     0F77                     u7890:
  4945     0F77                     l6054:
  4946     0F77  1403               	setc
  4947     0F78  0DAB               	rlf	___fladd@grs,f
  4948     0F79  2F7C               	goto	l6058
  4949     0F7A                     l6056:
  4950     0F7A  1003               	clrc
  4951     0F7B  0DAB               	rlf	___fladd@grs,f
  4952     0F7C                     l6058:
  4953     0F7C  082A               	movf	___fladd@bexp,w
  4954     0F7D  1903               	btfsc	3,2
  4955     0F7E  2F80               	goto	u7901
  4956     0F7F  2F81               	goto	u7900
  4957     0F80                     u7901:
  4958     0F80  2F83               	goto	l6062
  4959     0F81                     u7900:
  4960     0F81                     l6060:
  4961     0F81  3001               	movlw	1
  4962     0F82  02AA               	subwf	___fladd@bexp,f
  4963     0F83                     l6062:
  4964     0F83  1FF4               	btfss	___fladd@b+2,7
  4965     0F84  2F86               	goto	u7911
  4966     0F85  2F87               	goto	u7910
  4967     0F86                     u7911:
  4968     0F86  2F65               	goto	l6048
  4969     0F87                     u7910:
  4970     0F87                     l6064:
  4971     0F87  01A9               	clrf	___fladd@aexp
  4972     0F88                     l6066:
  4973     0F88  1FAB               	btfss	___fladd@grs,7
  4974     0F89  2F8B               	goto	u7921
  4975     0F8A  2F8C               	goto	u7920
  4976     0F8B                     u7921:
  4977     0F8B  2F9A               	goto	l6074
  4978     0F8C                     u7920:
  4979     0F8C                     l6068:
  4980     0F8C  082B               	movf	___fladd@grs,w
  4981     0F8D  397F               	andlw	127
  4982     0F8E  1903               	btfsc	3,2
  4983     0F8F  2F91               	goto	u7931
  4984     0F90  2F92               	goto	u7930
  4985     0F91                     u7931:
  4986     0F91  2F95               	goto	l1582
  4987     0F92                     u7930:
  4988     0F92                     l6070:
  4989     0F92  01A9               	clrf	___fladd@aexp
  4990     0F93  0AA9               	incf	___fladd@aexp,f
  4991     0F94  2F9A               	goto	l6074
  4992     0F95                     l1582:
  4993     0F95  1C72               	btfss	___fladd@b,0
  4994     0F96  2F98               	goto	u7941
  4995     0F97  2F99               	goto	u7940
  4996     0F98                     u7941:
  4997     0F98  2F9A               	goto	l6074
  4998     0F99                     u7940:
  4999     0F99  2F92               	goto	l6070
  5000     0F9A                     l6074:
  5001     0F9A  0829               	movf	___fladd@aexp,w
  5002     0F9B  1903               	btfsc	3,2
  5003     0F9C  2F9E               	goto	u7951
  5004     0F9D  2F9F               	goto	u7950
  5005     0F9E                     u7951:
  5006     0F9E  2FD3               	goto	l6084
  5007     0F9F                     u7950:
  5008     0F9F                     l6076:
  5009     0F9F  3001               	movlw	1
  5010     0FA0  07F2               	addwf	___fladd@b,f
  5011     0FA1  3000               	movlw	0
  5012     0FA2  1803               	skipnc
  5013     0FA3  3001               	movlw	1
  5014     0FA4  07F3               	addwf	___fladd@b+1,f
  5015     0FA5  3000               	movlw	0
  5016     0FA6  1803               	skipnc
  5017     0FA7  3001               	movlw	1
  5018     0FA8  07F4               	addwf	___fladd@b+2,f
  5019     0FA9  3000               	movlw	0
  5020     0FAA  1803               	skipnc
  5021     0FAB  3001               	movlw	1
  5022     0FAC  07F5               	addwf	___fladd@b+3,f
  5023     0FAD                     l6078:
  5024     0FAD  1C75               	btfss	___fladd@b+3,0
  5025     0FAE  2FB0               	goto	u7961
  5026     0FAF  2FB1               	goto	u7960
  5027     0FB0                     u7961:
  5028     0FB0  2FD3               	goto	l6084
  5029     0FB1                     u7960:
  5030     0FB1                     l6080:
  5031     0FB1  0872               	movf	___fladd@b,w
  5032     0FB2  00A0               	movwf	??___fladd
  5033     0FB3  0873               	movf	___fladd@b+1,w
  5034     0FB4  00A1               	movwf	??___fladd+1
  5035     0FB5  0874               	movf	___fladd@b+2,w
  5036     0FB6  00A2               	movwf	??___fladd+2
  5037     0FB7  0875               	movf	___fladd@b+3,w
  5038     0FB8  00A3               	movwf	??___fladd+3
  5039     0FB9  3001               	movlw	1
  5040     0FBA  00A4               	movwf	??___fladd+4
  5041     0FBB                     u7975:
  5042     0FBB  0D23               	rlf	??___fladd+3,w
  5043     0FBC  0CA3               	rrf	??___fladd+3,f
  5044     0FBD  0CA2               	rrf	??___fladd+2,f
  5045     0FBE  0CA1               	rrf	??___fladd+1,f
  5046     0FBF  0CA0               	rrf	??___fladd,f
  5047     0FC0                     u7970:
  5048     0FC0  0BA4               	decfsz	??___fladd+4,f
  5049     0FC1  2FBB               	goto	u7975
  5050     0FC2  0823               	movf	??___fladd+3,w
  5051     0FC3  00F5               	movwf	___fladd@b+3
  5052     0FC4  0822               	movf	??___fladd+2,w
  5053     0FC5  00F4               	movwf	___fladd@b+2
  5054     0FC6  0821               	movf	??___fladd+1,w
  5055     0FC7  00F3               	movwf	___fladd@b+1
  5056     0FC8  0820               	movf	??___fladd,w
  5057     0FC9  00F2               	movwf	___fladd@b
  5058     0FCA  0A2A               	incf	___fladd@bexp,w
  5059     0FCB  1903               	btfsc	3,2
  5060     0FCC  2FCE               	goto	u7981
  5061     0FCD  2FCF               	goto	u7980
  5062     0FCE                     u7981:
  5063     0FCE  2FD3               	goto	l6084
  5064     0FCF                     u7980:
  5065     0FCF                     l6082:
  5066     0FCF  3001               	movlw	1
  5067     0FD0  00FF               	movwf	btemp+1
  5068     0FD1  087F               	movf	btemp+1,w
  5069     0FD2  07AA               	addwf	___fladd@bexp,f
  5070     0FD3                     l6084:
  5071     0FD3  0A2A               	incf	___fladd@bexp,w
  5072     0FD4  1903               	btfsc	3,2
  5073     0FD5  2FD7               	goto	u7991
  5074     0FD6  2FD8               	goto	u7990
  5075     0FD7                     u7991:
  5076     0FD7  2FDD               	goto	l6088
  5077     0FD8                     u7990:
  5078     0FD8                     l6086:
  5079     0FD8  082A               	movf	___fladd@bexp,w
  5080     0FD9  1D03               	btfss	3,2
  5081     0FDA  2FDC               	goto	u8001
  5082     0FDB  2FDD               	goto	u8000
  5083     0FDC                     u8001:
  5084     0FDC  2FEB               	goto	l6094
  5085     0FDD                     u8000:
  5086     0FDD                     l6088:
  5087     0FDD  3000               	movlw	0
  5088     0FDE  00F5               	movwf	___fladd@b+3
  5089     0FDF  3000               	movlw	0
  5090     0FE0  00F4               	movwf	___fladd@b+2
  5091     0FE1  3000               	movlw	0
  5092     0FE2  00F3               	movwf	___fladd@b+1
  5093     0FE3  3000               	movlw	0
  5094     0FE4  00F2               	movwf	___fladd@b
  5095     0FE5                     l6090:
  5096     0FE5  082A               	movf	___fladd@bexp,w
  5097     0FE6  1D03               	btfss	3,2
  5098     0FE7  2FE9               	goto	u8011
  5099     0FE8  2FEA               	goto	u8010
  5100     0FE9                     u8011:
  5101     0FE9  2FEB               	goto	l6094
  5102     0FEA                     u8010:
  5103     0FEA                     l6092:
  5104     0FEA  01A8               	clrf	___fladd@signs
  5105     0FEB                     l6094:
  5106     0FEB  1C2A               	btfss	___fladd@bexp,0
  5107     0FEC  2FEE               	goto	u8021
  5108     0FED  2FEF               	goto	u8020
  5109     0FEE                     u8021:
  5110     0FEE  2FF1               	goto	l6098
  5111     0FEF                     u8020:
  5112     0FEF                     l6096:
  5113     0FEF  17F4               	bsf	___fladd@b+2,7
  5114     0FF0  2FF5               	goto	l6100
  5115     0FF1                     l6098:
  5116     0FF1  307F               	movlw	127
  5117     0FF2  00FF               	movwf	btemp+1
  5118     0FF3  087F               	movf	btemp+1,w
  5119     0FF4  05F4               	andwf	___fladd@b+2,f
  5120     0FF5                     l6100:
  5121     0FF5  082A               	movf	___fladd@bexp,w
  5122     0FF6  00A0               	movwf	??___fladd
  5123     0FF7  1003               	clrc
  5124     0FF8  0C20               	rrf	??___fladd,w
  5125     0FF9  00F5               	movwf	___fladd@b+3
  5126     0FFA                     l6102:
  5127     0FFA  1FA8               	btfss	___fladd@signs,7
  5128     0FFB  2FFD               	goto	u8031
  5129     0FFC  2FFE               	goto	u8030
  5130     0FFD                     u8031:
  5131     0FFD  2FFF               	goto	l1594
  5132     0FFE                     u8030:
  5133     0FFE                     l6104:
  5134     0FFE  17F5               	bsf	___fladd@b+3,7
  5135     0FFF                     l1594:
  5136     0FFF                     l1564:
  5137     0FFF  0008               	return
  5138     1000                     __end_of___fladd:
  5139                           
  5140                           	psect	text9
  5141     0038                     __ptext9:	
  5142 ;; *************** function ___flmul *****************
  5143 ;; Defined at:
  5144 ;;		line 8 in file "E:\Microchip\xc8\v2.41\pic\sources\c90\common\sprcmul.c"
  5145 ;; Parameters:    Size  Location     Type
  5146 ;;  b               4    5[BANK0 ] unsigned char 
  5147 ;;  a               4    9[BANK0 ] unsigned char 
  5148 ;; Auto vars:     Size  Location     Type
  5149 ;;  prod            4   25[BANK0 ] struct .
  5150 ;;  grs             4   20[BANK0 ] unsigned long 
  5151 ;;  temp            2   29[BANK0 ] struct .
  5152 ;;  bexp            1   24[BANK0 ] unsigned char 
  5153 ;;  aexp            1   19[BANK0 ] unsigned char 
  5154 ;;  sign            1   18[BANK0 ] unsigned char 
  5155 ;; Return value:  Size  Location     Type
  5156 ;;                  4    5[BANK0 ] unsigned char 
  5157 ;; Registers used:
  5158 ;;		wreg, status,2, status,0, btemp+1, pclath, cstack
  5159 ;; Tracked objects:
  5160 ;;		On entry : 0/0
  5161 ;;		On exit  : 0/0
  5162 ;;		Unchanged: 0/0
  5163 ;; Data sizes:     COMMON   BANK0   BANK1   BANK3   BANK2
  5164 ;;      Params:         0       8       0       0       0
  5165 ;;      Locals:         0      13       0       0       0
  5166 ;;      Temps:          0       5       0       0       0
  5167 ;;      Totals:         0      26       0       0       0
  5168 ;;Total ram usage:       26 bytes
  5169 ;; Hardware stack levels used: 1
  5170 ;; Hardware stack levels required when called: 2
  5171 ;; This function calls:
  5172 ;;		__Umul8_16
  5173 ;; This function is called by:
  5174 ;;		_LCD_DisplayFloatNumber
  5175 ;;		_DS_Read_temperature
  5176 ;; This function uses a non-reentrant model
  5177 ;;
  5178                           
  5179     0038                     ___flmul:	
  5180                           ;psect for function ___flmul
  5181                           
  5182     0038                     l6222:	
  5183                           ;incstack = 0
  5184                           ; Regs used in ___flmul: [wreg+status,2+status,0+btemp+1+pclath+cstack]
  5185                           
  5186     0038  1283               	bcf	3,5	;RP0=0, select bank0
  5187     0039  1303               	bcf	3,6	;RP1=0, select bank0
  5188     003A  0828               	movf	___flmul@b+3,w
  5189     003B  3980               	andlw	128
  5190     003C  00B2               	movwf	___flmul@sign
  5191     003D                     l6224:
  5192     003D  0828               	movf	___flmul@b+3,w
  5193     003E  00AD               	movwf	??___flmul
  5194     003F  072D               	addwf	??___flmul,w
  5195     0040  00B8               	movwf	___flmul@bexp
  5196     0041                     l6226:
  5197     0041  1FA7               	btfss	___flmul@b+2,7
  5198     0042  2844               	goto	u8301
  5199     0043  2845               	goto	u8300
  5200     0044                     u8301:
  5201     0044  2846               	goto	l6230
  5202     0045                     u8300:
  5203     0045                     l6228:
  5204     0045  1438               	bsf	___flmul@bexp,0
  5205     0046                     l6230:
  5206     0046  0838               	movf	___flmul@bexp,w
  5207     0047  1903               	btfsc	3,2
  5208     0048  284A               	goto	u8311
  5209     0049  284B               	goto	u8310
  5210     004A                     u8311:
  5211     004A  285A               	goto	l6238
  5212     004B                     u8310:
  5213     004B                     l6232:
  5214     004B  0A38               	incf	___flmul@bexp,w
  5215     004C  1D03               	btfss	3,2
  5216     004D  284F               	goto	u8321
  5217     004E  2850               	goto	u8320
  5218     004F                     u8321:
  5219     004F  2858               	goto	l6236
  5220     0050                     u8320:
  5221     0050                     l6234:
  5222     0050  3000               	movlw	0
  5223     0051  00A8               	movwf	___flmul@b+3
  5224     0052  3000               	movlw	0
  5225     0053  00A7               	movwf	___flmul@b+2
  5226     0054  3000               	movlw	0
  5227     0055  00A6               	movwf	___flmul@b+1
  5228     0056  3000               	movlw	0
  5229     0057  00A5               	movwf	___flmul@b
  5230     0058                     l6236:
  5231     0058  17A7               	bsf	___flmul@b+2,7
  5232     0059  2862               	goto	l6240
  5233     005A                     l6238:
  5234     005A  3000               	movlw	0
  5235     005B  00A8               	movwf	___flmul@b+3
  5236     005C  3000               	movlw	0
  5237     005D  00A7               	movwf	___flmul@b+2
  5238     005E  3000               	movlw	0
  5239     005F  00A6               	movwf	___flmul@b+1
  5240     0060  3000               	movlw	0
  5241     0061  00A5               	movwf	___flmul@b
  5242     0062                     l6240:
  5243     0062  082C               	movf	___flmul@a+3,w
  5244     0063  3980               	andlw	128
  5245     0064  00FF               	movwf	btemp+1
  5246     0065  087F               	movf	btemp+1,w
  5247     0066  06B2               	xorwf	___flmul@sign,f
  5248     0067                     l6242:
  5249     0067  082C               	movf	___flmul@a+3,w
  5250     0068  00AD               	movwf	??___flmul
  5251     0069  072D               	addwf	??___flmul,w
  5252     006A  00B3               	movwf	___flmul@aexp
  5253     006B                     l6244:
  5254     006B  1FAB               	btfss	___flmul@a+2,7
  5255     006C  286E               	goto	u8331
  5256     006D  286F               	goto	u8330
  5257     006E                     u8331:
  5258     006E  2870               	goto	l6248
  5259     006F                     u8330:
  5260     006F                     l6246:
  5261     006F  1433               	bsf	___flmul@aexp,0
  5262     0070                     l6248:
  5263     0070  0833               	movf	___flmul@aexp,w
  5264     0071  1903               	btfsc	3,2
  5265     0072  2874               	goto	u8341
  5266     0073  2875               	goto	u8340
  5267     0074                     u8341:
  5268     0074  2884               	goto	l6256
  5269     0075                     u8340:
  5270     0075                     l6250:
  5271     0075  0A33               	incf	___flmul@aexp,w
  5272     0076  1D03               	btfss	3,2
  5273     0077  2879               	goto	u8351
  5274     0078  287A               	goto	u8350
  5275     0079                     u8351:
  5276     0079  2882               	goto	l6254
  5277     007A                     u8350:
  5278     007A                     l6252:
  5279     007A  3000               	movlw	0
  5280     007B  00AC               	movwf	___flmul@a+3
  5281     007C  3000               	movlw	0
  5282     007D  00AB               	movwf	___flmul@a+2
  5283     007E  3000               	movlw	0
  5284     007F  00AA               	movwf	___flmul@a+1
  5285     0080  3000               	movlw	0
  5286     0081  00A9               	movwf	___flmul@a
  5287     0082                     l6254:
  5288     0082  17AB               	bsf	___flmul@a+2,7
  5289     0083  288C               	goto	l6258
  5290     0084                     l6256:
  5291     0084  3000               	movlw	0
  5292     0085  00AC               	movwf	___flmul@a+3
  5293     0086  3000               	movlw	0
  5294     0087  00AB               	movwf	___flmul@a+2
  5295     0088  3000               	movlw	0
  5296     0089  00AA               	movwf	___flmul@a+1
  5297     008A  3000               	movlw	0
  5298     008B  00A9               	movwf	___flmul@a
  5299     008C                     l6258:
  5300     008C  0833               	movf	___flmul@aexp,w
  5301     008D  1903               	btfsc	3,2
  5302     008E  2890               	goto	u8361
  5303     008F  2891               	goto	u8360
  5304     0090                     u8361:
  5305     0090  2896               	goto	l6262
  5306     0091                     u8360:
  5307     0091                     l6260:
  5308     0091  0838               	movf	___flmul@bexp,w
  5309     0092  1D03               	btfss	3,2
  5310     0093  2895               	goto	u8371
  5311     0094  2896               	goto	u8370
  5312     0095                     u8371:
  5313     0095  289F               	goto	l6266
  5314     0096                     u8370:
  5315     0096                     l6262:
  5316     0096  3000               	movlw	0
  5317     0097  00A8               	movwf	?___flmul+3
  5318     0098  3000               	movlw	0
  5319     0099  00A7               	movwf	?___flmul+2
  5320     009A  3000               	movlw	0
  5321     009B  00A6               	movwf	?___flmul+1
  5322     009C  3000               	movlw	0
  5323     009D  00A5               	movwf	?___flmul
  5324     009E  2B7C               	goto	l1647
  5325     009F                     l6266:
  5326     009F  0825               	movf	___flmul@b,w
  5327     00A0  00F2               	movwf	__Umul8_16@multiplicand
  5328     00A1  082B               	movf	___flmul@a+2,w
  5329     00A2  160A  118A  25BE  120A  118A  	fcall	__Umul8_16
  5330     00A7  0873               	movf	?__Umul8_16+1,w
  5331     00A8  1283               	bcf	3,5	;RP0=0, select bank0
  5332     00A9  1303               	bcf	3,6	;RP1=0, select bank0
  5333     00AA  00BE               	movwf	___flmul@temp+1
  5334     00AB  0872               	movf	?__Umul8_16,w
  5335     00AC  00BD               	movwf	___flmul@temp
  5336     00AD                     l6268:
  5337     00AD  083D               	movf	___flmul@temp,w
  5338     00AE  00AD               	movwf	??___flmul
  5339     00AF  01AE               	clrf	??___flmul+1
  5340     00B0  01AF               	clrf	??___flmul+2
  5341     00B1  01B0               	clrf	??___flmul+3
  5342     00B2  0830               	movf	??___flmul+3,w
  5343     00B3  00B7               	movwf	___flmul@grs+3
  5344     00B4  082F               	movf	??___flmul+2,w
  5345     00B5  00B6               	movwf	___flmul@grs+2
  5346     00B6  082E               	movf	??___flmul+1,w
  5347     00B7  00B5               	movwf	___flmul@grs+1
  5348     00B8  082D               	movf	??___flmul,w
  5349     00B9  00B4               	movwf	___flmul@grs
  5350     00BA                     l6270:
  5351     00BA  083E               	movf	___flmul@temp+1,w
  5352     00BB  00AD               	movwf	??___flmul
  5353     00BC  01AE               	clrf	??___flmul+1
  5354     00BD  01AF               	clrf	??___flmul+2
  5355     00BE  01B0               	clrf	??___flmul+3
  5356     00BF  0830               	movf	??___flmul+3,w
  5357     00C0  00BC               	movwf	___flmul@prod+3
  5358     00C1  082F               	movf	??___flmul+2,w
  5359     00C2  00BB               	movwf	___flmul@prod+2
  5360     00C3  082E               	movf	??___flmul+1,w
  5361     00C4  00BA               	movwf	___flmul@prod+1
  5362     00C5  082D               	movf	??___flmul,w
  5363     00C6  00B9               	movwf	___flmul@prod
  5364     00C7  0826               	movf	___flmul@b+1,w
  5365     00C8  00F2               	movwf	__Umul8_16@multiplicand
  5366     00C9  082A               	movf	___flmul@a+1,w
  5367     00CA  160A  118A  25BE  120A  118A  	fcall	__Umul8_16
  5368     00CF  0873               	movf	?__Umul8_16+1,w
  5369     00D0  1283               	bcf	3,5	;RP0=0, select bank0
  5370     00D1  1303               	bcf	3,6	;RP1=0, select bank0
  5371     00D2  00BE               	movwf	___flmul@temp+1
  5372     00D3  0872               	movf	?__Umul8_16,w
  5373     00D4  00BD               	movwf	___flmul@temp
  5374     00D5                     l6272:
  5375     00D5  083D               	movf	___flmul@temp,w
  5376     00D6  00AD               	movwf	??___flmul
  5377     00D7  01AE               	clrf	??___flmul+1
  5378     00D8  01AF               	clrf	??___flmul+2
  5379     00D9  01B0               	clrf	??___flmul+3
  5380     00DA  082D               	movf	??___flmul,w
  5381     00DB  07B4               	addwf	___flmul@grs,f
  5382     00DC  082E               	movf	??___flmul+1,w
  5383     00DD  1103               	clrz
  5384     00DE  1803               	skipnc
  5385     00DF  3E01               	addlw	1
  5386     00E0  1903               	skipnz
  5387     00E1  28E3               	goto	u8381
  5388     00E2  07B5               	addwf	___flmul@grs+1,f
  5389     00E3                     u8381:
  5390     00E3  082F               	movf	??___flmul+2,w
  5391     00E4  1103               	clrz
  5392     00E5  1803               	skipnc
  5393     00E6  3E01               	addlw	1
  5394     00E7  1903               	skipnz
  5395     00E8  28EA               	goto	u8382
  5396     00E9  07B6               	addwf	___flmul@grs+2,f
  5397     00EA                     u8382:
  5398     00EA  0830               	movf	??___flmul+3,w
  5399     00EB  1103               	clrz
  5400     00EC  1803               	skipnc
  5401     00ED  3E01               	addlw	1
  5402     00EE  1903               	skipnz
  5403     00EF  28F1               	goto	u8383
  5404     00F0  07B7               	addwf	___flmul@grs+3,f
  5405     00F1                     u8383:
  5406     00F1                     l6274:
  5407     00F1  083E               	movf	___flmul@temp+1,w
  5408     00F2  00AD               	movwf	??___flmul
  5409     00F3  01AE               	clrf	??___flmul+1
  5410     00F4  01AF               	clrf	??___flmul+2
  5411     00F5  01B0               	clrf	??___flmul+3
  5412     00F6  082D               	movf	??___flmul,w
  5413     00F7  07B9               	addwf	___flmul@prod,f
  5414     00F8  082E               	movf	??___flmul+1,w
  5415     00F9  1103               	clrz
  5416     00FA  1803               	skipnc
  5417     00FB  3E01               	addlw	1
  5418     00FC  1903               	skipnz
  5419     00FD  28FF               	goto	u8391
  5420     00FE  07BA               	addwf	___flmul@prod+1,f
  5421     00FF                     u8391:
  5422     00FF  082F               	movf	??___flmul+2,w
  5423     0100  1103               	clrz
  5424     0101  1803               	skipnc
  5425     0102  3E01               	addlw	1
  5426     0103  1903               	skipnz
  5427     0104  2906               	goto	u8392
  5428     0105  07BB               	addwf	___flmul@prod+2,f
  5429     0106                     u8392:
  5430     0106  0830               	movf	??___flmul+3,w
  5431     0107  1103               	clrz
  5432     0108  1803               	skipnc
  5433     0109  3E01               	addlw	1
  5434     010A  1903               	skipnz
  5435     010B  290D               	goto	u8393
  5436     010C  07BC               	addwf	___flmul@prod+3,f
  5437     010D                     u8393:
  5438     010D  0827               	movf	___flmul@b+2,w
  5439     010E  00F2               	movwf	__Umul8_16@multiplicand
  5440     010F  0829               	movf	___flmul@a,w
  5441     0110  160A  118A  25BE  120A  118A  	fcall	__Umul8_16
  5442     0115  0873               	movf	?__Umul8_16+1,w
  5443     0116  1283               	bcf	3,5	;RP0=0, select bank0
  5444     0117  1303               	bcf	3,6	;RP1=0, select bank0
  5445     0118  00BE               	movwf	___flmul@temp+1
  5446     0119  0872               	movf	?__Umul8_16,w
  5447     011A  00BD               	movwf	___flmul@temp
  5448     011B                     l6276:
  5449     011B  083D               	movf	___flmul@temp,w
  5450     011C  00AD               	movwf	??___flmul
  5451     011D  01AE               	clrf	??___flmul+1
  5452     011E  01AF               	clrf	??___flmul+2
  5453     011F  01B0               	clrf	??___flmul+3
  5454     0120  082D               	movf	??___flmul,w
  5455     0121  07B4               	addwf	___flmul@grs,f
  5456     0122  082E               	movf	??___flmul+1,w
  5457     0123  1103               	clrz
  5458     0124  1803               	skipnc
  5459     0125  3E01               	addlw	1
  5460     0126  1903               	skipnz
  5461     0127  2929               	goto	u8401
  5462     0128  07B5               	addwf	___flmul@grs+1,f
  5463     0129                     u8401:
  5464     0129  082F               	movf	??___flmul+2,w
  5465     012A  1103               	clrz
  5466     012B  1803               	skipnc
  5467     012C  3E01               	addlw	1
  5468     012D  1903               	skipnz
  5469     012E  2930               	goto	u8402
  5470     012F  07B6               	addwf	___flmul@grs+2,f
  5471     0130                     u8402:
  5472     0130  0830               	movf	??___flmul+3,w
  5473     0131  1103               	clrz
  5474     0132  1803               	skipnc
  5475     0133  3E01               	addlw	1
  5476     0134  1903               	skipnz
  5477     0135  2937               	goto	u8403
  5478     0136  07B7               	addwf	___flmul@grs+3,f
  5479     0137                     u8403:
  5480     0137                     l6278:
  5481     0137  083E               	movf	___flmul@temp+1,w
  5482     0138  00AD               	movwf	??___flmul
  5483     0139  01AE               	clrf	??___flmul+1
  5484     013A  01AF               	clrf	??___flmul+2
  5485     013B  01B0               	clrf	??___flmul+3
  5486     013C  082D               	movf	??___flmul,w
  5487     013D  07B9               	addwf	___flmul@prod,f
  5488     013E  082E               	movf	??___flmul+1,w
  5489     013F  1103               	clrz
  5490     0140  1803               	skipnc
  5491     0141  3E01               	addlw	1
  5492     0142  1903               	skipnz
  5493     0143  2945               	goto	u8411
  5494     0144  07BA               	addwf	___flmul@prod+1,f
  5495     0145                     u8411:
  5496     0145  082F               	movf	??___flmul+2,w
  5497     0146  1103               	clrz
  5498     0147  1803               	skipnc
  5499     0148  3E01               	addlw	1
  5500     0149  1903               	skipnz
  5501     014A  294C               	goto	u8412
  5502     014B  07BB               	addwf	___flmul@prod+2,f
  5503     014C                     u8412:
  5504     014C  0830               	movf	??___flmul+3,w
  5505     014D  1103               	clrz
  5506     014E  1803               	skipnc
  5507     014F  3E01               	addlw	1
  5508     0150  1903               	skipnz
  5509     0151  2953               	goto	u8413
  5510     0152  07BC               	addwf	___flmul@prod+3,f
  5511     0153                     u8413:
  5512     0153                     l6280:
  5513     0153  3008               	movlw	8
  5514     0154  00AD               	movwf	??___flmul
  5515     0155                     u8425:
  5516     0155  1003               	clrc
  5517     0156  0DB4               	rlf	___flmul@grs,f
  5518     0157  0DB5               	rlf	___flmul@grs+1,f
  5519     0158  0DB6               	rlf	___flmul@grs+2,f
  5520     0159  0DB7               	rlf	___flmul@grs+3,f
  5521     015A  0BAD               	decfsz	??___flmul,f
  5522     015B  2955               	goto	u8425
  5523     015C                     l6282:
  5524     015C  0826               	movf	___flmul@b+1,w
  5525     015D  00F2               	movwf	__Umul8_16@multiplicand
  5526     015E  0829               	movf	___flmul@a,w
  5527     015F  160A  118A  25BE  120A  118A  	fcall	__Umul8_16
  5528     0164  0873               	movf	?__Umul8_16+1,w
  5529     0165  1283               	bcf	3,5	;RP0=0, select bank0
  5530     0166  1303               	bcf	3,6	;RP1=0, select bank0
  5531     0167  00BE               	movwf	___flmul@temp+1
  5532     0168  0872               	movf	?__Umul8_16,w
  5533     0169  00BD               	movwf	___flmul@temp
  5534     016A                     l6284:
  5535     016A  083D               	movf	___flmul@temp,w
  5536     016B  00AD               	movwf	??___flmul
  5537     016C  083E               	movf	___flmul@temp+1,w
  5538     016D  00AE               	movwf	??___flmul+1
  5539     016E  01AF               	clrf	??___flmul+2
  5540     016F  01B0               	clrf	??___flmul+3
  5541     0170  082D               	movf	??___flmul,w
  5542     0171  07B4               	addwf	___flmul@grs,f
  5543     0172  082E               	movf	??___flmul+1,w
  5544     0173  1103               	clrz
  5545     0174  1803               	skipnc
  5546     0175  3E01               	addlw	1
  5547     0176  1903               	skipnz
  5548     0177  2979               	goto	u8431
  5549     0178  07B5               	addwf	___flmul@grs+1,f
  5550     0179                     u8431:
  5551     0179  082F               	movf	??___flmul+2,w
  5552     017A  1103               	clrz
  5553     017B  1803               	skipnc
  5554     017C  3E01               	addlw	1
  5555     017D  1903               	skipnz
  5556     017E  2980               	goto	u8432
  5557     017F  07B6               	addwf	___flmul@grs+2,f
  5558     0180                     u8432:
  5559     0180  0830               	movf	??___flmul+3,w
  5560     0181  1103               	clrz
  5561     0182  1803               	skipnc
  5562     0183  3E01               	addlw	1
  5563     0184  1903               	skipnz
  5564     0185  2987               	goto	u8433
  5565     0186  07B7               	addwf	___flmul@grs+3,f
  5566     0187                     u8433:
  5567     0187                     l6286:
  5568     0187  0825               	movf	___flmul@b,w
  5569     0188  00F2               	movwf	__Umul8_16@multiplicand
  5570     0189  082A               	movf	___flmul@a+1,w
  5571     018A  160A  118A  25BE  120A  118A  	fcall	__Umul8_16
  5572     018F  0873               	movf	?__Umul8_16+1,w
  5573     0190  1283               	bcf	3,5	;RP0=0, select bank0
  5574     0191  1303               	bcf	3,6	;RP1=0, select bank0
  5575     0192  00BE               	movwf	___flmul@temp+1
  5576     0193  0872               	movf	?__Umul8_16,w
  5577     0194  00BD               	movwf	___flmul@temp
  5578     0195                     l6288:
  5579     0195  083D               	movf	___flmul@temp,w
  5580     0196  00AD               	movwf	??___flmul
  5581     0197  083E               	movf	___flmul@temp+1,w
  5582     0198  00AE               	movwf	??___flmul+1
  5583     0199  01AF               	clrf	??___flmul+2
  5584     019A  01B0               	clrf	??___flmul+3
  5585     019B  082D               	movf	??___flmul,w
  5586     019C  07B4               	addwf	___flmul@grs,f
  5587     019D  082E               	movf	??___flmul+1,w
  5588     019E  1103               	clrz
  5589     019F  1803               	skipnc
  5590     01A0  3E01               	addlw	1
  5591     01A1  1903               	skipnz
  5592     01A2  29A4               	goto	u8441
  5593     01A3  07B5               	addwf	___flmul@grs+1,f
  5594     01A4                     u8441:
  5595     01A4  082F               	movf	??___flmul+2,w
  5596     01A5  1103               	clrz
  5597     01A6  1803               	skipnc
  5598     01A7  3E01               	addlw	1
  5599     01A8  1903               	skipnz
  5600     01A9  29AB               	goto	u8442
  5601     01AA  07B6               	addwf	___flmul@grs+2,f
  5602     01AB                     u8442:
  5603     01AB  0830               	movf	??___flmul+3,w
  5604     01AC  1103               	clrz
  5605     01AD  1803               	skipnc
  5606     01AE  3E01               	addlw	1
  5607     01AF  1903               	skipnz
  5608     01B0  29B2               	goto	u8443
  5609     01B1  07B7               	addwf	___flmul@grs+3,f
  5610     01B2                     u8443:
  5611     01B2                     l6290:
  5612     01B2  3008               	movlw	8
  5613     01B3  00AD               	movwf	??___flmul
  5614     01B4                     u8455:
  5615     01B4  1003               	clrc
  5616     01B5  0DB4               	rlf	___flmul@grs,f
  5617     01B6  0DB5               	rlf	___flmul@grs+1,f
  5618     01B7  0DB6               	rlf	___flmul@grs+2,f
  5619     01B8  0DB7               	rlf	___flmul@grs+3,f
  5620     01B9  0BAD               	decfsz	??___flmul,f
  5621     01BA  29B4               	goto	u8455
  5622     01BB  0825               	movf	___flmul@b,w
  5623     01BC  00F2               	movwf	__Umul8_16@multiplicand
  5624     01BD  0829               	movf	___flmul@a,w
  5625     01BE  160A  118A  25BE  120A  118A  	fcall	__Umul8_16
  5626     01C3  0873               	movf	?__Umul8_16+1,w
  5627     01C4  1283               	bcf	3,5	;RP0=0, select bank0
  5628     01C5  1303               	bcf	3,6	;RP1=0, select bank0
  5629     01C6  00BE               	movwf	___flmul@temp+1
  5630     01C7  0872               	movf	?__Umul8_16,w
  5631     01C8  00BD               	movwf	___flmul@temp
  5632     01C9                     l6292:
  5633     01C9  083D               	movf	___flmul@temp,w
  5634     01CA  00AD               	movwf	??___flmul
  5635     01CB  083E               	movf	___flmul@temp+1,w
  5636     01CC  00AE               	movwf	??___flmul+1
  5637     01CD  01AF               	clrf	??___flmul+2
  5638     01CE  01B0               	clrf	??___flmul+3
  5639     01CF  082D               	movf	??___flmul,w
  5640     01D0  07B4               	addwf	___flmul@grs,f
  5641     01D1  082E               	movf	??___flmul+1,w
  5642     01D2  1103               	clrz
  5643     01D3  1803               	skipnc
  5644     01D4  3E01               	addlw	1
  5645     01D5  1903               	skipnz
  5646     01D6  29D8               	goto	u8461
  5647     01D7  07B5               	addwf	___flmul@grs+1,f
  5648     01D8                     u8461:
  5649     01D8  082F               	movf	??___flmul+2,w
  5650     01D9  1103               	clrz
  5651     01DA  1803               	skipnc
  5652     01DB  3E01               	addlw	1
  5653     01DC  1903               	skipnz
  5654     01DD  29DF               	goto	u8462
  5655     01DE  07B6               	addwf	___flmul@grs+2,f
  5656     01DF                     u8462:
  5657     01DF  0830               	movf	??___flmul+3,w
  5658     01E0  1103               	clrz
  5659     01E1  1803               	skipnc
  5660     01E2  3E01               	addlw	1
  5661     01E3  1903               	skipnz
  5662     01E4  29E6               	goto	u8463
  5663     01E5  07B7               	addwf	___flmul@grs+3,f
  5664     01E6                     u8463:
  5665     01E6                     l6294:
  5666     01E6  0826               	movf	___flmul@b+1,w
  5667     01E7  00F2               	movwf	__Umul8_16@multiplicand
  5668     01E8  082B               	movf	___flmul@a+2,w
  5669     01E9  160A  118A  25BE  120A  118A  	fcall	__Umul8_16
  5670     01EE  0873               	movf	?__Umul8_16+1,w
  5671     01EF  1283               	bcf	3,5	;RP0=0, select bank0
  5672     01F0  1303               	bcf	3,6	;RP1=0, select bank0
  5673     01F1  00BE               	movwf	___flmul@temp+1
  5674     01F2  0872               	movf	?__Umul8_16,w
  5675     01F3  00BD               	movwf	___flmul@temp
  5676     01F4  083D               	movf	___flmul@temp,w
  5677     01F5  00AD               	movwf	??___flmul
  5678     01F6  083E               	movf	___flmul@temp+1,w
  5679     01F7  00AE               	movwf	??___flmul+1
  5680     01F8  01AF               	clrf	??___flmul+2
  5681     01F9  01B0               	clrf	??___flmul+3
  5682     01FA  082D               	movf	??___flmul,w
  5683     01FB  07B9               	addwf	___flmul@prod,f
  5684     01FC  082E               	movf	??___flmul+1,w
  5685     01FD  1103               	clrz
  5686     01FE  1803               	skipnc
  5687     01FF  3E01               	addlw	1
  5688     0200  1903               	skipnz
  5689     0201  2A03               	goto	u8471
  5690     0202  07BA               	addwf	___flmul@prod+1,f
  5691     0203                     u8471:
  5692     0203  082F               	movf	??___flmul+2,w
  5693     0204  1103               	clrz
  5694     0205  1803               	skipnc
  5695     0206  3E01               	addlw	1
  5696     0207  1903               	skipnz
  5697     0208  2A0A               	goto	u8472
  5698     0209  07BB               	addwf	___flmul@prod+2,f
  5699     020A                     u8472:
  5700     020A  0830               	movf	??___flmul+3,w
  5701     020B  1103               	clrz
  5702     020C  1803               	skipnc
  5703     020D  3E01               	addlw	1
  5704     020E  1903               	skipnz
  5705     020F  2A11               	goto	u8473
  5706     0210  07BC               	addwf	___flmul@prod+3,f
  5707     0211                     u8473:
  5708     0211                     l6296:
  5709     0211  0827               	movf	___flmul@b+2,w
  5710     0212  00F2               	movwf	__Umul8_16@multiplicand
  5711     0213  082A               	movf	___flmul@a+1,w
  5712     0214  160A  118A  25BE  120A  118A  	fcall	__Umul8_16
  5713     0219  0873               	movf	?__Umul8_16+1,w
  5714     021A  1283               	bcf	3,5	;RP0=0, select bank0
  5715     021B  1303               	bcf	3,6	;RP1=0, select bank0
  5716     021C  00BE               	movwf	___flmul@temp+1
  5717     021D  0872               	movf	?__Umul8_16,w
  5718     021E  00BD               	movwf	___flmul@temp
  5719     021F                     l6298:
  5720     021F  083D               	movf	___flmul@temp,w
  5721     0220  00AD               	movwf	??___flmul
  5722     0221  083E               	movf	___flmul@temp+1,w
  5723     0222  00AE               	movwf	??___flmul+1
  5724     0223  01AF               	clrf	??___flmul+2
  5725     0224  01B0               	clrf	??___flmul+3
  5726     0225  082D               	movf	??___flmul,w
  5727     0226  07B9               	addwf	___flmul@prod,f
  5728     0227  082E               	movf	??___flmul+1,w
  5729     0228  1103               	clrz
  5730     0229  1803               	skipnc
  5731     022A  3E01               	addlw	1
  5732     022B  1903               	skipnz
  5733     022C  2A2E               	goto	u8481
  5734     022D  07BA               	addwf	___flmul@prod+1,f
  5735     022E                     u8481:
  5736     022E  082F               	movf	??___flmul+2,w
  5737     022F  1103               	clrz
  5738     0230  1803               	skipnc
  5739     0231  3E01               	addlw	1
  5740     0232  1903               	skipnz
  5741     0233  2A35               	goto	u8482
  5742     0234  07BB               	addwf	___flmul@prod+2,f
  5743     0235                     u8482:
  5744     0235  0830               	movf	??___flmul+3,w
  5745     0236  1103               	clrz
  5746     0237  1803               	skipnc
  5747     0238  3E01               	addlw	1
  5748     0239  1903               	skipnz
  5749     023A  2A3C               	goto	u8483
  5750     023B  07BC               	addwf	___flmul@prod+3,f
  5751     023C                     u8483:
  5752     023C  0827               	movf	___flmul@b+2,w
  5753     023D  00F2               	movwf	__Umul8_16@multiplicand
  5754     023E  082B               	movf	___flmul@a+2,w
  5755     023F  160A  118A  25BE  120A  118A  	fcall	__Umul8_16
  5756     0244  0873               	movf	?__Umul8_16+1,w
  5757     0245  1283               	bcf	3,5	;RP0=0, select bank0
  5758     0246  1303               	bcf	3,6	;RP1=0, select bank0
  5759     0247  00BE               	movwf	___flmul@temp+1
  5760     0248  0872               	movf	?__Umul8_16,w
  5761     0249  00BD               	movwf	___flmul@temp
  5762     024A                     l6300:
  5763     024A  083D               	movf	___flmul@temp,w
  5764     024B  00AD               	movwf	??___flmul
  5765     024C  083E               	movf	___flmul@temp+1,w
  5766     024D  00AE               	movwf	??___flmul+1
  5767     024E  01AF               	clrf	??___flmul+2
  5768     024F  01B0               	clrf	??___flmul+3
  5769     0250  3008               	movlw	8
  5770     0251                     u8495:
  5771     0251  1003               	clrc
  5772     0252  0DAD               	rlf	??___flmul,f
  5773     0253  0DAE               	rlf	??___flmul+1,f
  5774     0254  0DAF               	rlf	??___flmul+2,f
  5775     0255  0DB0               	rlf	??___flmul+3,f
  5776     0256                     u8490:
  5777     0256  3EFF               	addlw	-1
  5778     0257  1D03               	skipz
  5779     0258  2A51               	goto	u8495
  5780     0259  082D               	movf	??___flmul,w
  5781     025A  07B9               	addwf	___flmul@prod,f
  5782     025B  082E               	movf	??___flmul+1,w
  5783     025C  1103               	clrz
  5784     025D  1803               	skipnc
  5785     025E  3E01               	addlw	1
  5786     025F  1903               	skipnz
  5787     0260  2A62               	goto	u8501
  5788     0261  07BA               	addwf	___flmul@prod+1,f
  5789     0262                     u8501:
  5790     0262  082F               	movf	??___flmul+2,w
  5791     0263  1103               	clrz
  5792     0264  1803               	skipnc
  5793     0265  3E01               	addlw	1
  5794     0266  1903               	skipnz
  5795     0267  2A69               	goto	u8502
  5796     0268  07BB               	addwf	___flmul@prod+2,f
  5797     0269                     u8502:
  5798     0269  0830               	movf	??___flmul+3,w
  5799     026A  1103               	clrz
  5800     026B  1803               	skipnc
  5801     026C  3E01               	addlw	1
  5802     026D  1903               	skipnz
  5803     026E  2A70               	goto	u8503
  5804     026F  07BC               	addwf	___flmul@prod+3,f
  5805     0270                     u8503:
  5806     0270                     l6302:
  5807     0270  0834               	movf	___flmul@grs,w
  5808     0271  00AD               	movwf	??___flmul
  5809     0272  0835               	movf	___flmul@grs+1,w
  5810     0273  00AE               	movwf	??___flmul+1
  5811     0274  0836               	movf	___flmul@grs+2,w
  5812     0275  00AF               	movwf	??___flmul+2
  5813     0276  0837               	movf	___flmul@grs+3,w
  5814     0277  00B0               	movwf	??___flmul+3
  5815     0278  3018               	movlw	24
  5816     0279                     u8515:
  5817     0279  1003               	clrc
  5818     027A  0CB0               	rrf	??___flmul+3,f
  5819     027B  0CAF               	rrf	??___flmul+2,f
  5820     027C  0CAE               	rrf	??___flmul+1,f
  5821     027D  0CAD               	rrf	??___flmul,f
  5822     027E                     u8510:
  5823     027E  3EFF               	addlw	-1
  5824     027F  1D03               	skipz
  5825     0280  2A79               	goto	u8515
  5826     0281  082D               	movf	??___flmul,w
  5827     0282  07B9               	addwf	___flmul@prod,f
  5828     0283  082E               	movf	??___flmul+1,w
  5829     0284  1103               	clrz
  5830     0285  1803               	skipnc
  5831     0286  3E01               	addlw	1
  5832     0287  1903               	skipnz
  5833     0288  2A8A               	goto	u8521
  5834     0289  07BA               	addwf	___flmul@prod+1,f
  5835     028A                     u8521:
  5836     028A  082F               	movf	??___flmul+2,w
  5837     028B  1103               	clrz
  5838     028C  1803               	skipnc
  5839     028D  3E01               	addlw	1
  5840     028E  1903               	skipnz
  5841     028F  2A91               	goto	u8522
  5842     0290  07BB               	addwf	___flmul@prod+2,f
  5843     0291                     u8522:
  5844     0291  0830               	movf	??___flmul+3,w
  5845     0292  1103               	clrz
  5846     0293  1803               	skipnc
  5847     0294  3E01               	addlw	1
  5848     0295  1903               	skipnz
  5849     0296  2A98               	goto	u8523
  5850     0297  07BC               	addwf	___flmul@prod+3,f
  5851     0298                     u8523:
  5852     0298                     l6304:
  5853     0298  3008               	movlw	8
  5854     0299  00AD               	movwf	??___flmul
  5855     029A                     u8535:
  5856     029A  1003               	clrc
  5857     029B  0DB4               	rlf	___flmul@grs,f
  5858     029C  0DB5               	rlf	___flmul@grs+1,f
  5859     029D  0DB6               	rlf	___flmul@grs+2,f
  5860     029E  0DB7               	rlf	___flmul@grs+3,f
  5861     029F  0BAD               	decfsz	??___flmul,f
  5862     02A0  2A9A               	goto	u8535
  5863     02A1                     l6306:
  5864     02A1  0838               	movf	___flmul@bexp,w
  5865     02A2  0733               	addwf	___flmul@aexp,w
  5866     02A3  00AD               	movwf	??___flmul
  5867     02A4  01AE               	clrf	??___flmul+1
  5868     02A5  0DAE               	rlf	??___flmul+1,f
  5869     02A6  082D               	movf	??___flmul,w
  5870     02A7  3E82               	addlw	130
  5871     02A8  00BD               	movwf	___flmul@temp
  5872     02A9  082E               	movf	??___flmul+1,w
  5873     02AA  1803               	skipnc
  5874     02AB  3E01               	addlw	1
  5875     02AC  3EFF               	addlw	255
  5876     02AD  00BE               	movwf	___flmul@temp+1
  5877     02AE  2ACC               	goto	l6318
  5878     02AF                     l6308:
  5879     02AF  3001               	movlw	1
  5880     02B0  00AD               	movwf	??___flmul
  5881     02B1                     u8545:
  5882     02B1  1003               	clrc
  5883     02B2  0DB9               	rlf	___flmul@prod,f
  5884     02B3  0DBA               	rlf	___flmul@prod+1,f
  5885     02B4  0DBB               	rlf	___flmul@prod+2,f
  5886     02B5  0DBC               	rlf	___flmul@prod+3,f
  5887     02B6  0BAD               	decfsz	??___flmul,f
  5888     02B7  2AB1               	goto	u8545
  5889     02B8                     l6310:
  5890     02B8  1FB7               	btfss	___flmul@grs+3,7
  5891     02B9  2ABB               	goto	u8551
  5892     02BA  2ABC               	goto	u8550
  5893     02BB                     u8551:
  5894     02BB  2ABD               	goto	l6314
  5895     02BC                     u8550:
  5896     02BC                     l6312:
  5897     02BC  1439               	bsf	___flmul@prod,0
  5898     02BD                     l6314:
  5899     02BD  3001               	movlw	1
  5900     02BE  00AD               	movwf	??___flmul
  5901     02BF                     u8565:
  5902     02BF  1003               	clrc
  5903     02C0  0DB4               	rlf	___flmul@grs,f
  5904     02C1  0DB5               	rlf	___flmul@grs+1,f
  5905     02C2  0DB6               	rlf	___flmul@grs+2,f
  5906     02C3  0DB7               	rlf	___flmul@grs+3,f
  5907     02C4  0BAD               	decfsz	??___flmul,f
  5908     02C5  2ABF               	goto	u8565
  5909     02C6                     l6316:
  5910     02C6  30FF               	movlw	255
  5911     02C7  07BD               	addwf	___flmul@temp,f
  5912     02C8  1803               	skipnc
  5913     02C9  0ABE               	incf	___flmul@temp+1,f
  5914     02CA  30FF               	movlw	255
  5915     02CB  07BE               	addwf	___flmul@temp+1,f
  5916     02CC                     l6318:
  5917     02CC  1FBB               	btfss	___flmul@prod+2,7
  5918     02CD  2ACF               	goto	u8571
  5919     02CE  2AD0               	goto	u8570
  5920     02CF                     u8571:
  5921     02CF  2AAF               	goto	l6308
  5922     02D0                     u8570:
  5923     02D0                     l6320:
  5924     02D0  01B3               	clrf	___flmul@aexp
  5925     02D1                     l6322:
  5926     02D1  1FB7               	btfss	___flmul@grs+3,7
  5927     02D2  2AD4               	goto	u8581
  5928     02D3  2AD5               	goto	u8580
  5929     02D4                     u8581:
  5930     02D4  2AF1               	goto	l6330
  5931     02D5                     u8580:
  5932     02D5                     l6324:
  5933     02D5  30FF               	movlw	255
  5934     02D6  0534               	andwf	___flmul@grs,w
  5935     02D7  00AD               	movwf	??___flmul
  5936     02D8  30FF               	movlw	255
  5937     02D9  0535               	andwf	___flmul@grs+1,w
  5938     02DA  00AE               	movwf	??___flmul+1
  5939     02DB  30FF               	movlw	255
  5940     02DC  0536               	andwf	___flmul@grs+2,w
  5941     02DD  00AF               	movwf	??___flmul+2
  5942     02DE  307F               	movlw	127
  5943     02DF  0537               	andwf	___flmul@grs+3,w
  5944     02E0  00B0               	movwf	??___flmul+3
  5945     02E1  0830               	movf	??___flmul+3,w
  5946     02E2  042F               	iorwf	??___flmul+2,w
  5947     02E3  042E               	iorwf	??___flmul+1,w
  5948     02E4  042D               	iorwf	??___flmul,w
  5949     02E5  1903               	skipnz
  5950     02E6  2AE8               	goto	u8591
  5951     02E7  2AE9               	goto	u8590
  5952     02E8                     u8591:
  5953     02E8  2AEC               	goto	l1653
  5954     02E9                     u8590:
  5955     02E9                     l6326:
  5956     02E9  01B3               	clrf	___flmul@aexp
  5957     02EA  0AB3               	incf	___flmul@aexp,f
  5958     02EB  2AF1               	goto	l6330
  5959     02EC                     l1653:
  5960     02EC  1C39               	btfss	___flmul@prod,0
  5961     02ED  2AEF               	goto	u8601
  5962     02EE  2AF0               	goto	u8600
  5963     02EF                     u8601:
  5964     02EF  2AF1               	goto	l6330
  5965     02F0                     u8600:
  5966     02F0  2AE9               	goto	l6326
  5967     02F1                     l6330:
  5968     02F1  0833               	movf	___flmul@aexp,w
  5969     02F2  1903               	btfsc	3,2
  5970     02F3  2AF5               	goto	u8611
  5971     02F4  2AF6               	goto	u8610
  5972     02F5                     u8611:
  5973     02F5  2B27               	goto	l6340
  5974     02F6                     u8610:
  5975     02F6                     l6332:
  5976     02F6  3001               	movlw	1
  5977     02F7  07B9               	addwf	___flmul@prod,f
  5978     02F8  3000               	movlw	0
  5979     02F9  1803               	skipnc
  5980     02FA  3001               	movlw	1
  5981     02FB  07BA               	addwf	___flmul@prod+1,f
  5982     02FC  3000               	movlw	0
  5983     02FD  1803               	skipnc
  5984     02FE  3001               	movlw	1
  5985     02FF  07BB               	addwf	___flmul@prod+2,f
  5986     0300  3000               	movlw	0
  5987     0301  1803               	skipnc
  5988     0302  3001               	movlw	1
  5989     0303  07BC               	addwf	___flmul@prod+3,f
  5990     0304                     l6334:
  5991     0304  1C3C               	btfss	___flmul@prod+3,0
  5992     0305  2B07               	goto	u8621
  5993     0306  2B08               	goto	u8620
  5994     0307                     u8621:
  5995     0307  2B27               	goto	l6340
  5996     0308                     u8620:
  5997     0308                     l6336:
  5998     0308  0839               	movf	___flmul@prod,w
  5999     0309  00AD               	movwf	??___flmul
  6000     030A  083A               	movf	___flmul@prod+1,w
  6001     030B  00AE               	movwf	??___flmul+1
  6002     030C  083B               	movf	___flmul@prod+2,w
  6003     030D  00AF               	movwf	??___flmul+2
  6004     030E  083C               	movf	___flmul@prod+3,w
  6005     030F  00B0               	movwf	??___flmul+3
  6006     0310  3001               	movlw	1
  6007     0311  00B1               	movwf	??___flmul+4
  6008     0312                     u8635:
  6009     0312  0D30               	rlf	??___flmul+3,w
  6010     0313  0CB0               	rrf	??___flmul+3,f
  6011     0314  0CAF               	rrf	??___flmul+2,f
  6012     0315  0CAE               	rrf	??___flmul+1,f
  6013     0316  0CAD               	rrf	??___flmul,f
  6014     0317                     u8630:
  6015     0317  0BB1               	decfsz	??___flmul+4,f
  6016     0318  2B12               	goto	u8635
  6017     0319  0830               	movf	??___flmul+3,w
  6018     031A  00BC               	movwf	___flmul@prod+3
  6019     031B  082F               	movf	??___flmul+2,w
  6020     031C  00BB               	movwf	___flmul@prod+2
  6021     031D  082E               	movf	??___flmul+1,w
  6022     031E  00BA               	movwf	___flmul@prod+1
  6023     031F  082D               	movf	??___flmul,w
  6024     0320  00B9               	movwf	___flmul@prod
  6025     0321                     l6338:
  6026     0321  3001               	movlw	1
  6027     0322  07BD               	addwf	___flmul@temp,f
  6028     0323  1803               	skipnc
  6029     0324  0ABE               	incf	___flmul@temp+1,f
  6030     0325  3000               	movlw	0
  6031     0326  07BE               	addwf	___flmul@temp+1,f
  6032     0327                     l6340:
  6033     0327  083E               	movf	___flmul@temp+1,w
  6034     0328  3A80               	xorlw	128
  6035     0329  00FF               	movwf	btemp+1
  6036     032A  3080               	movlw	128
  6037     032B  027F               	subwf	btemp+1,w
  6038     032C  1D03               	skipz
  6039     032D  2B30               	goto	u8645
  6040     032E  30FF               	movlw	255
  6041     032F  023D               	subwf	___flmul@temp,w
  6042     0330                     u8645:
  6043     0330  1C03               	skipc
  6044     0331  2B33               	goto	u8641
  6045     0332  2B34               	goto	u8640
  6046     0333                     u8641:
  6047     0333  2B3F               	goto	l6344
  6048     0334                     u8640:
  6049     0334                     l6342:
  6050     0334  307F               	movlw	127
  6051     0335  1283               	bcf	3,5	;RP0=0, select bank0
  6052     0336  1303               	bcf	3,6	;RP1=0, select bank0
  6053     0337  00BC               	movwf	___flmul@prod+3
  6054     0338  3080               	movlw	128
  6055     0339  00BB               	movwf	___flmul@prod+2
  6056     033A  3000               	movlw	0
  6057     033B  00BA               	movwf	___flmul@prod+1
  6058     033C  3000               	movlw	0
  6059     033D  00B9               	movwf	___flmul@prod
  6060     033E  2B70               	goto	l6358
  6061     033F                     l6344:
  6062     033F  1283               	bcf	3,5	;RP0=0, select bank0
  6063     0340  1303               	bcf	3,6	;RP1=0, select bank0
  6064     0341  083E               	movf	___flmul@temp+1,w
  6065     0342  3A80               	xorlw	128
  6066     0343  00FF               	movwf	btemp+1
  6067     0344  3080               	movlw	128
  6068     0345  027F               	subwf	btemp+1,w
  6069     0346  1D03               	skipz
  6070     0347  2B4A               	goto	u8655
  6071     0348  3001               	movlw	1
  6072     0349  023D               	subwf	___flmul@temp,w
  6073     034A                     u8655:
  6074     034A  1803               	skipnc
  6075     034B  2B4D               	goto	u8651
  6076     034C  2B4E               	goto	u8650
  6077     034D                     u8651:
  6078     034D  2B5A               	goto	l6350
  6079     034E                     u8650:
  6080     034E                     l6346:
  6081     034E  3000               	movlw	0
  6082     034F  1283               	bcf	3,5	;RP0=0, select bank0
  6083     0350  1303               	bcf	3,6	;RP1=0, select bank0
  6084     0351  00BC               	movwf	___flmul@prod+3
  6085     0352  3000               	movlw	0
  6086     0353  00BB               	movwf	___flmul@prod+2
  6087     0354  3000               	movlw	0
  6088     0355  00BA               	movwf	___flmul@prod+1
  6089     0356  3000               	movlw	0
  6090     0357  00B9               	movwf	___flmul@prod
  6091     0358                     l6348:
  6092     0358  01B2               	clrf	___flmul@sign
  6093     0359  2B70               	goto	l6358
  6094     035A                     l6350:
  6095     035A  1283               	bcf	3,5	;RP0=0, select bank0
  6096     035B  1303               	bcf	3,6	;RP1=0, select bank0
  6097     035C  083D               	movf	___flmul@temp,w
  6098     035D  00B8               	movwf	___flmul@bexp
  6099     035E  30FF               	movlw	255
  6100     035F  05B9               	andwf	___flmul@prod,f
  6101     0360  30FF               	movlw	255
  6102     0361  05BA               	andwf	___flmul@prod+1,f
  6103     0362  307F               	movlw	127
  6104     0363  05BB               	andwf	___flmul@prod+2,f
  6105     0364  3000               	movlw	0
  6106     0365  05BC               	andwf	___flmul@prod+3,f
  6107     0366                     l6352:
  6108     0366  1C38               	btfss	___flmul@bexp,0
  6109     0367  2B69               	goto	u8661
  6110     0368  2B6A               	goto	u8660
  6111     0369                     u8661:
  6112     0369  2B6B               	goto	l6356
  6113     036A                     u8660:
  6114     036A                     l6354:
  6115     036A  17BB               	bsf	___flmul@prod+2,7
  6116     036B                     l6356:
  6117     036B  0838               	movf	___flmul@bexp,w
  6118     036C  00AD               	movwf	??___flmul
  6119     036D  1003               	clrc
  6120     036E  0C2D               	rrf	??___flmul,w
  6121     036F  00BC               	movwf	___flmul@prod+3
  6122     0370                     l6358:
  6123     0370  0832               	movf	___flmul@sign,w
  6124     0371  00FF               	movwf	btemp+1
  6125     0372  087F               	movf	btemp+1,w
  6126     0373  04BC               	iorwf	___flmul@prod+3,f
  6127     0374                     l6360:
  6128     0374  083C               	movf	___flmul@prod+3,w
  6129     0375  00A8               	movwf	?___flmul+3
  6130     0376  083B               	movf	___flmul@prod+2,w
  6131     0377  00A7               	movwf	?___flmul+2
  6132     0378  083A               	movf	___flmul@prod+1,w
  6133     0379  00A6               	movwf	?___flmul+1
  6134     037A  0839               	movf	___flmul@prod,w
  6135     037B  00A5               	movwf	?___flmul
  6136     037C                     l1647:
  6137     037C  0008               	return
  6138     037D                     __end_of___flmul:
  6139                           
  6140                           	psect	text10
  6141     15BE                     __ptext10:	
  6142 ;; *************** function __Umul8_16 *****************
  6143 ;; Defined at:
  6144 ;;		line 4 in file "E:\Microchip\xc8\v2.41\pic\sources\c90\common\Umul8_16.c"
  6145 ;; Parameters:    Size  Location     Type
  6146 ;;  multiplier      1    wreg     unsigned char 
  6147 ;;  multiplicand    1    2[COMMON] unsigned char 
  6148 ;; Auto vars:     Size  Location     Type
  6149 ;;  multiplier      1    4[BANK0 ] unsigned char 
  6150 ;;  word_mpld       2    2[BANK0 ] unsigned int 
  6151 ;;  product         2    0[BANK0 ] unsigned int 
  6152 ;; Return value:  Size  Location     Type
  6153 ;;                  2    2[COMMON] unsigned int 
  6154 ;; Registers used:
  6155 ;;		wreg, status,2, status,0
  6156 ;; Tracked objects:
  6157 ;;		On entry : 0/0
  6158 ;;		On exit  : 0/0
  6159 ;;		Unchanged: 0/0
  6160 ;; Data sizes:     COMMON   BANK0   BANK1   BANK3   BANK2
  6161 ;;      Params:         2       0       0       0       0
  6162 ;;      Locals:         0       5       0       0       0
  6163 ;;      Temps:          2       0       0       0       0
  6164 ;;      Totals:         4       5       0       0       0
  6165 ;;Total ram usage:        9 bytes
  6166 ;; Hardware stack levels used: 1
  6167 ;; Hardware stack levels required when called: 1
  6168 ;; This function calls:
  6169 ;;		Nothing
  6170 ;; This function is called by:
  6171 ;;		___flmul
  6172 ;; This function uses a non-reentrant model
  6173 ;;
  6174                           
  6175     15BE                     __Umul8_16:	
  6176                           ;psect for function __Umul8_16
  6177                           
  6178                           
  6179                           ;incstack = 0
  6180                           ; Regs used in __Umul8_16: [wreg+status,2+status,0]
  6181                           ;__Umul8_16@multiplier stored from wreg
  6182     15BE  1283               	bcf	3,5	;RP0=0, select bank0
  6183     15BF  1303               	bcf	3,6	;RP1=0, select bank0
  6184     15C0  00A4               	movwf	__Umul8_16@multiplier
  6185     15C1                     l6106:
  6186     15C1  01A0               	clrf	__Umul8_16@product
  6187     15C2  01A1               	clrf	__Umul8_16@product+1
  6188     15C3                     l6108:
  6189     15C3  0872               	movf	__Umul8_16@multiplicand,w
  6190     15C4  00F4               	movwf	??__Umul8_16
  6191     15C5  01F5               	clrf	??__Umul8_16+1
  6192     15C6  0874               	movf	??__Umul8_16,w
  6193     15C7  00A2               	movwf	__Umul8_16@word_mpld
  6194     15C8  0875               	movf	??__Umul8_16+1,w
  6195     15C9  00A3               	movwf	__Umul8_16@word_mpld+1
  6196     15CA                     l6110:
  6197     15CA  1C24               	btfss	__Umul8_16@multiplier,0
  6198     15CB  2DCD               	goto	u8041
  6199     15CC  2DCE               	goto	u8040
  6200     15CD                     u8041:
  6201     15CD  2DD4               	goto	l1666
  6202     15CE                     u8040:
  6203     15CE                     l6112:
  6204     15CE  0822               	movf	__Umul8_16@word_mpld,w
  6205     15CF  07A0               	addwf	__Umul8_16@product,f
  6206     15D0  1803               	skipnc
  6207     15D1  0AA1               	incf	__Umul8_16@product+1,f
  6208     15D2  0823               	movf	__Umul8_16@word_mpld+1,w
  6209     15D3  07A1               	addwf	__Umul8_16@product+1,f
  6210     15D4                     l1666:
  6211     15D4  3001               	movlw	1
  6212     15D5                     u8055:
  6213     15D5  1003               	clrc
  6214     15D6  0DA2               	rlf	__Umul8_16@word_mpld,f
  6215     15D7  0DA3               	rlf	__Umul8_16@word_mpld+1,f
  6216     15D8  3EFF               	addlw	-1
  6217     15D9  1D03               	skipz
  6218     15DA  2DD5               	goto	u8055
  6219     15DB  1003               	clrc
  6220     15DC  0CA4               	rrf	__Umul8_16@multiplier,f
  6221     15DD                     l6114:
  6222     15DD  0824               	movf	__Umul8_16@multiplier,w
  6223     15DE  1D03               	btfss	3,2
  6224     15DF  2DE1               	goto	u8061
  6225     15E0  2DE2               	goto	u8060
  6226     15E1                     u8061:
  6227     15E1  2DCA               	goto	l6110
  6228     15E2                     u8060:
  6229     15E2                     l6116:
  6230     15E2  0821               	movf	__Umul8_16@product+1,w
  6231     15E3  00F3               	movwf	?__Umul8_16+1
  6232     15E4  0820               	movf	__Umul8_16@product,w
  6233     15E5  00F2               	movwf	?__Umul8_16
  6234     15E6                     l1668:
  6235     15E6  0008               	return
  6236     15E7                     __end_of__Umul8_16:
  6237                           
  6238                           	psect	text11
  6239     0634                     __ptext11:	
  6240 ;; *************** function _LCD_DisplayNumber *****************
  6241 ;; Defined at:
  6242 ;;		line 245 in file "../../Sources/16F887/lcd.c"
  6243 ;; Parameters:    Size  Location     Type
  6244 ;;  numberic_Sys    1    wreg     unsigned char 
  6245 ;;  var_number32    4    9[BANK0 ] unsigned long 
  6246 ;;  var_numOfDig    1   13[BANK0 ] unsigned char 
  6247 ;; Auto vars:     Size  Location     Type
  6248 ;;  numberic_Sys    1   37[BANK0 ] unsigned char 
  6249 ;;  a              10   25[BANK0 ] unsigned char [10]
  6250 ;;  i               1   38[BANK0 ] unsigned char 
  6251 ;; Return value:  Size  Location     Type
  6252 ;;                  1    wreg      void 
  6253 ;; Registers used:
  6254 ;;		wreg, fsr0l, fsr0h, status,2, status,0, btemp+1, pclath, cstack
  6255 ;; Tracked objects:
  6256 ;;		On entry : 0/0
  6257 ;;		On exit  : 0/0
  6258 ;;		Unchanged: 0/0
  6259 ;; Data sizes:     COMMON   BANK0   BANK1   BANK3   BANK2
  6260 ;;      Params:         0       5       0       0       0
  6261 ;;      Locals:         0      14       0       0       0
  6262 ;;      Temps:          0      11       0       0       0
  6263 ;;      Totals:         0      30       0       0       0
  6264 ;;Total ram usage:       30 bytes
  6265 ;; Hardware stack levels used: 1
  6266 ;; Hardware stack levels required when called: 7
  6267 ;; This function calls:
  6268 ;;		_LCD_DisplayChar
  6269 ;;		___bmul
  6270 ;;		___lldiv
  6271 ;; This function is called by:
  6272 ;;		_LCD_DisplayFloatNumber
  6273 ;;		_LCD_Printf
  6274 ;; This function uses a non-reentrant model
  6275 ;;
  6276                           
  6277     0634                     _LCD_DisplayNumber:	
  6278                           ;psect for function _LCD_DisplayNumber
  6279                           
  6280                           
  6281                           ;incstack = 0
  6282 ;; hardware stack exceeded
  6283                           ; Regs used in _LCD_DisplayNumber: [wreg-fsr0h+status,2+status,0+btemp+1+pclath+cstack]
  6284                           ;LCD_DisplayNumber@numberic_System stored from wreg
  6285     0634  1283               	bcf	3,5	;RP0=0, select bank0
  6286     0635  1303               	bcf	3,6	;RP1=0, select bank0
  6287     0636  00C5               	movwf	LCD_DisplayNumber@numberic_System
  6288     0637                     l6128:
  6289     0637                     l6130:
  6290                           
  6291                           ;../../Sources/16F887/lcd.c: 247:     if(numberic_System == 2u){
  6292     0637  3002               	movlw	2
  6293     0638  0645               	xorwf	LCD_DisplayNumber@numberic_System,w
  6294     0639  1D03               	btfss	3,2
  6295     063A  2E3C               	goto	u8081
  6296     063B  2E3D               	goto	u8080
  6297     063C                     u8081:
  6298     063C  2E81               	goto	l6142
  6299     063D                     u8080:
  6300     063D  2E7B               	goto	l6140
  6301     063E                     l6134:
  6302                           
  6303                           ;../../Sources/16F887/lcd.c: 249:             i = (((var_number32)&((1<<((var_numOfDigit
      +                          sToDisplay - 1)))))!=0u);
  6304     063E  0829               	movf	LCD_DisplayNumber@var_number32,w
  6305     063F  00AE               	movwf	??_LCD_DisplayNumber
  6306     0640  082A               	movf	LCD_DisplayNumber@var_number32+1,w
  6307     0641  00AF               	movwf	??_LCD_DisplayNumber+1
  6308     0642  082B               	movf	LCD_DisplayNumber@var_number32+2,w
  6309     0643  00B0               	movwf	??_LCD_DisplayNumber+2
  6310     0644  082C               	movf	LCD_DisplayNumber@var_number32+3,w
  6311     0645  00B1               	movwf	??_LCD_DisplayNumber+3
  6312     0646  082D               	movf	LCD_DisplayNumber@var_numOfDigitsToDisplay,w
  6313     0647  3EFF               	addlw	-1
  6314     0648  00B2               	movwf	??_LCD_DisplayNumber+4
  6315     0649  0AB2               	incf	??_LCD_DisplayNumber+4,f
  6316     064A  3001               	movlw	1
  6317     064B  00B3               	movwf	??_LCD_DisplayNumber+5
  6318     064C  3000               	movlw	0
  6319     064D  00B4               	movwf	??_LCD_DisplayNumber+6
  6320     064E  2E52               	goto	u8094
  6321     064F                     u8095:
  6322     064F  1003               	clrc
  6323     0650  0DB3               	rlf	??_LCD_DisplayNumber+5,f
  6324     0651  0DB4               	rlf	??_LCD_DisplayNumber+6,f
  6325     0652                     u8094:
  6326     0652  0BB2               	decfsz	??_LCD_DisplayNumber+4,f
  6327     0653  2E4F               	goto	u8095
  6328     0654  0833               	movf	??_LCD_DisplayNumber+5,w
  6329     0655  00B5               	movwf	??_LCD_DisplayNumber+7
  6330     0656  0834               	movf	??_LCD_DisplayNumber+6,w
  6331     0657  00B6               	movwf	??_LCD_DisplayNumber+8
  6332     0658  3000               	movlw	0
  6333     0659  1BB6               	btfsc	??_LCD_DisplayNumber+8,7
  6334     065A  30FF               	movlw	255
  6335     065B  00B7               	movwf	??_LCD_DisplayNumber+9
  6336     065C  00B8               	movwf	??_LCD_DisplayNumber+10
  6337     065D  0835               	movf	??_LCD_DisplayNumber+7,w
  6338     065E  05AE               	andwf	??_LCD_DisplayNumber,f
  6339     065F  0836               	movf	??_LCD_DisplayNumber+8,w
  6340     0660  05AF               	andwf	??_LCD_DisplayNumber+1,f
  6341     0661  0837               	movf	??_LCD_DisplayNumber+9,w
  6342     0662  05B0               	andwf	??_LCD_DisplayNumber+2,f
  6343     0663  0838               	movf	??_LCD_DisplayNumber+10,w
  6344     0664  05B1               	andwf	??_LCD_DisplayNumber+3,f
  6345     0665  0831               	movf	??_LCD_DisplayNumber+3,w
  6346     0666  0430               	iorwf	??_LCD_DisplayNumber+2,w
  6347     0667  042F               	iorwf	??_LCD_DisplayNumber+1,w
  6348     0668  042E               	iorwf	??_LCD_DisplayNumber,w
  6349     0669  1D03               	skipz
  6350     066A  2E6C               	goto	u8101
  6351     066B  2E6E               	goto	u8100
  6352     066C                     u8101:
  6353     066C  3001               	movlw	1
  6354     066D  2E6F               	goto	u8110
  6355     066E                     u8100:
  6356     066E  3000               	movlw	0
  6357     066F                     u8110:
  6358     066F  00C6               	movwf	LCD_DisplayNumber@i
  6359     0670                     l6136:
  6360                           
  6361                           ;../../Sources/16F887/lcd.c: 250:             LCD_DisplayChar(((i)+0x30));
  6362     0670  0846               	movf	LCD_DisplayNumber@i,w
  6363     0671  3E30               	addlw	48
  6364     0672  160A  118A  25E7  120A  118A  	fcall	_LCD_DisplayChar
  6365     0677                     l6138:
  6366                           
  6367                           ;../../Sources/16F887/lcd.c: 251:             var_numOfDigitsToDisplay--;
  6368     0677  3001               	movlw	1
  6369     0678  1283               	bcf	3,5	;RP0=0, select bank0
  6370     0679  1303               	bcf	3,6	;RP1=0, select bank0
  6371     067A  02AD               	subwf	LCD_DisplayNumber@var_numOfDigitsToDisplay,f
  6372     067B                     l6140:
  6373                           
  6374                           ;../../Sources/16F887/lcd.c: 248:         while(var_numOfDigitsToDisplay != 0){
  6375     067B  082D               	movf	LCD_DisplayNumber@var_numOfDigitsToDisplay,w
  6376     067C  1D03               	btfss	3,2
  6377     067D  2E7F               	goto	u8121
  6378     067E  2E80               	goto	u8120
  6379     067F                     u8121:
  6380     067F  2E3E               	goto	l6134
  6381     0680                     u8120:
  6382     0680  2F36               	goto	l619
  6383     0681                     l6142:
  6384     0681  082C               	movf	LCD_DisplayNumber@var_number32+3,w
  6385     0682  042B               	iorwf	LCD_DisplayNumber@var_number32+2,w
  6386     0683  042A               	iorwf	LCD_DisplayNumber@var_number32+1,w
  6387     0684  0429               	iorwf	LCD_DisplayNumber@var_number32,w
  6388     0685  1D03               	skipz
  6389     0686  2E88               	goto	u8131
  6390     0687  2E89               	goto	u8130
  6391     0688                     u8131:
  6392     0688  2E90               	goto	l6146
  6393     0689                     u8130:
  6394     0689                     l6144:
  6395                           
  6396                           ;../../Sources/16F887/lcd.c: 254:         LCD_DisplayChar('0');
  6397     0689  3030               	movlw	48
  6398     068A  160A  118A  25E7  120A  118A  	fcall	_LCD_DisplayChar
  6399                           
  6400                           ;../../Sources/16F887/lcd.c: 255:     }
  6401     068F  2F36               	goto	l619
  6402     0690                     l6146:
  6403                           
  6404                           ;../../Sources/16F887/lcd.c: 257:         for(i=0;i<var_numOfDigitsToDisplay;i++){
  6405     0690  01C6               	clrf	LCD_DisplayNumber@i
  6406     0691  2EFE               	goto	l6164
  6407     0692                     l6148:
  6408                           
  6409                           ;../../Sources/16F887/lcd.c: 258:             if(var_number32 != 0){
  6410     0692  082C               	movf	LCD_DisplayNumber@var_number32+3,w
  6411     0693  042B               	iorwf	LCD_DisplayNumber@var_number32+2,w
  6412     0694  042A               	iorwf	LCD_DisplayNumber@var_number32+1,w
  6413     0695  0429               	iorwf	LCD_DisplayNumber@var_number32,w
  6414     0696  1903               	skipnz
  6415     0697  2E99               	goto	u8141
  6416     0698  2E9A               	goto	u8140
  6417     0699                     u8141:
  6418     0699  2EE9               	goto	l6154
  6419     069A                     u8140:
  6420     069A                     l6150:
  6421                           
  6422                           ;../../Sources/16F887/lcd.c: 259:                 a[i] = (uint32_t) (var_number32 - (num
      +                          beric_System * (uint32_t) (var_number32/numberic_System)));
  6423     069A  0846               	movf	LCD_DisplayNumber@i,w
  6424     069B  3E39               	addlw	(low (LCD_DisplayNumber@a| 0))& (0+255)
  6425     069C  0084               	movwf	4
  6426     069D  0845               	movf	LCD_DisplayNumber@numberic_System,w
  6427     069E  00A6               	movwf	___bmul@multiplicand
  6428     069F  082C               	movf	LCD_DisplayNumber@var_number32+3,w
  6429     06A0  00F9               	movwf	___lldiv@dividend+3
  6430     06A1  082B               	movf	LCD_DisplayNumber@var_number32+2,w
  6431     06A2  00F8               	movwf	___lldiv@dividend+2
  6432     06A3  082A               	movf	LCD_DisplayNumber@var_number32+1,w
  6433     06A4  00F7               	movwf	___lldiv@dividend+1
  6434     06A5  0829               	movf	LCD_DisplayNumber@var_number32,w
  6435     06A6  00F6               	movwf	___lldiv@dividend
  6436     06A7  0845               	movf	LCD_DisplayNumber@numberic_System,w
  6437     06A8  00AE               	movwf	??_LCD_DisplayNumber
  6438     06A9  01AF               	clrf	??_LCD_DisplayNumber+1
  6439     06AA  01B0               	clrf	??_LCD_DisplayNumber+2
  6440     06AB  01B1               	clrf	??_LCD_DisplayNumber+3
  6441     06AC  0831               	movf	??_LCD_DisplayNumber+3,w
  6442     06AD  00F5               	movwf	___lldiv@divisor+3
  6443     06AE  0830               	movf	??_LCD_DisplayNumber+2,w
  6444     06AF  00F4               	movwf	___lldiv@divisor+2
  6445     06B0  082F               	movf	??_LCD_DisplayNumber+1,w
  6446     06B1  00F3               	movwf	___lldiv@divisor+1
  6447     06B2  082E               	movf	??_LCD_DisplayNumber,w
  6448     06B3  00F2               	movwf	___lldiv@divisor
  6449     06B4  120A  158A  204D  120A  118A  	fcall	___lldiv
  6450     06B9  0872               	movf	?___lldiv,w
  6451     06BA  160A  118A  2532  120A  118A  	fcall	___bmul
  6452     06BF  1283               	bcf	3,5	;RP0=0, select bank0
  6453     06C0  1303               	bcf	3,6	;RP1=0, select bank0
  6454     06C1  0229               	subwf	LCD_DisplayNumber@var_number32,w
  6455     06C2  1383               	bcf	3,7	;select IRP bank0
  6456     06C3  0080               	movwf	0
  6457     06C4                     l6152:
  6458                           
  6459                           ;../../Sources/16F887/lcd.c: 260:                 var_number32 = (var_number32 / numberi
      +                          c_System);
  6460     06C4  0845               	movf	LCD_DisplayNumber@numberic_System,w
  6461     06C5  00AE               	movwf	??_LCD_DisplayNumber
  6462     06C6  01AF               	clrf	??_LCD_DisplayNumber+1
  6463     06C7  01B0               	clrf	??_LCD_DisplayNumber+2
  6464     06C8  01B1               	clrf	??_LCD_DisplayNumber+3
  6465     06C9  0831               	movf	??_LCD_DisplayNumber+3,w
  6466     06CA  00F5               	movwf	___lldiv@divisor+3
  6467     06CB  0830               	movf	??_LCD_DisplayNumber+2,w
  6468     06CC  00F4               	movwf	___lldiv@divisor+2
  6469     06CD  082F               	movf	??_LCD_DisplayNumber+1,w
  6470     06CE  00F3               	movwf	___lldiv@divisor+1
  6471     06CF  082E               	movf	??_LCD_DisplayNumber,w
  6472     06D0  00F2               	movwf	___lldiv@divisor
  6473     06D1  082C               	movf	LCD_DisplayNumber@var_number32+3,w
  6474     06D2  00F9               	movwf	___lldiv@dividend+3
  6475     06D3  082B               	movf	LCD_DisplayNumber@var_number32+2,w
  6476     06D4  00F8               	movwf	___lldiv@dividend+2
  6477     06D5  082A               	movf	LCD_DisplayNumber@var_number32+1,w
  6478     06D6  00F7               	movwf	___lldiv@dividend+1
  6479     06D7  0829               	movf	LCD_DisplayNumber@var_number32,w
  6480     06D8  00F6               	movwf	___lldiv@dividend
  6481     06D9  120A  158A  204D  120A  118A  	fcall	___lldiv
  6482     06DE  0875               	movf	?___lldiv+3,w
  6483     06DF  1283               	bcf	3,5	;RP0=0, select bank0
  6484     06E0  1303               	bcf	3,6	;RP1=0, select bank0
  6485     06E1  00AC               	movwf	LCD_DisplayNumber@var_number32+3
  6486     06E2  0874               	movf	?___lldiv+2,w
  6487     06E3  00AB               	movwf	LCD_DisplayNumber@var_number32+2
  6488     06E4  0873               	movf	?___lldiv+1,w
  6489     06E5  00AA               	movwf	LCD_DisplayNumber@var_number32+1
  6490     06E6  0872               	movf	?___lldiv,w
  6491     06E7  00A9               	movwf	LCD_DisplayNumber@var_number32
  6492                           
  6493                           ;../../Sources/16F887/lcd.c: 261:             }else if((var_numOfDigitsToDisplay == 0xFF
      +                          ) || (var_numOfDigitsToDisplay > 10)){
  6494     06E8  2EFA               	goto	l6162
  6495     06E9                     l6154:
  6496     06E9  0A2D               	incf	LCD_DisplayNumber@var_numOfDigitsToDisplay,w
  6497     06EA  1903               	btfsc	3,2
  6498     06EB  2EED               	goto	u8151
  6499     06EC  2EEE               	goto	u8150
  6500     06ED                     u8151:
  6501     06ED  2F31               	goto	l6176
  6502     06EE                     u8150:
  6503     06EE                     l6156:
  6504     06EE  300B               	movlw	11
  6505     06EF  022D               	subwf	LCD_DisplayNumber@var_numOfDigitsToDisplay,w
  6506     06F0  1C03               	skipc
  6507     06F1  2EF3               	goto	u8161
  6508     06F2  2EF4               	goto	u8160
  6509     06F3                     u8161:
  6510     06F3  2EF5               	goto	l6160
  6511     06F4                     u8160:
  6512     06F4  2F31               	goto	l6176
  6513     06F5                     l6160:
  6514                           
  6515                           ;../../Sources/16F887/lcd.c: 265:                 a[i] = 0;
  6516     06F5  0846               	movf	LCD_DisplayNumber@i,w
  6517     06F6  3E39               	addlw	(low (LCD_DisplayNumber@a| 0))& (0+255)
  6518     06F7  0084               	movwf	4
  6519     06F8  1383               	bcf	3,7	;select IRP bank0
  6520     06F9  0180               	clrf	0
  6521     06FA                     l6162:
  6522                           
  6523                           ;../../Sources/16F887/lcd.c: 267:         }
  6524     06FA  3001               	movlw	1
  6525     06FB  00FF               	movwf	btemp+1
  6526     06FC  087F               	movf	btemp+1,w
  6527     06FD  07C6               	addwf	LCD_DisplayNumber@i,f
  6528     06FE                     l6164:
  6529     06FE  082D               	movf	LCD_DisplayNumber@var_numOfDigitsToDisplay,w
  6530     06FF  0246               	subwf	LCD_DisplayNumber@i,w
  6531     0700  1C03               	skipc
  6532     0701  2F03               	goto	u8171
  6533     0702  2F04               	goto	u8170
  6534     0703                     u8171:
  6535     0703  2E92               	goto	l6148
  6536     0704                     u8170:
  6537     0704  2F31               	goto	l6176
  6538     0705                     l6166:
  6539                           
  6540                           ;../../Sources/16F887/lcd.c: 269:             LCD_DisplayChar((((a[i-1])>0x09)?((a[i-1])
      +                          +0x37):((a[i-1])+0x30)));
  6541     0705  0846               	movf	LCD_DisplayNumber@i,w
  6542     0706  3EFF               	addlw	255
  6543     0707  3E39               	addlw	(low (LCD_DisplayNumber@a| 0))& (0+255)
  6544     0708  0084               	movwf	4
  6545     0709  300A               	movlw	10
  6546     070A  1383               	bcf	3,7	;select IRP bank0
  6547     070B  0200               	subwf	0,w
  6548     070C  1803               	skipnc
  6549     070D  2F0F               	goto	u8181
  6550     070E  2F10               	goto	u8180
  6551     070F                     u8181:
  6552     070F  2F1C               	goto	l6170
  6553     0710                     u8180:
  6554     0710                     l6168:
  6555     0710  0846               	movf	LCD_DisplayNumber@i,w
  6556     0711  3EFF               	addlw	255
  6557     0712  3E39               	addlw	(low (LCD_DisplayNumber@a| 0))& (0+255)
  6558     0713  0084               	movwf	4
  6559     0714  0800               	movf	0,w
  6560     0715  3E30               	addlw	48
  6561     0716  00C3               	movwf	_LCD_DisplayNumber$660
  6562     0717  3000               	movlw	0
  6563     0718  1803               	skipnc
  6564     0719  3001               	movlw	1
  6565     071A  00C4               	movwf	_LCD_DisplayNumber$660+1
  6566     071B  2F27               	goto	l6172
  6567     071C                     l6170:
  6568     071C  0846               	movf	LCD_DisplayNumber@i,w
  6569     071D  3EFF               	addlw	255
  6570     071E  3E39               	addlw	(low (LCD_DisplayNumber@a| 0))& (0+255)
  6571     071F  0084               	movwf	4
  6572     0720  0800               	movf	0,w
  6573     0721  3E37               	addlw	55
  6574     0722  00C3               	movwf	_LCD_DisplayNumber$660
  6575     0723  3000               	movlw	0
  6576     0724  1803               	skipnc
  6577     0725  3001               	movlw	1
  6578     0726  00C4               	movwf	_LCD_DisplayNumber$660+1
  6579     0727                     l6172:
  6580     0727  0843               	movf	_LCD_DisplayNumber$660,w
  6581     0728  160A  118A  25E7  120A  118A  	fcall	_LCD_DisplayChar
  6582     072D                     l6174:
  6583                           
  6584                           ;../../Sources/16F887/lcd.c: 270:             i--;
  6585     072D  3001               	movlw	1
  6586     072E  1283               	bcf	3,5	;RP0=0, select bank0
  6587     072F  1303               	bcf	3,6	;RP1=0, select bank0
  6588     0730  02C6               	subwf	LCD_DisplayNumber@i,f
  6589     0731                     l6176:
  6590                           
  6591                           ;../../Sources/16F887/lcd.c: 268:         while(i!=0){
  6592     0731  0846               	movf	LCD_DisplayNumber@i,w
  6593     0732  1D03               	btfss	3,2
  6594     0733  2F35               	goto	u8191
  6595     0734  2F36               	goto	u8190
  6596     0735                     u8191:
  6597     0735  2F05               	goto	l6166
  6598     0736                     u8190:
  6599     0736                     l619:
  6600     0736  0008               	return
  6601     0737                     __end_of_LCD_DisplayNumber:
  6602                           
  6603                           	psect	text12
  6604     084D                     __ptext12:	
  6605 ;; *************** function ___lldiv *****************
  6606 ;; Defined at:
  6607 ;;		line 5 in file "E:\Microchip\xc8\v2.41\pic\sources\c90\common\__lldiv.c"
  6608 ;; Parameters:    Size  Location     Type
  6609 ;;  divisor         4    2[COMMON] unsigned long 
  6610 ;;  dividend        4    6[COMMON] unsigned long 
  6611 ;; Auto vars:     Size  Location     Type
  6612 ;;  quotient        4    1[BANK0 ] unsigned long 
  6613 ;;  counter         1    5[BANK0 ] unsigned char 
  6614 ;; Return value:  Size  Location     Type
  6615 ;;                  4    2[COMMON] unsigned long 
  6616 ;; Registers used:
  6617 ;;		wreg, status,2, status,0, btemp+1
  6618 ;; Tracked objects:
  6619 ;;		On entry : 0/0
  6620 ;;		On exit  : 0/0
  6621 ;;		Unchanged: 0/0
  6622 ;; Data sizes:     COMMON   BANK0   BANK1   BANK3   BANK2
  6623 ;;      Params:         8       0       0       0       0
  6624 ;;      Locals:         0       5       0       0       0
  6625 ;;      Temps:          0       1       0       0       0
  6626 ;;      Totals:         8       6       0       0       0
  6627 ;;Total ram usage:       14 bytes
  6628 ;; Hardware stack levels used: 1
  6629 ;; Hardware stack levels required when called: 1
  6630 ;; This function calls:
  6631 ;;		Nothing
  6632 ;; This function is called by:
  6633 ;;		_LCD_DisplayNumber
  6634 ;;		_UART_setBaudRate
  6635 ;; This function uses a non-reentrant model
  6636 ;;
  6637                           
  6638     084D                     ___lldiv:	
  6639                           ;psect for function ___lldiv
  6640                           
  6641     084D                     l5880:	
  6642                           ;incstack = 0
  6643                           ; Regs used in ___lldiv: [wreg+status,2+status,0+btemp+1]
  6644                           
  6645     084D  3000               	movlw	0
  6646     084E  1283               	bcf	3,5	;RP0=0, select bank0
  6647     084F  1303               	bcf	3,6	;RP1=0, select bank0
  6648     0850  00A4               	movwf	___lldiv@quotient+3
  6649     0851  3000               	movlw	0
  6650     0852  00A3               	movwf	___lldiv@quotient+2
  6651     0853  3000               	movlw	0
  6652     0854  00A2               	movwf	___lldiv@quotient+1
  6653     0855  3000               	movlw	0
  6654     0856  00A1               	movwf	___lldiv@quotient
  6655     0857  0875               	movf	___lldiv@divisor+3,w
  6656     0858  0474               	iorwf	___lldiv@divisor+2,w
  6657     0859  0473               	iorwf	___lldiv@divisor+1,w
  6658     085A  0472               	iorwf	___lldiv@divisor,w
  6659     085B  1903               	skipnz
  6660     085C  285E               	goto	u7511
  6661     085D  285F               	goto	u7510
  6662     085E                     u7511:
  6663     085E  28AC               	goto	l5902
  6664     085F                     u7510:
  6665     085F                     l5882:
  6666     085F  01A5               	clrf	___lldiv@counter
  6667     0860  0AA5               	incf	___lldiv@counter,f
  6668     0861  286F               	goto	l5888
  6669     0862                     l5884:
  6670     0862  3001               	movlw	1
  6671     0863  00A0               	movwf	??___lldiv
  6672     0864                     u7525:
  6673     0864  1003               	clrc
  6674     0865  0DF2               	rlf	___lldiv@divisor,f
  6675     0866  0DF3               	rlf	___lldiv@divisor+1,f
  6676     0867  0DF4               	rlf	___lldiv@divisor+2,f
  6677     0868  0DF5               	rlf	___lldiv@divisor+3,f
  6678     0869  0BA0               	decfsz	??___lldiv,f
  6679     086A  2864               	goto	u7525
  6680     086B                     l5886:
  6681     086B  3001               	movlw	1
  6682     086C  00FF               	movwf	btemp+1
  6683     086D  087F               	movf	btemp+1,w
  6684     086E  07A5               	addwf	___lldiv@counter,f
  6685     086F                     l5888:
  6686     086F  1FF5               	btfss	___lldiv@divisor+3,7
  6687     0870  2872               	goto	u7531
  6688     0871  2873               	goto	u7530
  6689     0872                     u7531:
  6690     0872  2862               	goto	l5884
  6691     0873                     u7530:
  6692     0873                     l5890:
  6693     0873  3001               	movlw	1
  6694     0874  00A0               	movwf	??___lldiv
  6695     0875                     u7545:
  6696     0875  1003               	clrc
  6697     0876  0DA1               	rlf	___lldiv@quotient,f
  6698     0877  0DA2               	rlf	___lldiv@quotient+1,f
  6699     0878  0DA3               	rlf	___lldiv@quotient+2,f
  6700     0879  0DA4               	rlf	___lldiv@quotient+3,f
  6701     087A  0BA0               	decfsz	??___lldiv,f
  6702     087B  2875               	goto	u7545
  6703     087C                     l5892:
  6704     087C  0875               	movf	___lldiv@divisor+3,w
  6705     087D  0279               	subwf	___lldiv@dividend+3,w
  6706     087E  1D03               	skipz
  6707     087F  288A               	goto	u7555
  6708     0880  0874               	movf	___lldiv@divisor+2,w
  6709     0881  0278               	subwf	___lldiv@dividend+2,w
  6710     0882  1D03               	skipz
  6711     0883  288A               	goto	u7555
  6712     0884  0873               	movf	___lldiv@divisor+1,w
  6713     0885  0277               	subwf	___lldiv@dividend+1,w
  6714     0886  1D03               	skipz
  6715     0887  288A               	goto	u7555
  6716     0888  0872               	movf	___lldiv@divisor,w
  6717     0889  0276               	subwf	___lldiv@dividend,w
  6718     088A                     u7555:
  6719     088A  1C03               	skipc
  6720     088B  288D               	goto	u7551
  6721     088C  288E               	goto	u7550
  6722     088D                     u7551:
  6723     088D  289D               	goto	l5898
  6724     088E                     u7550:
  6725     088E                     l5894:
  6726     088E  0872               	movf	___lldiv@divisor,w
  6727     088F  02F6               	subwf	___lldiv@dividend,f
  6728     0890  0873               	movf	___lldiv@divisor+1,w
  6729     0891  1C03               	skipc
  6730     0892  0F73               	incfsz	___lldiv@divisor+1,w
  6731     0893  02F7               	subwf	___lldiv@dividend+1,f
  6732     0894  0874               	movf	___lldiv@divisor+2,w
  6733     0895  1C03               	skipc
  6734     0896  0F74               	incfsz	___lldiv@divisor+2,w
  6735     0897  02F8               	subwf	___lldiv@dividend+2,f
  6736     0898  0875               	movf	___lldiv@divisor+3,w
  6737     0899  1C03               	skipc
  6738     089A  0F75               	incfsz	___lldiv@divisor+3,w
  6739     089B  02F9               	subwf	___lldiv@dividend+3,f
  6740     089C                     l5896:
  6741     089C  1421               	bsf	___lldiv@quotient,0
  6742     089D                     l5898:
  6743     089D  3001               	movlw	1
  6744     089E                     u7565:
  6745     089E  1003               	clrc
  6746     089F  0CF5               	rrf	___lldiv@divisor+3,f
  6747     08A0  0CF4               	rrf	___lldiv@divisor+2,f
  6748     08A1  0CF3               	rrf	___lldiv@divisor+1,f
  6749     08A2  0CF2               	rrf	___lldiv@divisor,f
  6750     08A3  3EFF               	addlw	-1
  6751     08A4  1D03               	skipz
  6752     08A5  289E               	goto	u7565
  6753     08A6                     l5900:
  6754     08A6  3001               	movlw	1
  6755     08A7  02A5               	subwf	___lldiv@counter,f
  6756     08A8  1D03               	btfss	3,2
  6757     08A9  28AB               	goto	u7571
  6758     08AA  28AC               	goto	u7570
  6759     08AB                     u7571:
  6760     08AB  2873               	goto	l5890
  6761     08AC                     u7570:
  6762     08AC                     l5902:
  6763     08AC  0824               	movf	___lldiv@quotient+3,w
  6764     08AD  00F5               	movwf	?___lldiv+3
  6765     08AE  0823               	movf	___lldiv@quotient+2,w
  6766     08AF  00F4               	movwf	?___lldiv+2
  6767     08B0  0822               	movf	___lldiv@quotient+1,w
  6768     08B1  00F3               	movwf	?___lldiv+1
  6769     08B2  0821               	movf	___lldiv@quotient,w
  6770     08B3  00F2               	movwf	?___lldiv
  6771     08B4                     l1294:
  6772     08B4  0008               	return
  6773     08B5                     __end_of___lldiv:
  6774                           
  6775                           	psect	text13
  6776     1532                     __ptext13:	
  6777 ;; *************** function ___bmul *****************
  6778 ;; Defined at:
  6779 ;;		line 4 in file "E:\Microchip\xc8\v2.41\pic\sources\c90\common\Umul8.c"
  6780 ;; Parameters:    Size  Location     Type
  6781 ;;  multiplier      1    wreg     unsigned char 
  6782 ;;  multiplicand    1    6[BANK0 ] unsigned char 
  6783 ;; Auto vars:     Size  Location     Type
  6784 ;;  multiplier      1    8[BANK0 ] unsigned char 
  6785 ;;  product         1    7[BANK0 ] unsigned char 
  6786 ;; Return value:  Size  Location     Type
  6787 ;;                  1    wreg      unsigned char 
  6788 ;; Registers used:
  6789 ;;		wreg, status,2, status,0, btemp+1
  6790 ;; Tracked objects:
  6791 ;;		On entry : 0/0
  6792 ;;		On exit  : 0/0
  6793 ;;		Unchanged: 0/0
  6794 ;; Data sizes:     COMMON   BANK0   BANK1   BANK3   BANK2
  6795 ;;      Params:         0       1       0       0       0
  6796 ;;      Locals:         0       2       0       0       0
  6797 ;;      Temps:          0       0       0       0       0
  6798 ;;      Totals:         0       3       0       0       0
  6799 ;;Total ram usage:        3 bytes
  6800 ;; Hardware stack levels used: 1
  6801 ;; Hardware stack levels required when called: 1
  6802 ;; This function calls:
  6803 ;;		Nothing
  6804 ;; This function is called by:
  6805 ;;		_LCD_DisplayNumber
  6806 ;;		_LCD_Printf
  6807 ;;		_UART_printf
  6808 ;; This function uses a non-reentrant model
  6809 ;;
  6810                           
  6811     1532                     ___bmul:	
  6812                           ;psect for function ___bmul
  6813                           
  6814                           
  6815                           ;incstack = 0
  6816                           ; Regs used in ___bmul: [wreg+status,2+status,0+btemp+1]
  6817                           ;___bmul@multiplier stored from wreg
  6818     1532  1283               	bcf	3,5	;RP0=0, select bank0
  6819     1533  1303               	bcf	3,6	;RP1=0, select bank0
  6820     1534  00A8               	movwf	___bmul@multiplier
  6821     1535                     l5864:
  6822     1535  01A7               	clrf	___bmul@product
  6823     1536                     l5866:
  6824     1536  1C28               	btfss	___bmul@multiplier,0
  6825     1537  2D39               	goto	u7491
  6826     1538  2D3A               	goto	u7490
  6827     1539                     u7491:
  6828     1539  2D3E               	goto	l5870
  6829     153A                     u7490:
  6830     153A                     l5868:
  6831     153A  0826               	movf	___bmul@multiplicand,w
  6832     153B  00FF               	movwf	btemp+1
  6833     153C  087F               	movf	btemp+1,w
  6834     153D  07A7               	addwf	___bmul@product,f
  6835     153E                     l5870:
  6836     153E  1003               	clrc
  6837     153F  0DA6               	rlf	___bmul@multiplicand,f
  6838     1540                     l5872:
  6839     1540  1003               	clrc
  6840     1541  0CA8               	rrf	___bmul@multiplier,f
  6841     1542                     l5874:
  6842     1542  0828               	movf	___bmul@multiplier,w
  6843     1543  1D03               	btfss	3,2
  6844     1544  2D46               	goto	u7501
  6845     1545  2D47               	goto	u7500
  6846     1546                     u7501:
  6847     1546  2D36               	goto	l5866
  6848     1547                     u7500:
  6849     1547                     l5876:
  6850     1547  0827               	movf	___bmul@product,w
  6851     1548                     l1284:
  6852     1548  0008               	return
  6853     1549                     __end_of___bmul:
  6854                           
  6855                           	psect	text14
  6856     15E7                     __ptext14:	
  6857 ;; *************** function _LCD_DisplayChar *****************
  6858 ;; Defined at:
  6859 ;;		line 194 in file "../../Sources/16F887/lcd.c"
  6860 ;; Parameters:    Size  Location     Type
  6861 ;;  dataFrame       1    wreg     unsigned char 
  6862 ;; Auto vars:     Size  Location     Type
  6863 ;;  dataFrame       1    0[BANK0 ] unsigned char 
  6864 ;; Return value:  Size  Location     Type
  6865 ;;                  1    wreg      void 
  6866 ;; Registers used:
  6867 ;;		wreg, fsr0l, fsr0h, status,2, status,0, btemp+1, pclath, cstack
  6868 ;; Tracked objects:
  6869 ;;		On entry : 0/0
  6870 ;;		On exit  : 0/0
  6871 ;;		Unchanged: 0/0
  6872 ;; Data sizes:     COMMON   BANK0   BANK1   BANK3   BANK2
  6873 ;;      Params:         0       0       0       0       0
  6874 ;;      Locals:         0       1       0       0       0
  6875 ;;      Temps:          0       0       0       0       0
  6876 ;;      Totals:         0       1       0       0       0
  6877 ;;Total ram usage:        1 bytes
  6878 ;; Hardware stack levels used: 1
  6879 ;; Hardware stack levels required when called: 6
  6880 ;; This function calls:
  6881 ;;		_LCD_GoToNextLine
  6882 ;;		_lcd_DataWrite
  6883 ;; This function is called by:
  6884 ;;		_LCD_DisplayString
  6885 ;;		_LCD_DisplayNumber
  6886 ;;		_LCD_DisplayFloatNumber
  6887 ;;		_LCD_Printf
  6888 ;;		_LCD_ScrollMessage
  6889 ;;		_LCD_CreateCustomChar
  6890 ;;		_LCD_DisplayCustomChar
  6891 ;; This function uses a non-reentrant model
  6892 ;;
  6893                           
  6894     15E7                     _LCD_DisplayChar:	
  6895                           ;psect for function _LCD_DisplayChar
  6896                           
  6897                           
  6898                           ;incstack = 0
  6899 ;; hardware stack exceeded
  6900                           ; Regs used in _LCD_DisplayChar: [wreg-fsr0h+status,2+status,0+btemp+1+pclath+cstack]
  6901                           ;LCD_DisplayChar@dataFrame stored from wreg
  6902     15E7  1283               	bcf	3,5	;RP0=0, select bank0
  6903     15E8  1303               	bcf	3,6	;RP1=0, select bank0
  6904     15E9  00A0               	movwf	LCD_DisplayChar@dataFrame
  6905     15EA                     l5852:
  6906                           
  6907                           ;../../Sources/16F887/lcd.c: 195:     if((LcdTrackCursorPos >= LCDConfig.MaxSupportedCha
      +                          rs) || (dataFrame == '\n')){
  6908     15EA  1683               	bsf	3,5	;RP0=1, select bank1
  6909     15EB  1303               	bcf	3,6	;RP1=0, select bank1
  6910     15EC  0821               	movf	(_LCDConfig^(0+128)+1),w
  6911     15ED  1283               	bcf	3,5	;RP0=0, select bank0
  6912     15EE  1303               	bcf	3,6	;RP1=0, select bank0
  6913     15EF  025A               	subwf	_LcdTrackCursorPos,w
  6914     15F0  1803               	skipnc
  6915     15F1  2DF3               	goto	u7461
  6916     15F2  2DF4               	goto	u7460
  6917     15F3                     u7461:
  6918     15F3  2DFA               	goto	l5856
  6919     15F4                     u7460:
  6920     15F4                     l5854:
  6921     15F4  300A               	movlw	10
  6922     15F5  0620               	xorwf	LCD_DisplayChar@dataFrame,w
  6923     15F6  1D03               	btfss	3,2
  6924     15F7  2DF9               	goto	u7471
  6925     15F8  2DFA               	goto	u7470
  6926     15F9                     u7471:
  6927     15F9  2DFF               	goto	l5858
  6928     15FA                     u7470:
  6929     15FA                     l5856:
  6930                           
  6931                           ;../../Sources/16F887/lcd.c: 196:         LCD_GoToNextLine();
  6932     15FA  160A  118A  2564  160A  118A  	fcall	_LCD_GoToNextLine
  6933     15FF                     l5858:
  6934                           
  6935                           ;../../Sources/16F887/lcd.c: 198:     if(dataFrame != '\n'){
  6936     15FF  300A               	movlw	10
  6937     1600  1283               	bcf	3,5	;RP0=0, select bank0
  6938     1601  1303               	bcf	3,6	;RP1=0, select bank0
  6939     1602  0620               	xorwf	LCD_DisplayChar@dataFrame,w
  6940     1603  1903               	btfsc	3,2
  6941     1604  2E06               	goto	u7481
  6942     1605  2E07               	goto	u7480
  6943     1606                     u7481:
  6944     1606  2E13               	goto	l572
  6945     1607                     u7480:
  6946     1607                     l5860:
  6947                           
  6948                           ;../../Sources/16F887/lcd.c: 199:         lcd_DataWrite(dataFrame);
  6949     1607  0820               	movf	LCD_DisplayChar@dataFrame,w
  6950     1608  160A  118A  26AA  160A  118A  	fcall	_lcd_DataWrite
  6951     160D                     l5862:
  6952                           
  6953                           ;../../Sources/16F887/lcd.c: 200:         LcdTrackCursorPos++;
  6954     160D  3001               	movlw	1
  6955     160E  00FF               	movwf	btemp+1
  6956     160F  087F               	movf	btemp+1,w
  6957     1610  1283               	bcf	3,5	;RP0=0, select bank0
  6958     1611  1303               	bcf	3,6	;RP1=0, select bank0
  6959     1612  07DA               	addwf	_LcdTrackCursorPos,f
  6960     1613                     l572:
  6961     1613  0008               	return
  6962     1614                     __end_of_LCD_DisplayChar:
  6963                           
  6964                           	psect	text15
  6965     16AA                     __ptext15:	
  6966 ;; *************** function _lcd_DataWrite *****************
  6967 ;; Defined at:
  6968 ;;		line 417 in file "../../Sources/16F887/lcd.c"
  6969 ;; Parameters:    Size  Location     Type
  6970 ;;  dataFrame       1    wreg     unsigned char 
  6971 ;; Auto vars:     Size  Location     Type
  6972 ;;  dataFrame       1    9[COMMON] unsigned char 
  6973 ;; Return value:  Size  Location     Type
  6974 ;;                  1    wreg      void 
  6975 ;; Registers used:
  6976 ;;		wreg, fsr0l, fsr0h, status,2, status,0, btemp+1, pclath, cstack
  6977 ;; Tracked objects:
  6978 ;;		On entry : 0/0
  6979 ;;		On exit  : 0/0
  6980 ;;		Unchanged: 0/0
  6981 ;; Data sizes:     COMMON   BANK0   BANK1   BANK3   BANK2
  6982 ;;      Params:         0       0       0       0       0
  6983 ;;      Locals:         1       0       0       0       0
  6984 ;;      Temps:          1       0       0       0       0
  6985 ;;      Totals:         2       0       0       0       0
  6986 ;;Total ram usage:        2 bytes
  6987 ;; Hardware stack levels used: 1
  6988 ;; Hardware stack levels required when called: 4
  6989 ;; This function calls:
  6990 ;;		_lcd_BusyCheck
  6991 ;;		_lcd_SendDataSignlas
  6992 ;;		_lcd_SendHigherData
  6993 ;;		_lcd_SendLowerData
  6994 ;; This function is called by:
  6995 ;;		_LCD_DisplayChar
  6996 ;; This function uses a non-reentrant model
  6997 ;;
  6998                           
  6999     16AA                     _lcd_DataWrite:	
  7000                           ;psect for function _lcd_DataWrite
  7001                           
  7002                           
  7003                           ;incstack = 0
  7004                           ; Regs used in _lcd_DataWrite: [wreg-fsr0h+status,2+status,0+btemp+1+pclath+cstack]
  7005                           ;lcd_DataWrite@dataFrame stored from wreg
  7006     16AA  00F9               	movwf	lcd_DataWrite@dataFrame
  7007     16AB                     l5838:
  7008                           
  7009                           ;../../Sources/16F887/lcd.c: 418:     lcd_BusyCheck();
  7010     16AB  120A  158A  21C1  160A  118A  	fcall	_lcd_BusyCheck
  7011     16B0                     l5840:
  7012                           
  7013                           ;../../Sources/16F887/lcd.c: 419:     if(LCDConfig.LcdMode == 8){
  7014     16B0  3008               	movlw	8
  7015     16B1  1683               	bsf	3,5	;RP0=1, select bank1
  7016     16B2  1303               	bcf	3,6	;RP1=0, select bank1
  7017     16B3  0622               	xorwf	(_LCDConfig^(0+128)+2),w
  7018     16B4  1D03               	btfss	3,2
  7019     16B5  2EB7               	goto	u7441
  7020     16B6  2EB8               	goto	u7440
  7021     16B7                     u7441:
  7022     16B7  2EBF               	goto	l5844
  7023     16B8                     u7440:
  7024     16B8                     l5842:
  7025                           
  7026                           ;../../Sources/16F887/lcd.c: 420:         lcd_SendLowerData(dataFrame);
  7027     16B8  0879               	movf	lcd_DataWrite@dataFrame,w
  7028     16B9  160A  118A  271F  160A  118A  	fcall	_lcd_SendLowerData
  7029                           
  7030                           ;../../Sources/16F887/lcd.c: 421:     }else{
  7031     16BE  2ED5               	goto	l5848
  7032     16BF                     l5844:
  7033                           
  7034                           ;../../Sources/16F887/lcd.c: 422:         lcd_SendHigherData(dataFrame);
  7035     16BF  0879               	movf	lcd_DataWrite@dataFrame,w
  7036     16C0  160A  118A  26E1  160A  118A  	fcall	_lcd_SendHigherData
  7037                           
  7038                           ;../../Sources/16F887/lcd.c: 423:         lcd_SendDataSignlas();
  7039     16C5  160A  118A  2643  160A  118A  	fcall	_lcd_SendDataSignlas
  7040     16CA                     l5846:
  7041                           
  7042                           ;../../Sources/16F887/lcd.c: 424:         dataFrame = dataFrame << 4;
  7043     16CA  0879               	movf	lcd_DataWrite@dataFrame,w
  7044     16CB  00F8               	movwf	??_lcd_DataWrite
  7045     16CC  3003               	movlw	3
  7046     16CD                     u7455:
  7047     16CD  1003               	clrc
  7048     16CE  0DF8               	rlf	??_lcd_DataWrite,f
  7049     16CF  3EFF               	addlw	-1
  7050     16D0  1D03               	skipz
  7051     16D1  2ECD               	goto	u7455
  7052     16D2  1003               	clrc
  7053     16D3  0D78               	rlf	??_lcd_DataWrite,w
  7054     16D4  00F9               	movwf	lcd_DataWrite@dataFrame
  7055     16D5                     l5848:
  7056                           
  7057                           ;../../Sources/16F887/lcd.c: 426:     lcd_SendHigherData(dataFrame);
  7058     16D5  0879               	movf	lcd_DataWrite@dataFrame,w
  7059     16D6  160A  118A  26E1  160A  118A  	fcall	_lcd_SendHigherData
  7060     16DB                     l5850:
  7061                           
  7062                           ;../../Sources/16F887/lcd.c: 427:     lcd_SendDataSignlas();
  7063     16DB  160A  118A  2643  160A  118A  	fcall	_lcd_SendDataSignlas
  7064     16E0                     l672:
  7065     16E0  0008               	return
  7066     16E1                     __end_of_lcd_DataWrite:
  7067                           
  7068                           	psect	text16
  7069     1643                     __ptext16:	
  7070 ;; *************** function _lcd_SendDataSignlas *****************
  7071 ;; Defined at:
  7072 ;;		line 496 in file "../../Sources/16F887/lcd.c"
  7073 ;; Parameters:    Size  Location     Type
  7074 ;;		None
  7075 ;; Auto vars:     Size  Location     Type
  7076 ;;		None
  7077 ;; Return value:  Size  Location     Type
  7078 ;;                  1    wreg      void 
  7079 ;; Registers used:
  7080 ;;		wreg, fsr0l, fsr0h, status,2, status,0, btemp+1, pclath, cstack
  7081 ;; Tracked objects:
  7082 ;;		On entry : 0/0
  7083 ;;		On exit  : 0/0
  7084 ;;		Unchanged: 0/0
  7085 ;; Data sizes:     COMMON   BANK0   BANK1   BANK3   BANK2
  7086 ;;      Params:         0       0       0       0       0
  7087 ;;      Locals:         0       0       0       0       0
  7088 ;;      Temps:          0       0       0       0       0
  7089 ;;      Totals:         0       0       0       0       0
  7090 ;;Total ram usage:        0 bytes
  7091 ;; Hardware stack levels used: 1
  7092 ;; Hardware stack levels required when called: 2
  7093 ;; This function calls:
  7094 ;;		_Delay_us
  7095 ;;		_write_Digital
  7096 ;; This function is called by:
  7097 ;;		_lcd_DataWrite
  7098 ;; This function uses a non-reentrant model
  7099 ;;
  7100                           
  7101     1643                     _lcd_SendDataSignlas:	
  7102                           ;psect for function _lcd_SendDataSignlas
  7103                           
  7104     1643                     l5822:	
  7105                           ;incstack = 0
  7106                           ; Regs used in _lcd_SendDataSignlas: [wreg-fsr0h+status,2+status,0+btemp+1+pclath+cstack
      +                          ]
  7107                           
  7108                           
  7109                           ;../../Sources/16F887/lcd.c: 497:     write_Digital(LCDConfig.RS,0x01);
  7110     1643  01F2               	clrf	write_Digital@value
  7111     1644  0AF2               	incf	write_Digital@value,f
  7112     1645  1683               	bsf	3,5	;RP0=1, select bank1
  7113     1646  1303               	bcf	3,6	;RP1=0, select bank1
  7114     1647  0823               	movf	(_LCDConfig^(0+128)+3),w
  7115     1648  120A  158A  24C1  160A  118A  	fcall	_write_Digital
  7116                           
  7117                           ;../../Sources/16F887/lcd.c: 498:     write_Digital(LCDConfig.RW,0x00);
  7118     164D  01F2               	clrf	write_Digital@value
  7119     164E  1683               	bsf	3,5	;RP0=1, select bank1
  7120     164F  1303               	bcf	3,6	;RP1=0, select bank1
  7121     1650  0824               	movf	(_LCDConfig^(0+128)+4),w
  7122     1651  120A  158A  24C1  160A  118A  	fcall	_write_Digital
  7123                           
  7124                           ;../../Sources/16F887/lcd.c: 499:     write_Digital(LCDConfig.EN,0x01);
  7125     1656  01F2               	clrf	write_Digital@value
  7126     1657  0AF2               	incf	write_Digital@value,f
  7127     1658  1683               	bsf	3,5	;RP0=1, select bank1
  7128     1659  1303               	bcf	3,6	;RP1=0, select bank1
  7129     165A  0825               	movf	(_LCDConfig^(0+128)+5),w
  7130     165B  120A  158A  24C1  160A  118A  	fcall	_write_Digital
  7131     1660                     l5824:
  7132                           
  7133                           ;../../Sources/16F887/lcd.c: 500:     Delay_us(10);
  7134     1660  300A               	movlw	10
  7135     1661  00F2               	movwf	Delay_us@us_count
  7136     1662  3000               	movlw	0
  7137     1663  00F3               	movwf	Delay_us@us_count+1
  7138     1664  120A  118A  27F1  160A  118A  	fcall	_Delay_us
  7139     1669                     l5826:
  7140                           
  7141                           ;../../Sources/16F887/lcd.c: 501:     write_Digital(LCDConfig.EN,0x00);
  7142     1669  01F2               	clrf	write_Digital@value
  7143     166A  1683               	bsf	3,5	;RP0=1, select bank1
  7144     166B  1303               	bcf	3,6	;RP1=0, select bank1
  7145     166C  0825               	movf	(_LCDConfig^(0+128)+5),w
  7146     166D  120A  158A  24C1  160A  118A  	fcall	_write_Digital
  7147     1672                     l689:
  7148     1672  0008               	return
  7149     1673                     __end_of_lcd_SendDataSignlas:
  7150                           
  7151                           	psect	text17
  7152     1564                     __ptext17:	
  7153 ;; *************** function _LCD_GoToNextLine *****************
  7154 ;; Defined at:
  7155 ;;		line 168 in file "../../Sources/16F887/lcd.c"
  7156 ;; Parameters:    Size  Location     Type
  7157 ;;		None
  7158 ;; Auto vars:     Size  Location     Type
  7159 ;;		None
  7160 ;; Return value:  Size  Location     Type
  7161 ;;                  1    wreg      void 
  7162 ;; Registers used:
  7163 ;;		wreg, fsr0l, fsr0h, status,2, status,0, btemp+1, pclath, cstack
  7164 ;; Tracked objects:
  7165 ;;		On entry : 0/0
  7166 ;;		On exit  : 0/0
  7167 ;;		Unchanged: 0/0
  7168 ;; Data sizes:     COMMON   BANK0   BANK1   BANK3   BANK2
  7169 ;;      Params:         0       0       0       0       0
  7170 ;;      Locals:         0       0       0       0       0
  7171 ;;      Temps:          0       0       0       0       0
  7172 ;;      Totals:         0       0       0       0       0
  7173 ;;Total ram usage:        0 bytes
  7174 ;; Hardware stack levels used: 1
  7175 ;; Hardware stack levels required when called: 5
  7176 ;; This function calls:
  7177 ;;		_LCD_CMD_Write
  7178 ;; This function is called by:
  7179 ;;		_LCD_DisplayChar
  7180 ;;		_LCD_CreateCustomChar
  7181 ;; This function uses a non-reentrant model
  7182 ;;
  7183                           
  7184     1564                     _LCD_GoToNextLine:	
  7185                           ;psect for function _LCD_GoToNextLine
  7186                           
  7187     1564                     l5828:	
  7188                           ;incstack = 0
  7189 ;; hardware stack exceeded
  7190                           ; Regs used in _LCD_GoToNextLine: [wreg-fsr0h+status,2+status,0+btemp+1+pclath+cstack]
  7191                           
  7192                           
  7193                           ;../../Sources/16F887/lcd.c: 169:     LcdTrackLineNum++;
  7194     1564  3001               	movlw	1
  7195     1565  00FF               	movwf	btemp+1
  7196     1566  087F               	movf	btemp+1,w
  7197     1567  07FB               	addwf	_LcdTrackLineNum,f
  7198     1568                     l5830:
  7199                           
  7200                           ;../../Sources/16F887/lcd.c: 170:     LcdTrackCursorPos = 0x00;
  7201     1568  1283               	bcf	3,5	;RP0=0, select bank0
  7202     1569  1303               	bcf	3,6	;RP1=0, select bank0
  7203     156A  01DA               	clrf	_LcdTrackCursorPos
  7204     156B                     l5832:
  7205                           
  7206                           ;../../Sources/16F887/lcd.c: 171:     if(LcdTrackLineNum >= LCDConfig.MaxSupportedLines)
      +                          {
  7207     156B  1683               	bsf	3,5	;RP0=1, select bank1
  7208     156C  1303               	bcf	3,6	;RP1=0, select bank1
  7209     156D  0820               	movf	_LCDConfig^(0+128),w
  7210     156E  027B               	subwf	_LcdTrackLineNum,w
  7211     156F  1C03               	skipc
  7212     1570  2D72               	goto	u7431
  7213     1571  2D73               	goto	u7430
  7214     1572                     u7431:
  7215     1572  2D74               	goto	l5836
  7216     1573                     u7430:
  7217     1573                     l5834:
  7218                           
  7219                           ;../../Sources/16F887/lcd.c: 172:         LcdTrackLineNum = 0x00;
  7220     1573  01FB               	clrf	_LcdTrackLineNum
  7221     1574                     l5836:
  7222                           
  7223                           ;../../Sources/16F887/lcd.c: 174:     LCD_CMD_Write(Array_LCDLineNumAddress[LcdTrackLine
      +                          Num]);
  7224     1574  087B               	movf	_LcdTrackLineNum,w
  7225     1575  3E55               	addlw	(low (_Array_LCDLineNumAddress| 0))& (0+255)
  7226     1576  0084               	movwf	4
  7227     1577  1383               	bcf	3,7	;select IRP bank0
  7228     1578  0800               	movf	0,w
  7229     1579  160A  118A  2673  160A  118A  	fcall	_LCD_CMD_Write
  7230     157E                     l561:
  7231     157E  0008               	return
  7232     157F                     __end_of_LCD_GoToNextLine:
  7233                           
  7234                           	psect	text18
  7235     17AE                     __ptext18:	
  7236 ;; *************** function _LCD_Init *****************
  7237 ;; Defined at:
  7238 ;;		line 108 in file "../../Sources/16F887/lcd.c"
  7239 ;; Parameters:    Size  Location     Type
  7240 ;;  var_maxLCDLi    1    wreg     unsigned char 
  7241 ;;  var_maxLCDCh    1    1[BANK0 ] unsigned char 
  7242 ;; Auto vars:     Size  Location     Type
  7243 ;;  var_maxLCDLi    1    2[BANK0 ] unsigned char 
  7244 ;; Return value:  Size  Location     Type
  7245 ;;                  1    wreg      void 
  7246 ;; Registers used:
  7247 ;;		wreg, fsr0l, fsr0h, status,2, status,0, btemp+1, pclath, cstack
  7248 ;; Tracked objects:
  7249 ;;		On entry : 0/0
  7250 ;;		On exit  : 0/0
  7251 ;;		Unchanged: 0/0
  7252 ;; Data sizes:     COMMON   BANK0   BANK1   BANK3   BANK2
  7253 ;;      Params:         0       1       0       0       0
  7254 ;;      Locals:         0       1       0       0       0
  7255 ;;      Temps:          0       0       0       0       0
  7256 ;;      Totals:         0       2       0       0       0
  7257 ;;Total ram usage:        2 bytes
  7258 ;; Hardware stack levels used: 1
  7259 ;; Hardware stack levels required when called: 7
  7260 ;; This function calls:
  7261 ;;		_Delay_ms
  7262 ;;		_LCD_CMD_Write
  7263 ;;		_LCD_Clear
  7264 ;;		_lcd_Reset
  7265 ;; This function is called by:
  7266 ;;		_main
  7267 ;; This function uses a non-reentrant model
  7268 ;;
  7269                           
  7270     17AE                     _LCD_Init:	
  7271                           ;psect for function _LCD_Init
  7272                           
  7273                           
  7274                           ;incstack = 0
  7275                           ; Regs used in _LCD_Init: [wreg-fsr0h+status,2+status,0+btemp+1+pclath+cstack]
  7276                           ;LCD_Init@var_maxLCDLines stored from wreg
  7277     17AE  1283               	bcf	3,5	;RP0=0, select bank0
  7278     17AF  1303               	bcf	3,6	;RP1=0, select bank0
  7279     17B0  00A2               	movwf	LCD_Init@var_maxLCDLines
  7280     17B1                     l6492:
  7281                           
  7282                           ;../../Sources/16F887/lcd.c: 109:     LCDConfig.MaxSupportedLines = var_maxLCDLines;
  7283     17B1  0822               	movf	LCD_Init@var_maxLCDLines,w
  7284     17B2  1683               	bsf	3,5	;RP0=1, select bank1
  7285     17B3  1303               	bcf	3,6	;RP1=0, select bank1
  7286     17B4  00A0               	movwf	_LCDConfig^(0+128)
  7287                           
  7288                           ;../../Sources/16F887/lcd.c: 110:     LCDConfig.MaxSupportedChars = var_maxLCDChars;
  7289     17B5  1283               	bcf	3,5	;RP0=0, select bank0
  7290     17B6  1303               	bcf	3,6	;RP1=0, select bank0
  7291     17B7  0821               	movf	LCD_Init@var_maxLCDChars,w
  7292     17B8  1683               	bsf	3,5	;RP0=1, select bank1
  7293     17B9  1303               	bcf	3,6	;RP1=0, select bank1
  7294     17BA  00A1               	movwf	(_LCDConfig^(0+128)+1)
  7295                           
  7296                           ;../../Sources/16F887/lcd.c: 111:     if(var_maxLCDLines > 0x02){
  7297     17BB  3003               	movlw	3
  7298     17BC  1283               	bcf	3,5	;RP0=0, select bank0
  7299     17BD  1303               	bcf	3,6	;RP1=0, select bank0
  7300     17BE  0222               	subwf	LCD_Init@var_maxLCDLines,w
  7301     17BF  1C03               	skipc
  7302     17C0  2FC2               	goto	u8861
  7303     17C1  2FC3               	goto	u8860
  7304     17C2                     u8861:
  7305     17C2  2FCB               	goto	l6496
  7306     17C3                     u8860:
  7307     17C3                     l6494:
  7308                           
  7309                           ;../../Sources/16F887/lcd.c: 112:         Array_LCDLineNumAddress[0x02] = 0x90 + (var_ma
      +                          xLCDChars & 0x0F);
  7310     17C3  0821               	movf	LCD_Init@var_maxLCDChars,w
  7311     17C4  390F               	andlw	15
  7312     17C5  3E90               	addlw	144
  7313     17C6  00D7               	movwf	_Array_LCDLineNumAddress+2
  7314                           
  7315                           ;../../Sources/16F887/lcd.c: 113:         Array_LCDLineNumAddress[0x03] = 0xD0 + (var_ma
      +                          xLCDChars & 0x0F);
  7316     17C7  0821               	movf	LCD_Init@var_maxLCDChars,w
  7317     17C8  390F               	andlw	15
  7318     17C9  3ED0               	addlw	208
  7319     17CA  00D8               	movwf	_Array_LCDLineNumAddress+3
  7320     17CB                     l6496:
  7321                           
  7322                           ;../../Sources/16F887/lcd.c: 115:     Delay_ms(100);
  7323     17CB  3064               	movlw	100
  7324     17CC  00F4               	movwf	Delay_ms@ms_count
  7325     17CD  3000               	movlw	0
  7326     17CE  00F5               	movwf	Delay_ms@ms_count+1
  7327     17CF  160A  118A  251B  160A  118A  	fcall	_Delay_ms
  7328     17D4                     l6498:
  7329                           
  7330                           ;../../Sources/16F887/lcd.c: 116:     if(LCDConfig.LcdMode == 8){
  7331     17D4  3008               	movlw	8
  7332     17D5  1683               	bsf	3,5	;RP0=1, select bank1
  7333     17D6  1303               	bcf	3,6	;RP1=0, select bank1
  7334     17D7  0622               	xorwf	(_LCDConfig^(0+128)+2),w
  7335     17D8  1D03               	btfss	3,2
  7336     17D9  2FDB               	goto	u8871
  7337     17DA  2FDC               	goto	u8870
  7338     17DB                     u8871:
  7339     17DB  2FE3               	goto	l6502
  7340     17DC                     u8870:
  7341     17DC                     l6500:
  7342                           
  7343                           ;../../Sources/16F887/lcd.c: 117:         LCD_CMD_Write(0x38);
  7344     17DC  3038               	movlw	56
  7345     17DD  160A  118A  2673  160A  118A  	fcall	_LCD_CMD_Write
  7346                           
  7347                           ;../../Sources/16F887/lcd.c: 118:     }else if(LCDConfig.LcdMode == 4){
  7348     17E2  2FF4               	goto	l543
  7349     17E3                     l6502:
  7350     17E3  3004               	movlw	4
  7351     17E4  0622               	xorwf	(_LCDConfig^(0+128)+2),w
  7352     17E5  1D03               	btfss	3,2
  7353     17E6  2FE8               	goto	u8881
  7354     17E7  2FE9               	goto	u8880
  7355     17E8                     u8881:
  7356     17E8  2FF4               	goto	l543
  7357     17E9                     u8880:
  7358     17E9                     l6504:
  7359                           
  7360                           ;../../Sources/16F887/lcd.c: 119:         lcd_Reset();
  7361     17E9  160A  118A  275D  160A  118A  	fcall	_lcd_Reset
  7362                           
  7363                           ;../../Sources/16F887/lcd.c: 120:         LCD_CMD_Write(0x28);
  7364     17EE  3028               	movlw	40
  7365     17EF  160A  118A  2673  160A  118A  	fcall	_LCD_CMD_Write
  7366     17F4                     l543:
  7367                           
  7368                           ;../../Sources/16F887/lcd.c: 122:     LCD_CMD_Write(0x0E);
  7369     17F4  300E               	movlw	14
  7370     17F5  160A  118A  2673  160A  118A  	fcall	_LCD_CMD_Write
  7371                           
  7372                           ;../../Sources/16F887/lcd.c: 123:     LCD_Clear();
  7373     17FA  120A  158A  2000  160A  118A  	fcall	_LCD_Clear
  7374     17FF                     l545:
  7375     17FF  0008               	return
  7376     1800                     __end_of_LCD_Init:
  7377                           
  7378                           	psect	text19
  7379     175D                     __ptext19:	
  7380 ;; *************** function _lcd_Reset *****************
  7381 ;; Defined at:
  7382 ;;		line 465 in file "../../Sources/16F887/lcd.c"
  7383 ;; Parameters:    Size  Location     Type
  7384 ;;		None
  7385 ;; Auto vars:     Size  Location     Type
  7386 ;;		None
  7387 ;; Return value:  Size  Location     Type
  7388 ;;                  1    wreg      void 
  7389 ;; Registers used:
  7390 ;;		wreg, fsr0l, fsr0h, status,2, status,0, btemp+1, pclath, cstack
  7391 ;; Tracked objects:
  7392 ;;		On entry : 0/0
  7393 ;;		On exit  : 0/0
  7394 ;;		Unchanged: 0/0
  7395 ;; Data sizes:     COMMON   BANK0   BANK1   BANK3   BANK2
  7396 ;;      Params:         0       0       0       0       0
  7397 ;;      Locals:         0       0       0       0       0
  7398 ;;      Temps:          0       0       0       0       0
  7399 ;;      Totals:         0       0       0       0       0
  7400 ;;Total ram usage:        0 bytes
  7401 ;; Hardware stack levels used: 1
  7402 ;; Hardware stack levels required when called: 3
  7403 ;; This function calls:
  7404 ;;		_Delay_ms
  7405 ;;		_Delay_us
  7406 ;;		_lcd_SendCMDSignlas
  7407 ;;		_lcd_SendHigherData
  7408 ;; This function is called by:
  7409 ;;		_LCD_Init
  7410 ;; This function uses a non-reentrant model
  7411 ;;
  7412                           
  7413     175D                     _lcd_Reset:	
  7414                           ;psect for function _lcd_Reset
  7415                           
  7416     175D                     l6414:	
  7417                           ;incstack = 0
  7418                           ; Regs used in _lcd_Reset: [wreg-fsr0h+status,2+status,0+btemp+1+pclath+cstack]
  7419                           
  7420                           
  7421                           ;../../Sources/16F887/lcd.c: 466:     lcd_SendHigherData(0x30);
  7422     175D  3030               	movlw	48
  7423     175E  160A  118A  26E1  160A  118A  	fcall	_lcd_SendHigherData
  7424                           
  7425                           ;../../Sources/16F887/lcd.c: 467:     lcd_SendCMDSignlas();
  7426     1763  160A  118A  2614  160A  118A  	fcall	_lcd_SendCMDSignlas
  7427     1768                     l6416:
  7428                           
  7429                           ;../../Sources/16F887/lcd.c: 468:     Delay_ms(100);
  7430     1768  3064               	movlw	100
  7431     1769  00F4               	movwf	Delay_ms@ms_count
  7432     176A  3000               	movlw	0
  7433     176B  00F5               	movwf	Delay_ms@ms_count+1
  7434     176C  160A  118A  251B  160A  118A  	fcall	_Delay_ms
  7435     1771                     l6418:
  7436                           
  7437                           ;../../Sources/16F887/lcd.c: 469:     lcd_SendHigherData(0x30);
  7438     1771  3030               	movlw	48
  7439     1772  160A  118A  26E1  160A  118A  	fcall	_lcd_SendHigherData
  7440     1777                     l6420:
  7441                           
  7442                           ;../../Sources/16F887/lcd.c: 470:     lcd_SendCMDSignlas();
  7443     1777  160A  118A  2614  160A  118A  	fcall	_lcd_SendCMDSignlas
  7444     177C                     l6422:
  7445                           
  7446                           ;../../Sources/16F887/lcd.c: 471:     Delay_us(200);
  7447     177C  30C8               	movlw	200
  7448     177D  00F2               	movwf	Delay_us@us_count
  7449     177E  3000               	movlw	0
  7450     177F  00F3               	movwf	Delay_us@us_count+1
  7451     1780  120A  118A  27F1  160A  118A  	fcall	_Delay_us
  7452                           
  7453                           ;../../Sources/16F887/lcd.c: 472:     lcd_SendHigherData(0x30);
  7454     1785  3030               	movlw	48
  7455     1786  160A  118A  26E1  160A  118A  	fcall	_lcd_SendHigherData
  7456                           
  7457                           ;../../Sources/16F887/lcd.c: 473:     lcd_SendCMDSignlas();
  7458     178B  160A  118A  2614  160A  118A  	fcall	_lcd_SendCMDSignlas
  7459     1790                     l6424:
  7460                           
  7461                           ;../../Sources/16F887/lcd.c: 474:     Delay_us(200);
  7462     1790  30C8               	movlw	200
  7463     1791  00F2               	movwf	Delay_us@us_count
  7464     1792  3000               	movlw	0
  7465     1793  00F3               	movwf	Delay_us@us_count+1
  7466     1794  120A  118A  27F1  160A  118A  	fcall	_Delay_us
  7467     1799                     l6426:
  7468                           
  7469                           ;../../Sources/16F887/lcd.c: 475:     lcd_SendHigherData(0x20);
  7470     1799  3020               	movlw	32
  7471     179A  160A  118A  26E1  160A  118A  	fcall	_lcd_SendHigherData
  7472     179F                     l6428:
  7473                           
  7474                           ;../../Sources/16F887/lcd.c: 476:     lcd_SendCMDSignlas();
  7475     179F  160A  118A  2614  160A  118A  	fcall	_lcd_SendCMDSignlas
  7476     17A4                     l6430:
  7477                           
  7478                           ;../../Sources/16F887/lcd.c: 477:     Delay_us(200);
  7479     17A4  30C8               	movlw	200
  7480     17A5  00F2               	movwf	Delay_us@us_count
  7481     17A6  3000               	movlw	0
  7482     17A7  00F3               	movwf	Delay_us@us_count+1
  7483     17A8  120A  118A  27F1  160A  118A  	fcall	_Delay_us
  7484     17AD                     l683:
  7485     17AD  0008               	return
  7486     17AE                     __end_of_lcd_Reset:
  7487                           
  7488                           	psect	text20
  7489     0800                     __ptext20:	
  7490 ;; *************** function _LCD_Clear *****************
  7491 ;; Defined at:
  7492 ;;		line 130 in file "../../Sources/16F887/lcd.c"
  7493 ;; Parameters:    Size  Location     Type
  7494 ;;		None
  7495 ;; Auto vars:     Size  Location     Type
  7496 ;;		None
  7497 ;; Return value:  Size  Location     Type
  7498 ;;                  1    wreg      void 
  7499 ;; Registers used:
  7500 ;;		wreg, fsr0l, fsr0h, status,2, status,0, btemp+1, pclath, cstack
  7501 ;; Tracked objects:
  7502 ;;		On entry : 0/0
  7503 ;;		On exit  : 0/0
  7504 ;;		Unchanged: 0/0
  7505 ;; Data sizes:     COMMON   BANK0   BANK1   BANK3   BANK2
  7506 ;;      Params:         0       0       0       0       0
  7507 ;;      Locals:         0       0       0       0       0
  7508 ;;      Temps:          0       0       0       0       0
  7509 ;;      Totals:         0       0       0       0       0
  7510 ;;Total ram usage:        0 bytes
  7511 ;; Hardware stack levels used: 1
  7512 ;; Hardware stack levels required when called: 6
  7513 ;; This function calls:
  7514 ;;		_LCD_CMD_Write
  7515 ;;		_LCD_GoToLine
  7516 ;; This function is called by:
  7517 ;;		_main
  7518 ;;		_LCD_Init
  7519 ;; This function uses a non-reentrant model
  7520 ;;
  7521                           
  7522     0800                     _LCD_Clear:	
  7523                           ;psect for function _LCD_Clear
  7524                           
  7525     0800                     l6412:	
  7526                           ;incstack = 0
  7527                           ; Regs used in _LCD_Clear: [wreg-fsr0h+status,2+status,0+btemp+1+pclath+cstack]
  7528                           
  7529                           
  7530                           ;../../Sources/16F887/lcd.c: 131:     LCD_CMD_Write(0x01);
  7531     0800  3001               	movlw	1
  7532     0801  160A  118A  2673  120A  158A  	fcall	_LCD_CMD_Write
  7533                           
  7534                           ;../../Sources/16F887/lcd.c: 132:     LCD_GoToLine(0x00);
  7535     0806  3000               	movlw	0
  7536     0807  160A  118A  2549  120A  158A  	fcall	_LCD_GoToLine
  7537     080C                     l548:
  7538     080C  0008               	return
  7539     080D                     __end_of_LCD_Clear:
  7540                           
  7541                           	psect	text21
  7542     1549                     __ptext21:	
  7543 ;; *************** function _LCD_GoToLine *****************
  7544 ;; Defined at:
  7545 ;;		line 156 in file "../../Sources/16F887/lcd.c"
  7546 ;; Parameters:    Size  Location     Type
  7547 ;;  var_LineNum     1    wreg     unsigned char 
  7548 ;; Auto vars:     Size  Location     Type
  7549 ;;  var_LineNum     1    0[BANK0 ] unsigned char 
  7550 ;; Return value:  Size  Location     Type
  7551 ;;                  1    wreg      void 
  7552 ;; Registers used:
  7553 ;;		wreg, fsr0l, fsr0h, status,2, status,0, btemp+1, pclath, cstack
  7554 ;; Tracked objects:
  7555 ;;		On entry : 0/0
  7556 ;;		On exit  : 0/0
  7557 ;;		Unchanged: 0/0
  7558 ;; Data sizes:     COMMON   BANK0   BANK1   BANK3   BANK2
  7559 ;;      Params:         0       0       0       0       0
  7560 ;;      Locals:         0       1       0       0       0
  7561 ;;      Temps:          0       0       0       0       0
  7562 ;;      Totals:         0       1       0       0       0
  7563 ;;Total ram usage:        1 bytes
  7564 ;; Hardware stack levels used: 1
  7565 ;; Hardware stack levels required when called: 5
  7566 ;; This function calls:
  7567 ;;		_LCD_CMD_Write
  7568 ;; This function is called by:
  7569 ;;		_main
  7570 ;;		_LCD_Clear
  7571 ;;		_LCD_ScrollMessage
  7572 ;; This function uses a non-reentrant model
  7573 ;;
  7574                           
  7575     1549                     _LCD_GoToLine:	
  7576                           ;psect for function _LCD_GoToLine
  7577                           
  7578                           
  7579                           ;incstack = 0
  7580                           ; Regs used in _LCD_GoToLine: [wreg-fsr0h+status,2+status,0+btemp+1+pclath+cstack]
  7581                           ;LCD_GoToLine@var_LineNum stored from wreg
  7582     1549  1283               	bcf	3,5	;RP0=0, select bank0
  7583     154A  1303               	bcf	3,6	;RP1=0, select bank0
  7584     154B  00A0               	movwf	LCD_GoToLine@var_LineNum
  7585     154C                     l6120:
  7586                           
  7587                           ;../../Sources/16F887/lcd.c: 157:     if(var_LineNum < LCDConfig.MaxSupportedLines){
  7588     154C  1683               	bsf	3,5	;RP0=1, select bank1
  7589     154D  1303               	bcf	3,6	;RP1=0, select bank1
  7590     154E  0820               	movf	_LCDConfig^(0+128),w
  7591     154F  1283               	bcf	3,5	;RP0=0, select bank0
  7592     1550  1303               	bcf	3,6	;RP1=0, select bank0
  7593     1551  0220               	subwf	LCD_GoToLine@var_LineNum,w
  7594     1552  1803               	skipnc
  7595     1553  2D55               	goto	u8071
  7596     1554  2D56               	goto	u8070
  7597     1555                     u8071:
  7598     1555  2D63               	goto	l557
  7599     1556                     u8070:
  7600     1556                     l6122:
  7601                           
  7602                           ;../../Sources/16F887/lcd.c: 158:         LcdTrackCursorPos = 0x00;
  7603     1556  01DA               	clrf	_LcdTrackCursorPos
  7604     1557                     l6124:
  7605                           
  7606                           ;../../Sources/16F887/lcd.c: 159:         LcdTrackLineNum = var_LineNum;
  7607     1557  0820               	movf	LCD_GoToLine@var_LineNum,w
  7608     1558  00FB               	movwf	_LcdTrackLineNum
  7609     1559                     l6126:
  7610                           
  7611                           ;../../Sources/16F887/lcd.c: 160:         LCD_CMD_Write(Array_LCDLineNumAddress[var_Line
      +                          Num]);
  7612     1559  0820               	movf	LCD_GoToLine@var_LineNum,w
  7613     155A  3E55               	addlw	(low (_Array_LCDLineNumAddress| 0))& (0+255)
  7614     155B  0084               	movwf	4
  7615     155C  1383               	bcf	3,7	;select IRP bank0
  7616     155D  0800               	movf	0,w
  7617     155E  160A  118A  2673  160A  118A  	fcall	_LCD_CMD_Write
  7618     1563                     l557:
  7619     1563  0008               	return
  7620     1564                     __end_of_LCD_GoToLine:
  7621                           
  7622                           	psect	text22
  7623     1673                     __ptext22:	
  7624 ;; *************** function _LCD_CMD_Write *****************
  7625 ;; Defined at:
  7626 ;;		line 139 in file "../../Sources/16F887/lcd.c"
  7627 ;; Parameters:    Size  Location     Type
  7628 ;;  CMDFrame        1    wreg     unsigned char 
  7629 ;; Auto vars:     Size  Location     Type
  7630 ;;  CMDFrame        1    9[COMMON] unsigned char 
  7631 ;; Return value:  Size  Location     Type
  7632 ;;                  1    wreg      void 
  7633 ;; Registers used:
  7634 ;;		wreg, fsr0l, fsr0h, status,2, status,0, btemp+1, pclath, cstack
  7635 ;; Tracked objects:
  7636 ;;		On entry : 0/0
  7637 ;;		On exit  : 0/0
  7638 ;;		Unchanged: 0/0
  7639 ;; Data sizes:     COMMON   BANK0   BANK1   BANK3   BANK2
  7640 ;;      Params:         0       0       0       0       0
  7641 ;;      Locals:         1       0       0       0       0
  7642 ;;      Temps:          1       0       0       0       0
  7643 ;;      Totals:         2       0       0       0       0
  7644 ;;Total ram usage:        2 bytes
  7645 ;; Hardware stack levels used: 1
  7646 ;; Hardware stack levels required when called: 4
  7647 ;; This function calls:
  7648 ;;		_lcd_BusyCheck
  7649 ;;		_lcd_SendCMDSignlas
  7650 ;;		_lcd_SendHigherData
  7651 ;;		_lcd_SendLowerData
  7652 ;; This function is called by:
  7653 ;;		_LCD_Init
  7654 ;;		_LCD_Clear
  7655 ;;		_LCD_GoToLine
  7656 ;;		_LCD_GoToNextLine
  7657 ;;		_LCD_SetCursor
  7658 ;;		_LCD_ScrollMessage
  7659 ;;		_LCD_CreateCustomChar
  7660 ;; This function uses a non-reentrant model
  7661 ;;
  7662                           
  7663     1673                     _LCD_CMD_Write:	
  7664                           ;psect for function _LCD_CMD_Write
  7665                           
  7666                           
  7667                           ;incstack = 0
  7668 ;; hardware stack exceeded
  7669                           ; Regs used in _LCD_CMD_Write: [wreg-fsr0h+status,2+status,0+btemp+1+pclath+cstack]
  7670                           ;LCD_CMD_Write@CMDFrame stored from wreg
  7671     1673  00F9               	movwf	LCD_CMD_Write@CMDFrame
  7672     1674                     l5808:
  7673                           
  7674                           ;../../Sources/16F887/lcd.c: 140:     lcd_BusyCheck();
  7675     1674  120A  158A  21C1  160A  118A  	fcall	_lcd_BusyCheck
  7676     1679                     l5810:
  7677                           
  7678                           ;../../Sources/16F887/lcd.c: 141:     if(LCDConfig.LcdMode == 8){
  7679     1679  3008               	movlw	8
  7680     167A  1683               	bsf	3,5	;RP0=1, select bank1
  7681     167B  1303               	bcf	3,6	;RP1=0, select bank1
  7682     167C  0622               	xorwf	(_LCDConfig^(0+128)+2),w
  7683     167D  1D03               	btfss	3,2
  7684     167E  2E80               	goto	u7411
  7685     167F  2E81               	goto	u7410
  7686     1680                     u7411:
  7687     1680  2E88               	goto	l5814
  7688     1681                     u7410:
  7689     1681                     l5812:
  7690                           
  7691                           ;../../Sources/16F887/lcd.c: 142:         lcd_SendLowerData(CMDFrame);
  7692     1681  0879               	movf	LCD_CMD_Write@CMDFrame,w
  7693     1682  160A  118A  271F  160A  118A  	fcall	_lcd_SendLowerData
  7694                           
  7695                           ;../../Sources/16F887/lcd.c: 143:     }else{
  7696     1687  2E9E               	goto	l5818
  7697     1688                     l5814:
  7698                           
  7699                           ;../../Sources/16F887/lcd.c: 144:         lcd_SendHigherData(CMDFrame);
  7700     1688  0879               	movf	LCD_CMD_Write@CMDFrame,w
  7701     1689  160A  118A  26E1  160A  118A  	fcall	_lcd_SendHigherData
  7702                           
  7703                           ;../../Sources/16F887/lcd.c: 145:         lcd_SendCMDSignlas();
  7704     168E  160A  118A  2614  160A  118A  	fcall	_lcd_SendCMDSignlas
  7705     1693                     l5816:
  7706                           
  7707                           ;../../Sources/16F887/lcd.c: 146:         CMDFrame = CMDFrame << 4;
  7708     1693  0879               	movf	LCD_CMD_Write@CMDFrame,w
  7709     1694  00F8               	movwf	??_LCD_CMD_Write
  7710     1695  3003               	movlw	3
  7711     1696                     u7425:
  7712     1696  1003               	clrc
  7713     1697  0DF8               	rlf	??_LCD_CMD_Write,f
  7714     1698  3EFF               	addlw	-1
  7715     1699  1D03               	skipz
  7716     169A  2E96               	goto	u7425
  7717     169B  1003               	clrc
  7718     169C  0D78               	rlf	??_LCD_CMD_Write,w
  7719     169D  00F9               	movwf	LCD_CMD_Write@CMDFrame
  7720     169E                     l5818:
  7721                           
  7722                           ;../../Sources/16F887/lcd.c: 148:     lcd_SendHigherData(CMDFrame);
  7723     169E  0879               	movf	LCD_CMD_Write@CMDFrame,w
  7724     169F  160A  118A  26E1  160A  118A  	fcall	_lcd_SendHigherData
  7725     16A4                     l5820:
  7726                           
  7727                           ;../../Sources/16F887/lcd.c: 149:     lcd_SendCMDSignlas();
  7728     16A4  160A  118A  2614  160A  118A  	fcall	_lcd_SendCMDSignlas
  7729     16A9                     l553:
  7730     16A9  0008               	return
  7731     16AA                     __end_of_LCD_CMD_Write:
  7732                           
  7733                           	psect	text23
  7734     171F                     __ptext23:	
  7735 ;; *************** function _lcd_SendLowerData *****************
  7736 ;; Defined at:
  7737 ;;		line 519 in file "../../Sources/16F887/lcd.c"
  7738 ;; Parameters:    Size  Location     Type
  7739 ;;  dataFrame       1    wreg     unsigned char 
  7740 ;; Auto vars:     Size  Location     Type
  7741 ;;  dataFrame       1    7[COMMON] unsigned char 
  7742 ;; Return value:  Size  Location     Type
  7743 ;;                  1    wreg      void 
  7744 ;; Registers used:
  7745 ;;		wreg, fsr0l, fsr0h, status,2, status,0, btemp+1, pclath, cstack
  7746 ;; Tracked objects:
  7747 ;;		On entry : 0/0
  7748 ;;		On exit  : 0/0
  7749 ;;		Unchanged: 0/0
  7750 ;; Data sizes:     COMMON   BANK0   BANK1   BANK3   BANK2
  7751 ;;      Params:         0       0       0       0       0
  7752 ;;      Locals:         1       0       0       0       0
  7753 ;;      Temps:          0       0       0       0       0
  7754 ;;      Totals:         1       0       0       0       0
  7755 ;;Total ram usage:        1 bytes
  7756 ;; Hardware stack levels used: 1
  7757 ;; Hardware stack levels required when called: 2
  7758 ;; This function calls:
  7759 ;;		_write_Digital
  7760 ;; This function is called by:
  7761 ;;		_LCD_CMD_Write
  7762 ;;		_lcd_DataWrite
  7763 ;; This function uses a non-reentrant model
  7764 ;;
  7765                           
  7766     171F                     _lcd_SendLowerData:	
  7767                           ;psect for function _lcd_SendLowerData
  7768                           
  7769                           
  7770                           ;incstack = 0
  7771                           ; Regs used in _lcd_SendLowerData: [wreg-fsr0h+status,2+status,0+btemp+1+pclath+cstack]
  7772                           ;lcd_SendLowerData@dataFrame stored from wreg
  7773     171F  00F7               	movwf	lcd_SendLowerData@dataFrame
  7774     1720                     l5798:
  7775                           
  7776                           ;../../Sources/16F887/lcd.c: 520:     write_Digital(LCDConfig.D0,(((dataFrame)&((1<<(0))
      +                          ))!=0u));
  7777     1720  1877               	btfsc	lcd_SendLowerData@dataFrame,0
  7778     1721  2F23               	goto	u7251
  7779     1722  2F25               	goto	u7250
  7780     1723                     u7251:
  7781     1723  3001               	movlw	1
  7782     1724  2F26               	goto	u7260
  7783     1725                     u7250:
  7784     1725  3000               	movlw	0
  7785     1726                     u7260:
  7786     1726  00F2               	movwf	write_Digital@value
  7787     1727  1683               	bsf	3,5	;RP0=1, select bank1
  7788     1728  1303               	bcf	3,6	;RP1=0, select bank1
  7789     1729  0826               	movf	(_LCDConfig^(0+128)+6),w
  7790     172A  120A  158A  24C1  160A  118A  	fcall	_write_Digital
  7791                           
  7792                           ;../../Sources/16F887/lcd.c: 521:     write_Digital(LCDConfig.D1,(((dataFrame)&((1<<(1))
      +                          ))!=0u));
  7793     172F  18F7               	btfsc	lcd_SendLowerData@dataFrame,1
  7794     1730  2F32               	goto	u7271
  7795     1731  2F34               	goto	u7270
  7796     1732                     u7271:
  7797     1732  3001               	movlw	1
  7798     1733  2F35               	goto	u7280
  7799     1734                     u7270:
  7800     1734  3000               	movlw	0
  7801     1735                     u7280:
  7802     1735  00F2               	movwf	write_Digital@value
  7803     1736  1683               	bsf	3,5	;RP0=1, select bank1
  7804     1737  1303               	bcf	3,6	;RP1=0, select bank1
  7805     1738  0827               	movf	(_LCDConfig^(0+128)+7),w
  7806     1739  120A  158A  24C1  160A  118A  	fcall	_write_Digital
  7807                           
  7808                           ;../../Sources/16F887/lcd.c: 522:     write_Digital(LCDConfig.D2,(((dataFrame)&((1<<(2))
      +                          ))!=0u));
  7809     173E  1977               	btfsc	lcd_SendLowerData@dataFrame,2
  7810     173F  2F41               	goto	u7291
  7811     1740  2F43               	goto	u7290
  7812     1741                     u7291:
  7813     1741  3001               	movlw	1
  7814     1742  2F44               	goto	u7300
  7815     1743                     u7290:
  7816     1743  3000               	movlw	0
  7817     1744                     u7300:
  7818     1744  00F2               	movwf	write_Digital@value
  7819     1745  1683               	bsf	3,5	;RP0=1, select bank1
  7820     1746  1303               	bcf	3,6	;RP1=0, select bank1
  7821     1747  0828               	movf	(_LCDConfig^(0+128)+8),w
  7822     1748  120A  158A  24C1  160A  118A  	fcall	_write_Digital
  7823                           
  7824                           ;../../Sources/16F887/lcd.c: 523:     write_Digital(LCDConfig.D3,(((dataFrame)&((1<<(3))
      +                          ))!=0u));
  7825     174D  19F7               	btfsc	lcd_SendLowerData@dataFrame,3
  7826     174E  2F50               	goto	u7311
  7827     174F  2F52               	goto	u7310
  7828     1750                     u7311:
  7829     1750  3001               	movlw	1
  7830     1751  2F53               	goto	u7320
  7831     1752                     u7310:
  7832     1752  3000               	movlw	0
  7833     1753                     u7320:
  7834     1753  00F2               	movwf	write_Digital@value
  7835     1754  1683               	bsf	3,5	;RP0=1, select bank1
  7836     1755  1303               	bcf	3,6	;RP1=0, select bank1
  7837     1756  0829               	movf	(_LCDConfig^(0+128)+9),w
  7838     1757  120A  158A  24C1  160A  118A  	fcall	_write_Digital
  7839     175C                     l695:
  7840     175C  0008               	return
  7841     175D                     __end_of_lcd_SendLowerData:
  7842                           
  7843                           	psect	text24
  7844     16E1                     __ptext24:	
  7845 ;; *************** function _lcd_SendHigherData *****************
  7846 ;; Defined at:
  7847 ;;		line 508 in file "../../Sources/16F887/lcd.c"
  7848 ;; Parameters:    Size  Location     Type
  7849 ;;  dataFrame       1    wreg     unsigned char 
  7850 ;; Auto vars:     Size  Location     Type
  7851 ;;  dataFrame       1    7[COMMON] unsigned char 
  7852 ;; Return value:  Size  Location     Type
  7853 ;;                  1    wreg      void 
  7854 ;; Registers used:
  7855 ;;		wreg, fsr0l, fsr0h, status,2, status,0, btemp+1, pclath, cstack
  7856 ;; Tracked objects:
  7857 ;;		On entry : 0/0
  7858 ;;		On exit  : 0/0
  7859 ;;		Unchanged: 0/0
  7860 ;; Data sizes:     COMMON   BANK0   BANK1   BANK3   BANK2
  7861 ;;      Params:         0       0       0       0       0
  7862 ;;      Locals:         1       0       0       0       0
  7863 ;;      Temps:          0       0       0       0       0
  7864 ;;      Totals:         1       0       0       0       0
  7865 ;;Total ram usage:        1 bytes
  7866 ;; Hardware stack levels used: 1
  7867 ;; Hardware stack levels required when called: 2
  7868 ;; This function calls:
  7869 ;;		_write_Digital
  7870 ;; This function is called by:
  7871 ;;		_LCD_CMD_Write
  7872 ;;		_lcd_DataWrite
  7873 ;;		_lcd_Reset
  7874 ;; This function uses a non-reentrant model
  7875 ;;
  7876                           
  7877     16E1                     _lcd_SendHigherData:	
  7878                           ;psect for function _lcd_SendHigherData
  7879                           
  7880                           
  7881                           ;incstack = 0
  7882                           ; Regs used in _lcd_SendHigherData: [wreg-fsr0h+status,2+status,0+btemp+1+pclath+cstack]
  7883                           ;lcd_SendHigherData@dataFrame stored from wreg
  7884     16E1  00F7               	movwf	lcd_SendHigherData@dataFrame
  7885     16E2                     l5800:
  7886                           
  7887                           ;../../Sources/16F887/lcd.c: 509:     write_Digital(LCDConfig.D4,(((dataFrame)&((1<<(4))
      +                          ))!=0u));
  7888     16E2  1A77               	btfsc	lcd_SendHigherData@dataFrame,4
  7889     16E3  2EE5               	goto	u7331
  7890     16E4  2EE7               	goto	u7330
  7891     16E5                     u7331:
  7892     16E5  3001               	movlw	1
  7893     16E6  2EE8               	goto	u7340
  7894     16E7                     u7330:
  7895     16E7  3000               	movlw	0
  7896     16E8                     u7340:
  7897     16E8  00F2               	movwf	write_Digital@value
  7898     16E9  1683               	bsf	3,5	;RP0=1, select bank1
  7899     16EA  1303               	bcf	3,6	;RP1=0, select bank1
  7900     16EB  082A               	movf	(_LCDConfig^(0+128)+10),w
  7901     16EC  120A  158A  24C1  160A  118A  	fcall	_write_Digital
  7902                           
  7903                           ;../../Sources/16F887/lcd.c: 510:     write_Digital(LCDConfig.D5,(((dataFrame)&((1<<(5))
      +                          ))!=0u));
  7904     16F1  1AF7               	btfsc	lcd_SendHigherData@dataFrame,5
  7905     16F2  2EF4               	goto	u7351
  7906     16F3  2EF6               	goto	u7350
  7907     16F4                     u7351:
  7908     16F4  3001               	movlw	1
  7909     16F5  2EF7               	goto	u7360
  7910     16F6                     u7350:
  7911     16F6  3000               	movlw	0
  7912     16F7                     u7360:
  7913     16F7  00F2               	movwf	write_Digital@value
  7914     16F8  1683               	bsf	3,5	;RP0=1, select bank1
  7915     16F9  1303               	bcf	3,6	;RP1=0, select bank1
  7916     16FA  082B               	movf	(_LCDConfig^(0+128)+11),w
  7917     16FB  120A  158A  24C1  160A  118A  	fcall	_write_Digital
  7918                           
  7919                           ;../../Sources/16F887/lcd.c: 511:     write_Digital(LCDConfig.D6,(((dataFrame)&((1<<(6))
      +                          ))!=0u));
  7920     1700  1B77               	btfsc	lcd_SendHigherData@dataFrame,6
  7921     1701  2F03               	goto	u7371
  7922     1702  2F05               	goto	u7370
  7923     1703                     u7371:
  7924     1703  3001               	movlw	1
  7925     1704  2F06               	goto	u7380
  7926     1705                     u7370:
  7927     1705  3000               	movlw	0
  7928     1706                     u7380:
  7929     1706  00F2               	movwf	write_Digital@value
  7930     1707  1683               	bsf	3,5	;RP0=1, select bank1
  7931     1708  1303               	bcf	3,6	;RP1=0, select bank1
  7932     1709  082C               	movf	(_LCDConfig^(0+128)+12),w
  7933     170A  120A  158A  24C1  160A  118A  	fcall	_write_Digital
  7934                           
  7935                           ;../../Sources/16F887/lcd.c: 512:     write_Digital(LCDConfig.D7,(((dataFrame)&((1<<(7))
      +                          ))!=0u));
  7936     170F  1BF7               	btfsc	lcd_SendHigherData@dataFrame,7
  7937     1710  2F12               	goto	u7391
  7938     1711  2F14               	goto	u7390
  7939     1712                     u7391:
  7940     1712  3001               	movlw	1
  7941     1713  2F15               	goto	u7400
  7942     1714                     u7390:
  7943     1714  3000               	movlw	0
  7944     1715                     u7400:
  7945     1715  00F2               	movwf	write_Digital@value
  7946     1716  1683               	bsf	3,5	;RP0=1, select bank1
  7947     1717  1303               	bcf	3,6	;RP1=0, select bank1
  7948     1718  082D               	movf	(_LCDConfig^(0+128)+13),w
  7949     1719  120A  158A  24C1  160A  118A  	fcall	_write_Digital
  7950     171E                     l692:
  7951     171E  0008               	return
  7952     171F                     __end_of_lcd_SendHigherData:
  7953                           
  7954                           	psect	text25
  7955     1614                     __ptext25:	
  7956 ;; *************** function _lcd_SendCMDSignlas *****************
  7957 ;; Defined at:
  7958 ;;		line 484 in file "../../Sources/16F887/lcd.c"
  7959 ;; Parameters:    Size  Location     Type
  7960 ;;		None
  7961 ;; Auto vars:     Size  Location     Type
  7962 ;;		None
  7963 ;; Return value:  Size  Location     Type
  7964 ;;                  1    wreg      void 
  7965 ;; Registers used:
  7966 ;;		wreg, fsr0l, fsr0h, status,2, status,0, btemp+1, pclath, cstack
  7967 ;; Tracked objects:
  7968 ;;		On entry : 0/0
  7969 ;;		On exit  : 0/0
  7970 ;;		Unchanged: 0/0
  7971 ;; Data sizes:     COMMON   BANK0   BANK1   BANK3   BANK2
  7972 ;;      Params:         0       0       0       0       0
  7973 ;;      Locals:         0       0       0       0       0
  7974 ;;      Temps:          0       0       0       0       0
  7975 ;;      Totals:         0       0       0       0       0
  7976 ;;Total ram usage:        0 bytes
  7977 ;; Hardware stack levels used: 1
  7978 ;; Hardware stack levels required when called: 2
  7979 ;; This function calls:
  7980 ;;		_Delay_us
  7981 ;;		_write_Digital
  7982 ;; This function is called by:
  7983 ;;		_LCD_CMD_Write
  7984 ;;		_lcd_Reset
  7985 ;; This function uses a non-reentrant model
  7986 ;;
  7987                           
  7988     1614                     _lcd_SendCMDSignlas:	
  7989                           ;psect for function _lcd_SendCMDSignlas
  7990                           
  7991     1614                     l5802:	
  7992                           ;incstack = 0
  7993                           ; Regs used in _lcd_SendCMDSignlas: [wreg-fsr0h+status,2+status,0+btemp+1+pclath+cstack]
  7994                           
  7995                           
  7996                           ;../../Sources/16F887/lcd.c: 485:     write_Digital(LCDConfig.RS,0x00);
  7997     1614  01F2               	clrf	write_Digital@value
  7998     1615  1683               	bsf	3,5	;RP0=1, select bank1
  7999     1616  1303               	bcf	3,6	;RP1=0, select bank1
  8000     1617  0823               	movf	(_LCDConfig^(0+128)+3),w
  8001     1618  120A  158A  24C1  160A  118A  	fcall	_write_Digital
  8002                           
  8003                           ;../../Sources/16F887/lcd.c: 486:     write_Digital(LCDConfig.RW,0x00);
  8004     161D  01F2               	clrf	write_Digital@value
  8005     161E  1683               	bsf	3,5	;RP0=1, select bank1
  8006     161F  1303               	bcf	3,6	;RP1=0, select bank1
  8007     1620  0824               	movf	(_LCDConfig^(0+128)+4),w
  8008     1621  120A  158A  24C1  160A  118A  	fcall	_write_Digital
  8009                           
  8010                           ;../../Sources/16F887/lcd.c: 487:     write_Digital(LCDConfig.EN,0x01);
  8011     1626  01F2               	clrf	write_Digital@value
  8012     1627  0AF2               	incf	write_Digital@value,f
  8013     1628  1683               	bsf	3,5	;RP0=1, select bank1
  8014     1629  1303               	bcf	3,6	;RP1=0, select bank1
  8015     162A  0825               	movf	(_LCDConfig^(0+128)+5),w
  8016     162B  120A  158A  24C1  160A  118A  	fcall	_write_Digital
  8017     1630                     l5804:
  8018                           
  8019                           ;../../Sources/16F887/lcd.c: 488:     Delay_us(10);
  8020     1630  300A               	movlw	10
  8021     1631  00F2               	movwf	Delay_us@us_count
  8022     1632  3000               	movlw	0
  8023     1633  00F3               	movwf	Delay_us@us_count+1
  8024     1634  120A  118A  27F1  160A  118A  	fcall	_Delay_us
  8025     1639                     l5806:
  8026                           
  8027                           ;../../Sources/16F887/lcd.c: 489:     write_Digital(LCDConfig.EN,0x00);
  8028     1639  01F2               	clrf	write_Digital@value
  8029     163A  1683               	bsf	3,5	;RP0=1, select bank1
  8030     163B  1303               	bcf	3,6	;RP1=0, select bank1
  8031     163C  0825               	movf	(_LCDConfig^(0+128)+5),w
  8032     163D  120A  158A  24C1  160A  118A  	fcall	_write_Digital
  8033     1642                     l686:
  8034     1642  0008               	return
  8035     1643                     __end_of_lcd_SendCMDSignlas:
  8036                           
  8037                           	psect	text26
  8038     09C1                     __ptext26:	
  8039 ;; *************** function _lcd_BusyCheck *****************
  8040 ;; Defined at:
  8041 ;;		line 434 in file "../../Sources/16F887/lcd.c"
  8042 ;; Parameters:    Size  Location     Type
  8043 ;;		None
  8044 ;; Auto vars:     Size  Location     Type
  8045 ;;  busyFlag        1    7[COMMON] unsigned char 
  8046 ;; Return value:  Size  Location     Type
  8047 ;;                  1    wreg      void 
  8048 ;; Registers used:
  8049 ;;		wreg, fsr0l, fsr0h, status,2, status,0, btemp+1, pclath, cstack
  8050 ;; Tracked objects:
  8051 ;;		On entry : 0/0
  8052 ;;		On exit  : 0/0
  8053 ;;		Unchanged: 0/0
  8054 ;; Data sizes:     COMMON   BANK0   BANK1   BANK3   BANK2
  8055 ;;      Params:         0       0       0       0       0
  8056 ;;      Locals:         1       0       0       0       0
  8057 ;;      Temps:          0       0       0       0       0
  8058 ;;      Totals:         1       0       0       0       0
  8059 ;;Total ram usage:        1 bytes
  8060 ;; Hardware stack levels used: 1
  8061 ;; Hardware stack levels required when called: 3
  8062 ;; This function calls:
  8063 ;;		_Delay_ms
  8064 ;;		_Delay_us
  8065 ;;		_pin_Direction
  8066 ;;		_read_Digital
  8067 ;;		_write_Digital
  8068 ;; This function is called by:
  8069 ;;		_LCD_CMD_Write
  8070 ;;		_lcd_DataWrite
  8071 ;; This function uses a non-reentrant model
  8072 ;;
  8073                           
  8074     09C1                     _lcd_BusyCheck:	
  8075                           ;psect for function _lcd_BusyCheck
  8076                           
  8077     09C1                     l5774:	
  8078                           ;incstack = 0
  8079                           ; Regs used in _lcd_BusyCheck: [wreg-fsr0h+status,2+status,0+btemp+1+pclath+cstack]
  8080                           
  8081                           
  8082                           ;../../Sources/16F887/lcd.c: 435:     uint8_t busyFlag;;../../Sources/16F887/lcd.c: 436:
      +                               if(LCDConfig.RW != R_NULL){
  8083     09C1  1683               	bsf	3,5	;RP0=1, select bank1
  8084     09C2  1303               	bcf	3,6	;RP1=0, select bank1
  8085     09C3  0A24               	incf	(_LCDConfig^(0+128)+4),w
  8086     09C4  1903               	btfsc	3,2
  8087     09C5  29C7               	goto	u7221
  8088     09C6  29C8               	goto	u7220
  8089     09C7                     u7221:
  8090     09C7  2A4B               	goto	l5796
  8091     09C8                     u7220:
  8092     09C8                     l5776:
  8093                           
  8094                           ;../../Sources/16F887/lcd.c: 437:         pin_Direction(LCDConfig.D7,0x01);
  8095     09C8  01F2               	clrf	pin_Direction@var_derection
  8096     09C9  0AF2               	incf	pin_Direction@var_derection,f
  8097     09CA  082D               	movf	(_LCDConfig^(0+128)+13),w
  8098     09CB  120A  158A  23DA  120A  158A  	fcall	_pin_Direction
  8099                           
  8100                           ;../../Sources/16F887/lcd.c: 438:         write_Digital(LCDConfig.RS,0x00);
  8101     09D0  01F2               	clrf	write_Digital@value
  8102     09D1  1683               	bsf	3,5	;RP0=1, select bank1
  8103     09D2  1303               	bcf	3,6	;RP1=0, select bank1
  8104     09D3  0823               	movf	(_LCDConfig^(0+128)+3),w
  8105     09D4  120A  158A  24C1  120A  158A  	fcall	_write_Digital
  8106                           
  8107                           ;../../Sources/16F887/lcd.c: 439:         write_Digital(LCDConfig.RW,0x01);
  8108     09D9  01F2               	clrf	write_Digital@value
  8109     09DA  0AF2               	incf	write_Digital@value,f
  8110     09DB  1683               	bsf	3,5	;RP0=1, select bank1
  8111     09DC  1303               	bcf	3,6	;RP1=0, select bank1
  8112     09DD  0824               	movf	(_LCDConfig^(0+128)+4),w
  8113     09DE  120A  158A  24C1  120A  158A  	fcall	_write_Digital
  8114     09E3                     l676:	
  8115                           ;../../Sources/16F887/lcd.c: 441:         do{
  8116                           
  8117                           
  8118                           ;../../Sources/16F887/lcd.c: 442:             write_Digital(LCDConfig.EN, 0x00);
  8119     09E3  01F2               	clrf	write_Digital@value
  8120     09E4  1683               	bsf	3,5	;RP0=1, select bank1
  8121     09E5  1303               	bcf	3,6	;RP1=0, select bank1
  8122     09E6  0825               	movf	(_LCDConfig^(0+128)+5),w
  8123     09E7  120A  158A  24C1  120A  158A  	fcall	_write_Digital
  8124     09EC                     l5778:
  8125                           
  8126                           ;../../Sources/16F887/lcd.c: 443:             Delay_us(10);
  8127     09EC  300A               	movlw	10
  8128     09ED  00F2               	movwf	Delay_us@us_count
  8129     09EE  3000               	movlw	0
  8130     09EF  00F3               	movwf	Delay_us@us_count+1
  8131     09F0  120A  118A  27F1  120A  158A  	fcall	_Delay_us
  8132     09F5                     l5780:
  8133                           
  8134                           ;../../Sources/16F887/lcd.c: 444:             write_Digital(LCDConfig.EN,0x01);
  8135     09F5  01F2               	clrf	write_Digital@value
  8136     09F6  0AF2               	incf	write_Digital@value,f
  8137     09F7  1683               	bsf	3,5	;RP0=1, select bank1
  8138     09F8  1303               	bcf	3,6	;RP1=0, select bank1
  8139     09F9  0825               	movf	(_LCDConfig^(0+128)+5),w
  8140     09FA  120A  158A  24C1  120A  158A  	fcall	_write_Digital
  8141                           
  8142                           ;../../Sources/16F887/lcd.c: 445:             Delay_us(10);
  8143     09FF  300A               	movlw	10
  8144     0A00  00F2               	movwf	Delay_us@us_count
  8145     0A01  3000               	movlw	0
  8146     0A02  00F3               	movwf	Delay_us@us_count+1
  8147     0A03  120A  118A  27F1  120A  158A  	fcall	_Delay_us
  8148     0A08                     l5782:
  8149                           
  8150                           ;../../Sources/16F887/lcd.c: 446:             busyFlag = read_Digital(LCDConfig.D7);
  8151     0A08  1683               	bsf	3,5	;RP0=1, select bank1
  8152     0A09  1303               	bcf	3,6	;RP1=0, select bank1
  8153     0A0A  082D               	movf	(_LCDConfig^(0+128)+13),w
  8154     0A0B  120A  158A  212D  120A  158A  	fcall	_read_Digital
  8155     0A10  00F7               	movwf	lcd_BusyCheck@busyFlag
  8156     0A11                     l5784:
  8157                           
  8158                           ;../../Sources/16F887/lcd.c: 448:             if(LCDConfig.LcdMode == 4){
  8159     0A11  3004               	movlw	4
  8160     0A12  1683               	bsf	3,5	;RP0=1, select bank1
  8161     0A13  1303               	bcf	3,6	;RP1=0, select bank1
  8162     0A14  0622               	xorwf	(_LCDConfig^(0+128)+2),w
  8163     0A15  1D03               	btfss	3,2
  8164     0A16  2A18               	goto	u7231
  8165     0A17  2A19               	goto	u7230
  8166     0A18                     u7231:
  8167     0A18  2A3C               	goto	l5792
  8168     0A19                     u7230:
  8169     0A19                     l5786:
  8170                           
  8171                           ;../../Sources/16F887/lcd.c: 449:                 write_Digital(LCDConfig.EN,0x00);
  8172     0A19  01F2               	clrf	write_Digital@value
  8173     0A1A  0825               	movf	(_LCDConfig^(0+128)+5),w
  8174     0A1B  120A  158A  24C1  120A  158A  	fcall	_write_Digital
  8175     0A20                     l5788:
  8176                           
  8177                           ;../../Sources/16F887/lcd.c: 450:                 Delay_us(10);
  8178     0A20  300A               	movlw	10
  8179     0A21  00F2               	movwf	Delay_us@us_count
  8180     0A22  3000               	movlw	0
  8181     0A23  00F3               	movwf	Delay_us@us_count+1
  8182     0A24  120A  118A  27F1  120A  158A  	fcall	_Delay_us
  8183     0A29                     l5790:
  8184                           
  8185                           ;../../Sources/16F887/lcd.c: 451:                 write_Digital(LCDConfig.EN,0x01);
  8186     0A29  01F2               	clrf	write_Digital@value
  8187     0A2A  0AF2               	incf	write_Digital@value,f
  8188     0A2B  1683               	bsf	3,5	;RP0=1, select bank1
  8189     0A2C  1303               	bcf	3,6	;RP1=0, select bank1
  8190     0A2D  0825               	movf	(_LCDConfig^(0+128)+5),w
  8191     0A2E  120A  158A  24C1  120A  158A  	fcall	_write_Digital
  8192                           
  8193                           ;../../Sources/16F887/lcd.c: 452:                 Delay_us(10);
  8194     0A33  300A               	movlw	10
  8195     0A34  00F2               	movwf	Delay_us@us_count
  8196     0A35  3000               	movlw	0
  8197     0A36  00F3               	movwf	Delay_us@us_count+1
  8198     0A37  120A  118A  27F1  120A  158A  	fcall	_Delay_us
  8199     0A3C                     l5792:
  8200                           
  8201                           ;../../Sources/16F887/lcd.c: 454:         }while(busyFlag != 0);
  8202     0A3C  0877               	movf	lcd_BusyCheck@busyFlag,w
  8203     0A3D  1D03               	btfss	3,2
  8204     0A3E  2A40               	goto	u7241
  8205     0A3F  2A41               	goto	u7240
  8206     0A40                     u7241:
  8207     0A40  29E3               	goto	l676
  8208     0A41                     u7240:
  8209     0A41                     l5794:
  8210                           
  8211                           ;../../Sources/16F887/lcd.c: 455:         pin_Direction(LCDConfig.D7,0x00);
  8212     0A41  01F2               	clrf	pin_Direction@var_derection
  8213     0A42  1683               	bsf	3,5	;RP0=1, select bank1
  8214     0A43  1303               	bcf	3,6	;RP1=0, select bank1
  8215     0A44  082D               	movf	(_LCDConfig^(0+128)+13),w
  8216     0A45  120A  158A  23DA  120A  158A  	fcall	_pin_Direction
  8217                           
  8218                           ;../../Sources/16F887/lcd.c: 456:     }else{
  8219     0A4A  2A54               	goto	l680
  8220     0A4B                     l5796:
  8221                           
  8222                           ;../../Sources/16F887/lcd.c: 457:         Delay_ms(1);
  8223     0A4B  3001               	movlw	1
  8224     0A4C  00F4               	movwf	Delay_ms@ms_count
  8225     0A4D  3000               	movlw	0
  8226     0A4E  00F5               	movwf	Delay_ms@ms_count+1
  8227     0A4F  160A  118A  251B  120A  158A  	fcall	_Delay_ms
  8228     0A54                     l680:
  8229     0A54  0008               	return
  8230     0A55                     __end_of_lcd_BusyCheck:
  8231                           
  8232                           	psect	text27
  8233     0CC1                     __ptext27:	
  8234 ;; *************** function _write_Digital *****************
  8235 ;; Defined at:
  8236 ;;		line 168 in file "../../Sources/16F887/io.c"
  8237 ;; Parameters:    Size  Location     Type
  8238 ;;  var_pin         1    wreg     enum E1456
  8239 ;;  value           1    2[COMMON] unsigned char 
  8240 ;; Auto vars:     Size  Location     Type
  8241 ;;  var_pin         1    6[COMMON] enum E1456
  8242 ;;  var_PortNumb    1    5[COMMON] unsigned char 
  8243 ;; Return value:  Size  Location     Type
  8244 ;;                  1    wreg      void 
  8245 ;; Registers used:
  8246 ;;		wreg, fsr0l, fsr0h, status,2, status,0, btemp+1
  8247 ;; Tracked objects:
  8248 ;;		On entry : 0/0
  8249 ;;		On exit  : 0/0
  8250 ;;		Unchanged: 0/0
  8251 ;; Data sizes:     COMMON   BANK0   BANK1   BANK3   BANK2
  8252 ;;      Params:         1       0       0       0       0
  8253 ;;      Locals:         2       0       0       0       0
  8254 ;;      Temps:          2       0       0       0       0
  8255 ;;      Totals:         5       0       0       0       0
  8256 ;;Total ram usage:        5 bytes
  8257 ;; Hardware stack levels used: 1
  8258 ;; Hardware stack levels required when called: 1
  8259 ;; This function calls:
  8260 ;;		Nothing
  8261 ;; This function is called by:
  8262 ;;		_lcd_BusyCheck
  8263 ;;		_lcd_SendCMDSignlas
  8264 ;;		_lcd_SendDataSignlas
  8265 ;;		_lcd_SendHigherData
  8266 ;;		_lcd_SendLowerData
  8267 ;;		_write_byte
  8268 ;; This function uses a non-reentrant model
  8269 ;;
  8270                           
  8271     0CC1                     _write_Digital:	
  8272                           ;psect for function _write_Digital
  8273                           
  8274                           
  8275                           ;incstack = 0
  8276                           ; Regs used in _write_Digital: [wreg-fsr0h+status,2+status,0+btemp+1]
  8277                           ;write_Digital@var_pin stored from wreg
  8278     0CC1  00F6               	movwf	write_Digital@var_pin
  8279     0CC2                     l5704:
  8280                           
  8281                           ;../../Sources/16F887/io.c: 169: ;../../Sources/16F887/io.c: 170:     switch(var_PortNum
      +                          ){
  8282     0CC2  0876               	movf	write_Digital@var_pin,w
  8283     0CC3  00F3               	movwf	??_write_Digital
  8284     0CC4  3003               	movlw	3
  8285     0CC5                     u6905:
  8286     0CC5  1003               	clrc
  8287     0CC6  0CF3               	rrf	??_write_Digital,f
  8288     0CC7  3EFF               	addlw	-1
  8289     0CC8  1D03               	skipz
  8290     0CC9  2CC5               	goto	u6905
  8291     0CCA  0873               	movf	??_write_Digital,w
  8292     0CCB  00F5               	movwf	write_Digital@var_PortNumber
  8293     0CCC                     l5706:
  8294                           
  8295                           ;../../Sources/16F887/io.c: 171:         case 0:
  8296     0CCC  0876               	movf	write_Digital@var_pin,w
  8297     0CCD  3907               	andlw	7
  8298     0CCE  00F6               	movwf	write_Digital@var_pin
  8299                           
  8300                           ;../../Sources/16F887/io.c: 173:             break;
  8301     0CCF  2D8E               	goto	l5740
  8302     0CD0                     l5708:
  8303                           
  8304                           ;../../Sources/16F887/io.c: 175:             returnStatus = (((PORTB)&((1<<(var_pin))))!
      +                          =0u);
  8305     0CD0  0872               	movf	write_Digital@value,w
  8306     0CD1  1903               	btfsc	3,2
  8307     0CD2  2CD4               	goto	u6911
  8308     0CD3  2CD5               	goto	u6910
  8309     0CD4                     u6911:
  8310     0CD4  2CE5               	goto	l5712
  8311     0CD5                     u6910:
  8312     0CD5                     l5710:
  8313     0CD5  3001               	movlw	1
  8314     0CD6  00F3               	movwf	??_write_Digital
  8315     0CD7  0A76               	incf	write_Digital@var_pin,w
  8316     0CD8  2CDB               	goto	u6924
  8317     0CD9                     u6925:
  8318     0CD9  1003               	clrc
  8319     0CDA  0DF3               	rlf	??_write_Digital,f
  8320     0CDB                     u6924:
  8321     0CDB  3EFF               	addlw	-1
  8322     0CDC  1D03               	skipz
  8323     0CDD  2CD9               	goto	u6925
  8324     0CDE  0873               	movf	??_write_Digital,w
  8325     0CDF  00FF               	movwf	btemp+1
  8326     0CE0  087F               	movf	btemp+1,w
  8327     0CE1  1283               	bcf	3,5	;RP0=0, select bank0
  8328     0CE2  1303               	bcf	3,6	;RP1=0, select bank0
  8329     0CE3  0485               	iorwf	5,f	;volatile
  8330     0CE4  2DA7               	goto	l464
  8331     0CE5                     l5712:
  8332     0CE5  3001               	movlw	1
  8333     0CE6  00F3               	movwf	??_write_Digital
  8334     0CE7  0A76               	incf	write_Digital@var_pin,w
  8335     0CE8  2CEB               	goto	u6934
  8336     0CE9                     u6935:
  8337     0CE9  1003               	clrc
  8338     0CEA  0DF3               	rlf	??_write_Digital,f
  8339     0CEB                     u6934:
  8340     0CEB  3EFF               	addlw	-1
  8341     0CEC  1D03               	skipz
  8342     0CED  2CE9               	goto	u6935
  8343     0CEE  0873               	movf	??_write_Digital,w
  8344     0CEF  3AFF               	xorlw	255
  8345     0CF0  00FF               	movwf	btemp+1
  8346     0CF1  087F               	movf	btemp+1,w
  8347     0CF2  1283               	bcf	3,5	;RP0=0, select bank0
  8348     0CF3  1303               	bcf	3,6	;RP1=0, select bank0
  8349     0CF4  0585               	andwf	5,f	;volatile
  8350     0CF5  2DA7               	goto	l464
  8351     0CF6                     l5714:
  8352                           
  8353                           ;../../Sources/16F887/io.c: 178:             returnStatus = (((PORTC)&((1<<(var_pin))))!
      +                          =0u);
  8354     0CF6  0872               	movf	write_Digital@value,w
  8355     0CF7  1903               	btfsc	3,2
  8356     0CF8  2CFA               	goto	u6941
  8357     0CF9  2CFB               	goto	u6940
  8358     0CFA                     u6941:
  8359     0CFA  2D0B               	goto	l5718
  8360     0CFB                     u6940:
  8361     0CFB                     l5716:
  8362     0CFB  3001               	movlw	1
  8363     0CFC  00F3               	movwf	??_write_Digital
  8364     0CFD  0A76               	incf	write_Digital@var_pin,w
  8365     0CFE  2D01               	goto	u6954
  8366     0CFF                     u6955:
  8367     0CFF  1003               	clrc
  8368     0D00  0DF3               	rlf	??_write_Digital,f
  8369     0D01                     u6954:
  8370     0D01  3EFF               	addlw	-1
  8371     0D02  1D03               	skipz
  8372     0D03  2CFF               	goto	u6955
  8373     0D04  0873               	movf	??_write_Digital,w
  8374     0D05  00FF               	movwf	btemp+1
  8375     0D06  087F               	movf	btemp+1,w
  8376     0D07  1283               	bcf	3,5	;RP0=0, select bank0
  8377     0D08  1303               	bcf	3,6	;RP1=0, select bank0
  8378     0D09  0486               	iorwf	6,f	;volatile
  8379     0D0A  2DA7               	goto	l464
  8380     0D0B                     l5718:
  8381     0D0B  3001               	movlw	1
  8382     0D0C  00F3               	movwf	??_write_Digital
  8383     0D0D  0A76               	incf	write_Digital@var_pin,w
  8384     0D0E  2D11               	goto	u6964
  8385     0D0F                     u6965:
  8386     0D0F  1003               	clrc
  8387     0D10  0DF3               	rlf	??_write_Digital,f
  8388     0D11                     u6964:
  8389     0D11  3EFF               	addlw	-1
  8390     0D12  1D03               	skipz
  8391     0D13  2D0F               	goto	u6965
  8392     0D14  0873               	movf	??_write_Digital,w
  8393     0D15  3AFF               	xorlw	255
  8394     0D16  00FF               	movwf	btemp+1
  8395     0D17  087F               	movf	btemp+1,w
  8396     0D18  1283               	bcf	3,5	;RP0=0, select bank0
  8397     0D19  1303               	bcf	3,6	;RP1=0, select bank0
  8398     0D1A  0586               	andwf	6,f	;volatile
  8399     0D1B  2DA7               	goto	l464
  8400     0D1C                     l5720:
  8401                           
  8402                           ;../../Sources/16F887/io.c: 181:             returnStatus = (((PORTD)&((1<<(var_pin))))!
      +                          =0u);
  8403     0D1C  0872               	movf	write_Digital@value,w
  8404     0D1D  1903               	btfsc	3,2
  8405     0D1E  2D20               	goto	u6971
  8406     0D1F  2D21               	goto	u6970
  8407     0D20                     u6971:
  8408     0D20  2D31               	goto	l5724
  8409     0D21                     u6970:
  8410     0D21                     l5722:
  8411     0D21  3001               	movlw	1
  8412     0D22  00F3               	movwf	??_write_Digital
  8413     0D23  0A76               	incf	write_Digital@var_pin,w
  8414     0D24  2D27               	goto	u6984
  8415     0D25                     u6985:
  8416     0D25  1003               	clrc
  8417     0D26  0DF3               	rlf	??_write_Digital,f
  8418     0D27                     u6984:
  8419     0D27  3EFF               	addlw	-1
  8420     0D28  1D03               	skipz
  8421     0D29  2D25               	goto	u6985
  8422     0D2A  0873               	movf	??_write_Digital,w
  8423     0D2B  00FF               	movwf	btemp+1
  8424     0D2C  087F               	movf	btemp+1,w
  8425     0D2D  1283               	bcf	3,5	;RP0=0, select bank0
  8426     0D2E  1303               	bcf	3,6	;RP1=0, select bank0
  8427     0D2F  0487               	iorwf	7,f	;volatile
  8428     0D30  2DA7               	goto	l464
  8429     0D31                     l5724:
  8430     0D31  3001               	movlw	1
  8431     0D32  00F3               	movwf	??_write_Digital
  8432     0D33  0A76               	incf	write_Digital@var_pin,w
  8433     0D34  2D37               	goto	u6994
  8434     0D35                     u6995:
  8435     0D35  1003               	clrc
  8436     0D36  0DF3               	rlf	??_write_Digital,f
  8437     0D37                     u6994:
  8438     0D37  3EFF               	addlw	-1
  8439     0D38  1D03               	skipz
  8440     0D39  2D35               	goto	u6995
  8441     0D3A  0873               	movf	??_write_Digital,w
  8442     0D3B  3AFF               	xorlw	255
  8443     0D3C  00FF               	movwf	btemp+1
  8444     0D3D  087F               	movf	btemp+1,w
  8445     0D3E  1283               	bcf	3,5	;RP0=0, select bank0
  8446     0D3F  1303               	bcf	3,6	;RP1=0, select bank0
  8447     0D40  0587               	andwf	7,f	;volatile
  8448     0D41  2DA7               	goto	l464
  8449     0D42                     l5726:
  8450                           
  8451                           ;../../Sources/16F887/io.c: 184:             returnStatus = (((PORTE)&((1<<(var_pin))))!
      +                          =0u);
  8452     0D42  0872               	movf	write_Digital@value,w
  8453     0D43  1903               	btfsc	3,2
  8454     0D44  2D46               	goto	u7001
  8455     0D45  2D47               	goto	u7000
  8456     0D46                     u7001:
  8457     0D46  2D57               	goto	l5730
  8458     0D47                     u7000:
  8459     0D47                     l5728:
  8460     0D47  3001               	movlw	1
  8461     0D48  00F3               	movwf	??_write_Digital
  8462     0D49  0A76               	incf	write_Digital@var_pin,w
  8463     0D4A  2D4D               	goto	u7014
  8464     0D4B                     u7015:
  8465     0D4B  1003               	clrc
  8466     0D4C  0DF3               	rlf	??_write_Digital,f
  8467     0D4D                     u7014:
  8468     0D4D  3EFF               	addlw	-1
  8469     0D4E  1D03               	skipz
  8470     0D4F  2D4B               	goto	u7015
  8471     0D50  0873               	movf	??_write_Digital,w
  8472     0D51  00FF               	movwf	btemp+1
  8473     0D52  087F               	movf	btemp+1,w
  8474     0D53  1283               	bcf	3,5	;RP0=0, select bank0
  8475     0D54  1303               	bcf	3,6	;RP1=0, select bank0
  8476     0D55  0488               	iorwf	8,f	;volatile
  8477     0D56  2DA7               	goto	l464
  8478     0D57                     l5730:
  8479     0D57  3001               	movlw	1
  8480     0D58  00F3               	movwf	??_write_Digital
  8481     0D59  0A76               	incf	write_Digital@var_pin,w
  8482     0D5A  2D5D               	goto	u7024
  8483     0D5B                     u7025:
  8484     0D5B  1003               	clrc
  8485     0D5C  0DF3               	rlf	??_write_Digital,f
  8486     0D5D                     u7024:
  8487     0D5D  3EFF               	addlw	-1
  8488     0D5E  1D03               	skipz
  8489     0D5F  2D5B               	goto	u7025
  8490     0D60  0873               	movf	??_write_Digital,w
  8491     0D61  3AFF               	xorlw	255
  8492     0D62  00FF               	movwf	btemp+1
  8493     0D63  087F               	movf	btemp+1,w
  8494     0D64  1283               	bcf	3,5	;RP0=0, select bank0
  8495     0D65  1303               	bcf	3,6	;RP1=0, select bank0
  8496     0D66  0588               	andwf	8,f	;volatile
  8497     0D67  2DA7               	goto	l464
  8498     0D68                     l5732:
  8499                           
  8500                           ;../../Sources/16F887/io.c: 187:     return returnStatus;
  8501     0D68  0872               	movf	write_Digital@value,w
  8502     0D69  1903               	btfsc	3,2
  8503     0D6A  2D6C               	goto	u7031
  8504     0D6B  2D6D               	goto	u7030
  8505     0D6C                     u7031:
  8506     0D6C  2D7D               	goto	l5736
  8507     0D6D                     u7030:
  8508     0D6D                     l5734:
  8509     0D6D  3001               	movlw	1
  8510     0D6E  00F3               	movwf	??_write_Digital
  8511     0D6F  0A76               	incf	write_Digital@var_pin,w
  8512     0D70  2D73               	goto	u7044
  8513     0D71                     u7045:
  8514     0D71  1003               	clrc
  8515     0D72  0DF3               	rlf	??_write_Digital,f
  8516     0D73                     u7044:
  8517     0D73  3EFF               	addlw	-1
  8518     0D74  1D03               	skipz
  8519     0D75  2D71               	goto	u7045
  8520     0D76  0873               	movf	??_write_Digital,w
  8521     0D77  00FF               	movwf	btemp+1
  8522     0D78  087F               	movf	btemp+1,w
  8523     0D79  1283               	bcf	3,5	;RP0=0, select bank0
  8524     0D7A  1303               	bcf	3,6	;RP1=0, select bank0
  8525     0D7B  0489               	iorwf	9,f	;volatile
  8526     0D7C  2DA7               	goto	l464
  8527     0D7D                     l5736:
  8528     0D7D  3001               	movlw	1
  8529     0D7E  00F3               	movwf	??_write_Digital
  8530     0D7F  0A76               	incf	write_Digital@var_pin,w
  8531     0D80  2D83               	goto	u7054
  8532     0D81                     u7055:
  8533     0D81  1003               	clrc
  8534     0D82  0DF3               	rlf	??_write_Digital,f
  8535     0D83                     u7054:
  8536     0D83  3EFF               	addlw	-1
  8537     0D84  1D03               	skipz
  8538     0D85  2D81               	goto	u7055
  8539     0D86  0873               	movf	??_write_Digital,w
  8540     0D87  3AFF               	xorlw	255
  8541     0D88  00FF               	movwf	btemp+1
  8542     0D89  087F               	movf	btemp+1,w
  8543     0D8A  1283               	bcf	3,5	;RP0=0, select bank0
  8544     0D8B  1303               	bcf	3,6	;RP1=0, select bank0
  8545     0D8C  0589               	andwf	9,f	;volatile
  8546     0D8D  2DA7               	goto	l464
  8547     0D8E                     l5740:
  8548     0D8E  0875               	movf	write_Digital@var_PortNumber,w
  8549     0D8F  00F3               	movwf	??_write_Digital
  8550     0D90  01F4               	clrf	??_write_Digital+1
  8551                           
  8552                           ; Switch on 2 bytes has been partitioned into a top level switch of size 1, and 1 sub-sw
      +                          itches
  8553                           ; Switch size 1, requested type "simple"
  8554                           ; Number of cases is 1, Range of values is 0 to 0
  8555                           ; switch strategies available:
  8556                           ; Name         Instructions Cycles
  8557                           ; simple_byte            4     3 (average)
  8558                           ; direct_byte           11     8 (fixed)
  8559                           ; jumptable            260     6 (fixed)
  8560                           ;	Chosen strategy is simple_byte
  8561     0D91  0874               	movf	??_write_Digital+1,w
  8562     0D92  3A00               	xorlw	0	; case 0
  8563     0D93  1903               	skipnz
  8564     0D94  2D96               	goto	l6968
  8565     0D95  2DA7               	goto	l464
  8566     0D96                     l6968:
  8567                           
  8568                           ; Switch size 1, requested type "simple"
  8569                           ; Number of cases is 5, Range of values is 0 to 4
  8570                           ; switch strategies available:
  8571                           ; Name         Instructions Cycles
  8572                           ; simple_byte           16     9 (average)
  8573                           ; direct_byte           23     8 (fixed)
  8574                           ; jumptable            260     6 (fixed)
  8575                           ;	Chosen strategy is simple_byte
  8576     0D96  0873               	movf	??_write_Digital,w
  8577     0D97  3A00               	xorlw	0	; case 0
  8578     0D98  1903               	skipnz
  8579     0D99  2CD0               	goto	l5708
  8580     0D9A  3A01               	xorlw	1	; case 1
  8581     0D9B  1903               	skipnz
  8582     0D9C  2CF6               	goto	l5714
  8583     0D9D  3A03               	xorlw	3	; case 2
  8584     0D9E  1903               	skipnz
  8585     0D9F  2D1C               	goto	l5720
  8586     0DA0  3A01               	xorlw	1	; case 3
  8587     0DA1  1903               	skipnz
  8588     0DA2  2D42               	goto	l5726
  8589     0DA3  3A07               	xorlw	7	; case 4
  8590     0DA4  1903               	skipnz
  8591     0DA5  2D68               	goto	l5732
  8592     0DA6  2DA7               	goto	l464
  8593     0DA7                     l464:
  8594     0DA7  0008               	return
  8595     0DA8                     __end_of_write_Digital:
  8596                           
  8597                           	psect	text28
  8598     092D                     __ptext28:	
  8599 ;; *************** function _read_Digital *****************
  8600 ;; Defined at:
  8601 ;;		line 195 in file "../../Sources/16F887/io.c"
  8602 ;; Parameters:    Size  Location     Type
  8603 ;;  var_pin         1    wreg     enum E1456
  8604 ;; Auto vars:     Size  Location     Type
  8605 ;;  var_pin         1    6[COMMON] enum E1456
  8606 ;;  returnStatus    1    5[COMMON] unsigned char 
  8607 ;;  var_PortNum     1    4[COMMON] unsigned char 
  8608 ;; Return value:  Size  Location     Type
  8609 ;;                  1    wreg      unsigned char 
  8610 ;; Registers used:
  8611 ;;		wreg, fsr0l, fsr0h, status,2, status,0
  8612 ;; Tracked objects:
  8613 ;;		On entry : 0/0
  8614 ;;		On exit  : 0/0
  8615 ;;		Unchanged: 0/0
  8616 ;; Data sizes:     COMMON   BANK0   BANK1   BANK3   BANK2
  8617 ;;      Params:         0       0       0       0       0
  8618 ;;      Locals:         3       0       0       0       0
  8619 ;;      Temps:          2       0       0       0       0
  8620 ;;      Totals:         5       0       0       0       0
  8621 ;;Total ram usage:        5 bytes
  8622 ;; Hardware stack levels used: 1
  8623 ;; Hardware stack levels required when called: 1
  8624 ;; This function calls:
  8625 ;;		Nothing
  8626 ;; This function is called by:
  8627 ;;		_lcd_BusyCheck
  8628 ;;		_read_bit
  8629 ;; This function uses a non-reentrant model
  8630 ;;
  8631                           
  8632     092D                     _read_Digital:	
  8633                           ;psect for function _read_Digital
  8634                           
  8635                           
  8636                           ;incstack = 0
  8637                           ; Regs used in _read_Digital: [wreg-fsr0h+status,2+status,0]
  8638                           ;read_Digital@var_pin stored from wreg
  8639     092D  00F6               	movwf	read_Digital@var_pin
  8640     092E                     l5746:
  8641                           
  8642                           ;../../Sources/16F887/io.c: 196:     return _bit;;../../Sources/16F887/io.c: 197: }
  8643     092E  01F5               	clrf	read_Digital@returnStatus
  8644     092F                     l5748:
  8645                           
  8646                           ;../../Sources/16F887/io.c: 199: 
  8647     092F  0876               	movf	read_Digital@var_pin,w
  8648     0930  00F2               	movwf	??_read_Digital
  8649     0931  3003               	movlw	3
  8650     0932                     u7065:
  8651     0932  1003               	clrc
  8652     0933  0CF2               	rrf	??_read_Digital,f
  8653     0934  3EFF               	addlw	-1
  8654     0935  1D03               	skipz
  8655     0936  2932               	goto	u7065
  8656     0937  0872               	movf	??_read_Digital,w
  8657     0938  00F4               	movwf	read_Digital@var_PortNum
  8658     0939                     l5750:
  8659                           
  8660                           ;../../Sources/16F887/io.c: 200: 
  8661     0939  0876               	movf	read_Digital@var_pin,w
  8662     093A  3907               	andlw	7
  8663     093B  00F6               	movwf	read_Digital@var_pin
  8664                           
  8665                           ;../../Sources/16F887/io.c: 202: char read_byte(IO_PORT var_pin){
  8666     093C  29A6               	goto	l5764
  8667     093D                     l5752:
  8668                           
  8669                           ;../../Sources/16F887/io.c: 204:     for(int x=0;x<8;x++){
  8670     093D  3001               	movlw	1
  8671     093E  00F2               	movwf	??_read_Digital
  8672     093F  0A76               	incf	read_Digital@var_pin,w
  8673     0940  2943               	goto	u7074
  8674     0941                     u7075:
  8675     0941  1003               	clrc
  8676     0942  0DF2               	rlf	??_read_Digital,f
  8677     0943                     u7074:
  8678     0943  3EFF               	addlw	-1
  8679     0944  1D03               	skipz
  8680     0945  2941               	goto	u7075
  8681     0946  0872               	movf	??_read_Digital,w
  8682     0947  1283               	bcf	3,5	;RP0=0, select bank0
  8683     0948  1303               	bcf	3,6	;RP1=0, select bank0
  8684     0949  0505               	andwf	5,w	;volatile
  8685     094A  1D03               	btfss	3,2
  8686     094B  294D               	goto	u7081
  8687     094C  294F               	goto	u7080
  8688     094D                     u7081:
  8689     094D  3001               	movlw	1
  8690     094E  2950               	goto	u7090
  8691     094F                     u7080:
  8692     094F  3000               	movlw	0
  8693     0950                     u7090:
  8694     0950  00F5               	movwf	read_Digital@returnStatus
  8695                           
  8696                           ;../../Sources/16F887/io.c: 205:         _byte = _byte | (read_bit(var_pin)<<x);
  8697     0951  29BF               	goto	l5766
  8698     0952                     l5754:
  8699                           
  8700                           ;../../Sources/16F887/io.c: 207:     return _byte;
  8701     0952  3001               	movlw	1
  8702     0953  00F2               	movwf	??_read_Digital
  8703     0954  0A76               	incf	read_Digital@var_pin,w
  8704     0955  2958               	goto	u7104
  8705     0956                     u7105:
  8706     0956  1003               	clrc
  8707     0957  0DF2               	rlf	??_read_Digital,f
  8708     0958                     u7104:
  8709     0958  3EFF               	addlw	-1
  8710     0959  1D03               	skipz
  8711     095A  2956               	goto	u7105
  8712     095B  0872               	movf	??_read_Digital,w
  8713     095C  1283               	bcf	3,5	;RP0=0, select bank0
  8714     095D  1303               	bcf	3,6	;RP1=0, select bank0
  8715     095E  0506               	andwf	6,w	;volatile
  8716     095F  1D03               	btfss	3,2
  8717     0960  2962               	goto	u7111
  8718     0961  2964               	goto	u7110
  8719     0962                     u7111:
  8720     0962  3001               	movlw	1
  8721     0963  2965               	goto	u7120
  8722     0964                     u7110:
  8723     0964  3000               	movlw	0
  8724     0965                     u7120:
  8725     0965  00F5               	movwf	read_Digital@returnStatus
  8726                           
  8727                           ;../../Sources/16F887/io.c: 208: }
  8728     0966  29BF               	goto	l5766
  8729     0967                     l5756:
  8730                           
  8731                           ;../../Sources/16F887/io.c: 210: 
  8732     0967  3001               	movlw	1
  8733     0968  00F2               	movwf	??_read_Digital
  8734     0969  0A76               	incf	read_Digital@var_pin,w
  8735     096A  296D               	goto	u7134
  8736     096B                     u7135:
  8737     096B  1003               	clrc
  8738     096C  0DF2               	rlf	??_read_Digital,f
  8739     096D                     u7134:
  8740     096D  3EFF               	addlw	-1
  8741     096E  1D03               	skipz
  8742     096F  296B               	goto	u7135
  8743     0970  0872               	movf	??_read_Digital,w
  8744     0971  1283               	bcf	3,5	;RP0=0, select bank0
  8745     0972  1303               	bcf	3,6	;RP1=0, select bank0
  8746     0973  0507               	andwf	7,w	;volatile
  8747     0974  1D03               	btfss	3,2
  8748     0975  2977               	goto	u7141
  8749     0976  2979               	goto	u7140
  8750     0977                     u7141:
  8751     0977  3001               	movlw	1
  8752     0978  297A               	goto	u7150
  8753     0979                     u7140:
  8754     0979  3000               	movlw	0
  8755     097A                     u7150:
  8756     097A  00F5               	movwf	read_Digital@returnStatus
  8757                           
  8758                           ;../../Sources/16F887/io.c: 211: 
  8759     097B  29BF               	goto	l5766
  8760     097C                     l5758:
  8761                           
  8762                           ;../../Sources/16F887/io.c: 213: void write_byte(IO_PORT var_pin, uint8_t var_byte){
  8763     097C  3001               	movlw	1
  8764     097D  00F2               	movwf	??_read_Digital
  8765     097E  0A76               	incf	read_Digital@var_pin,w
  8766     097F  2982               	goto	u7164
  8767     0980                     u7165:
  8768     0980  1003               	clrc
  8769     0981  0DF2               	rlf	??_read_Digital,f
  8770     0982                     u7164:
  8771     0982  3EFF               	addlw	-1
  8772     0983  1D03               	skipz
  8773     0984  2980               	goto	u7165
  8774     0985  0872               	movf	??_read_Digital,w
  8775     0986  1283               	bcf	3,5	;RP0=0, select bank0
  8776     0987  1303               	bcf	3,6	;RP1=0, select bank0
  8777     0988  0508               	andwf	8,w	;volatile
  8778     0989  1D03               	btfss	3,2
  8779     098A  298C               	goto	u7171
  8780     098B  298E               	goto	u7170
  8781     098C                     u7171:
  8782     098C  3001               	movlw	1
  8783     098D  298F               	goto	u7180
  8784     098E                     u7170:
  8785     098E  3000               	movlw	0
  8786     098F                     u7180:
  8787     098F  00F5               	movwf	read_Digital@returnStatus
  8788                           
  8789                           ;../../Sources/16F887/io.c: 214:     for(int x=0;x<8;x++){
  8790     0990  29BF               	goto	l5766
  8791     0991                     l5760:
  8792                           
  8793                           ;../../Sources/16F887/io.c: 216:             write_Digital(var_pin,0x01);
  8794     0991  3001               	movlw	1
  8795     0992  00F2               	movwf	??_read_Digital
  8796     0993  0A76               	incf	read_Digital@var_pin,w
  8797     0994  2997               	goto	u7194
  8798     0995                     u7195:
  8799     0995  1003               	clrc
  8800     0996  0DF2               	rlf	??_read_Digital,f
  8801     0997                     u7194:
  8802     0997  3EFF               	addlw	-1
  8803     0998  1D03               	skipz
  8804     0999  2995               	goto	u7195
  8805     099A  0872               	movf	??_read_Digital,w
  8806     099B  1283               	bcf	3,5	;RP0=0, select bank0
  8807     099C  1303               	bcf	3,6	;RP1=0, select bank0
  8808     099D  0509               	andwf	9,w	;volatile
  8809     099E  1D03               	btfss	3,2
  8810     099F  29A1               	goto	u7201
  8811     09A0  29A3               	goto	u7200
  8812     09A1                     u7201:
  8813     09A1  3001               	movlw	1
  8814     09A2  29A4               	goto	u7210
  8815     09A3                     u7200:
  8816     09A3  3000               	movlw	0
  8817     09A4                     u7210:
  8818     09A4  00F5               	movwf	read_Digital@returnStatus
  8819                           
  8820                           ;../../Sources/16F887/io.c: 217:         }
  8821     09A5  29BF               	goto	l5766
  8822     09A6                     l5764:
  8823     09A6  0874               	movf	read_Digital@var_PortNum,w
  8824     09A7  00F2               	movwf	??_read_Digital
  8825     09A8  01F3               	clrf	??_read_Digital+1
  8826                           
  8827                           ; Switch on 2 bytes has been partitioned into a top level switch of size 1, and 1 sub-sw
      +                          itches
  8828                           ; Switch size 1, requested type "simple"
  8829                           ; Number of cases is 1, Range of values is 0 to 0
  8830                           ; switch strategies available:
  8831                           ; Name         Instructions Cycles
  8832                           ; simple_byte            4     3 (average)
  8833                           ; direct_byte           11     8 (fixed)
  8834                           ; jumptable            260     6 (fixed)
  8835                           ;	Chosen strategy is simple_byte
  8836     09A9  0873               	movf	??_read_Digital+1,w
  8837     09AA  3A00               	xorlw	0	; case 0
  8838     09AB  1903               	skipnz
  8839     09AC  29AE               	goto	l6970
  8840     09AD  29BF               	goto	l5766
  8841     09AE                     l6970:
  8842                           
  8843                           ; Switch size 1, requested type "simple"
  8844                           ; Number of cases is 5, Range of values is 0 to 4
  8845                           ; switch strategies available:
  8846                           ; Name         Instructions Cycles
  8847                           ; simple_byte           16     9 (average)
  8848                           ; direct_byte           23     8 (fixed)
  8849                           ; jumptable            260     6 (fixed)
  8850                           ;	Chosen strategy is simple_byte
  8851     09AE  0872               	movf	??_read_Digital,w
  8852     09AF  3A00               	xorlw	0	; case 0
  8853     09B0  1903               	skipnz
  8854     09B1  293D               	goto	l5752
  8855     09B2  3A01               	xorlw	1	; case 1
  8856     09B3  1903               	skipnz
  8857     09B4  2952               	goto	l5754
  8858     09B5  3A03               	xorlw	3	; case 2
  8859     09B6  1903               	skipnz
  8860     09B7  2967               	goto	l5756
  8861     09B8  3A01               	xorlw	1	; case 3
  8862     09B9  1903               	skipnz
  8863     09BA  297C               	goto	l5758
  8864     09BB  3A07               	xorlw	7	; case 4
  8865     09BC  1903               	skipnz
  8866     09BD  2991               	goto	l5760
  8867     09BE  29BF               	goto	l5766
  8868     09BF                     l5766:
  8869                           
  8870                           ;../../Sources/16F887/io.c: 219:             write_Digital(var_pin,0x00);
  8871     09BF  0875               	movf	read_Digital@returnStatus,w
  8872     09C0                     l474:
  8873     09C0  0008               	return
  8874     09C1                     __end_of_read_Digital:
  8875                           
  8876                           	psect	text29
  8877     0BDA                     __ptext29:	
  8878 ;; *************** function _pin_Direction *****************
  8879 ;; Defined at:
  8880 ;;		line 35 in file "../../Sources/16F887/io.c"
  8881 ;; Parameters:    Size  Location     Type
  8882 ;;  var_pin         1    wreg     enum E1456
  8883 ;;  var_derectio    1    2[COMMON] unsigned char 
  8884 ;; Auto vars:     Size  Location     Type
  8885 ;;  var_pin         1    6[COMMON] enum E1456
  8886 ;;  var_PortNumb    1    5[COMMON] unsigned char 
  8887 ;; Return value:  Size  Location     Type
  8888 ;;                  1    wreg      void 
  8889 ;; Registers used:
  8890 ;;		wreg, fsr0l, fsr0h, status,2, status,0, btemp+1
  8891 ;; Tracked objects:
  8892 ;;		On entry : 0/0
  8893 ;;		On exit  : 0/0
  8894 ;;		Unchanged: 0/0
  8895 ;; Data sizes:     COMMON   BANK0   BANK1   BANK3   BANK2
  8896 ;;      Params:         1       0       0       0       0
  8897 ;;      Locals:         2       0       0       0       0
  8898 ;;      Temps:          2       0       0       0       0
  8899 ;;      Totals:         5       0       0       0       0
  8900 ;;Total ram usage:        5 bytes
  8901 ;; Hardware stack levels used: 1
  8902 ;; Hardware stack levels required when called: 1
  8903 ;; This function calls:
  8904 ;;		Nothing
  8905 ;; This function is called by:
  8906 ;;		_LCD_Setup
  8907 ;;		_lcd_BusyCheck
  8908 ;;		_UART_Init
  8909 ;; This function uses a non-reentrant model
  8910 ;;
  8911                           
  8912     0BDA                     _pin_Direction:	
  8913                           ;psect for function _pin_Direction
  8914                           
  8915                           
  8916                           ;incstack = 0
  8917                           ; Regs used in _pin_Direction: [wreg-fsr0h+status,2+status,0+btemp+1]
  8918                           ;pin_Direction@var_pin stored from wreg
  8919     0BDA  00F6               	movwf	pin_Direction@var_pin
  8920     0BDB                     l5662:
  8921                           
  8922                           ;../../Sources/16F887/io.c: 36:             }else{;../../Sources/16F887/io.c: 37:       
      +                                    ANSELbits.ANS0 = 0;
  8923     0BDB  0876               	movf	pin_Direction@var_pin,w
  8924     0BDC  00F3               	movwf	??_pin_Direction
  8925     0BDD  3003               	movlw	3
  8926     0BDE                     u6745:
  8927     0BDE  1003               	clrc
  8928     0BDF  0CF3               	rrf	??_pin_Direction,f
  8929     0BE0  3EFF               	addlw	-1
  8930     0BE1  1D03               	skipz
  8931     0BE2  2BDE               	goto	u6745
  8932     0BE3  0873               	movf	??_pin_Direction,w
  8933     0BE4  00F5               	movwf	pin_Direction@var_PortNumber
  8934     0BE5                     l5664:
  8935                           
  8936                           ;../../Sources/16F887/io.c: 38:             }
  8937     0BE5  0876               	movf	pin_Direction@var_pin,w
  8938     0BE6  3907               	andlw	7
  8939     0BE7  00F6               	movwf	pin_Direction@var_pin
  8940                           
  8941                           ;../../Sources/16F887/io.c: 40:         case RA_1:
  8942     0BE8  2CA7               	goto	l5698
  8943     0BE9                     l5666:
  8944                           
  8945                           ;../../Sources/16F887/io.c: 42:                 ANSELbits.ANS1 = 1;
  8946     0BE9  0872               	movf	pin_Direction@var_derection,w
  8947     0BEA  1903               	btfsc	3,2
  8948     0BEB  2BED               	goto	u6751
  8949     0BEC  2BEE               	goto	u6750
  8950     0BED                     u6751:
  8951     0BED  2BFE               	goto	l5670
  8952     0BEE                     u6750:
  8953     0BEE                     l5668:
  8954     0BEE  3001               	movlw	1
  8955     0BEF  00F3               	movwf	??_pin_Direction
  8956     0BF0  0A76               	incf	pin_Direction@var_pin,w
  8957     0BF1  2BF4               	goto	u6764
  8958     0BF2                     u6765:
  8959     0BF2  1003               	clrc
  8960     0BF3  0DF3               	rlf	??_pin_Direction,f
  8961     0BF4                     u6764:
  8962     0BF4  3EFF               	addlw	-1
  8963     0BF5  1D03               	skipz
  8964     0BF6  2BF2               	goto	u6765
  8965     0BF7  0873               	movf	??_pin_Direction,w
  8966     0BF8  00FF               	movwf	btemp+1
  8967     0BF9  087F               	movf	btemp+1,w
  8968     0BFA  1683               	bsf	3,5	;RP0=1, select bank1
  8969     0BFB  1303               	bcf	3,6	;RP1=0, select bank1
  8970     0BFC  0485               	iorwf	5,f	;volatile
  8971     0BFD  2CC0               	goto	l387
  8972     0BFE                     l5670:
  8973     0BFE  3001               	movlw	1
  8974     0BFF  00F3               	movwf	??_pin_Direction
  8975     0C00  0A76               	incf	pin_Direction@var_pin,w
  8976     0C01  2C04               	goto	u6774
  8977     0C02                     u6775:
  8978     0C02  1003               	clrc
  8979     0C03  0DF3               	rlf	??_pin_Direction,f
  8980     0C04                     u6774:
  8981     0C04  3EFF               	addlw	-1
  8982     0C05  1D03               	skipz
  8983     0C06  2C02               	goto	u6775
  8984     0C07  0873               	movf	??_pin_Direction,w
  8985     0C08  3AFF               	xorlw	255
  8986     0C09  00FF               	movwf	btemp+1
  8987     0C0A  087F               	movf	btemp+1,w
  8988     0C0B  1683               	bsf	3,5	;RP0=1, select bank1
  8989     0C0C  1303               	bcf	3,6	;RP1=0, select bank1
  8990     0C0D  0585               	andwf	5,f	;volatile
  8991     0C0E  2CC0               	goto	l387
  8992     0C0F                     l5672:
  8993                           
  8994                           ;../../Sources/16F887/io.c: 45:             }
  8995     0C0F  0872               	movf	pin_Direction@var_derection,w
  8996     0C10  1903               	btfsc	3,2
  8997     0C11  2C13               	goto	u6781
  8998     0C12  2C14               	goto	u6780
  8999     0C13                     u6781:
  9000     0C13  2C24               	goto	l5676
  9001     0C14                     u6780:
  9002     0C14                     l5674:
  9003     0C14  3001               	movlw	1
  9004     0C15  00F3               	movwf	??_pin_Direction
  9005     0C16  0A76               	incf	pin_Direction@var_pin,w
  9006     0C17  2C1A               	goto	u6794
  9007     0C18                     u6795:
  9008     0C18  1003               	clrc
  9009     0C19  0DF3               	rlf	??_pin_Direction,f
  9010     0C1A                     u6794:
  9011     0C1A  3EFF               	addlw	-1
  9012     0C1B  1D03               	skipz
  9013     0C1C  2C18               	goto	u6795
  9014     0C1D  0873               	movf	??_pin_Direction,w
  9015     0C1E  00FF               	movwf	btemp+1
  9016     0C1F  087F               	movf	btemp+1,w
  9017     0C20  1683               	bsf	3,5	;RP0=1, select bank1
  9018     0C21  1303               	bcf	3,6	;RP1=0, select bank1
  9019     0C22  0486               	iorwf	6,f	;volatile
  9020     0C23  2CC0               	goto	l387
  9021     0C24                     l5676:
  9022     0C24  3001               	movlw	1
  9023     0C25  00F3               	movwf	??_pin_Direction
  9024     0C26  0A76               	incf	pin_Direction@var_pin,w
  9025     0C27  2C2A               	goto	u6804
  9026     0C28                     u6805:
  9027     0C28  1003               	clrc
  9028     0C29  0DF3               	rlf	??_pin_Direction,f
  9029     0C2A                     u6804:
  9030     0C2A  3EFF               	addlw	-1
  9031     0C2B  1D03               	skipz
  9032     0C2C  2C28               	goto	u6805
  9033     0C2D  0873               	movf	??_pin_Direction,w
  9034     0C2E  3AFF               	xorlw	255
  9035     0C2F  00FF               	movwf	btemp+1
  9036     0C30  087F               	movf	btemp+1,w
  9037     0C31  1683               	bsf	3,5	;RP0=1, select bank1
  9038     0C32  1303               	bcf	3,6	;RP1=0, select bank1
  9039     0C33  0586               	andwf	6,f	;volatile
  9040     0C34  2CC0               	goto	l387
  9041     0C35                     l5678:
  9042                           
  9043                           ;../../Sources/16F887/io.c: 48:             if(mode == 0x01){
  9044     0C35  0872               	movf	pin_Direction@var_derection,w
  9045     0C36  1903               	btfsc	3,2
  9046     0C37  2C39               	goto	u6811
  9047     0C38  2C3A               	goto	u6810
  9048     0C39                     u6811:
  9049     0C39  2C4A               	goto	l5682
  9050     0C3A                     u6810:
  9051     0C3A                     l5680:
  9052     0C3A  3001               	movlw	1
  9053     0C3B  00F3               	movwf	??_pin_Direction
  9054     0C3C  0A76               	incf	pin_Direction@var_pin,w
  9055     0C3D  2C40               	goto	u6824
  9056     0C3E                     u6825:
  9057     0C3E  1003               	clrc
  9058     0C3F  0DF3               	rlf	??_pin_Direction,f
  9059     0C40                     u6824:
  9060     0C40  3EFF               	addlw	-1
  9061     0C41  1D03               	skipz
  9062     0C42  2C3E               	goto	u6825
  9063     0C43  0873               	movf	??_pin_Direction,w
  9064     0C44  00FF               	movwf	btemp+1
  9065     0C45  087F               	movf	btemp+1,w
  9066     0C46  1683               	bsf	3,5	;RP0=1, select bank1
  9067     0C47  1303               	bcf	3,6	;RP1=0, select bank1
  9068     0C48  0487               	iorwf	7,f	;volatile
  9069     0C49  2CC0               	goto	l387
  9070     0C4A                     l5682:
  9071     0C4A  3001               	movlw	1
  9072     0C4B  00F3               	movwf	??_pin_Direction
  9073     0C4C  0A76               	incf	pin_Direction@var_pin,w
  9074     0C4D  2C50               	goto	u6834
  9075     0C4E                     u6835:
  9076     0C4E  1003               	clrc
  9077     0C4F  0DF3               	rlf	??_pin_Direction,f
  9078     0C50                     u6834:
  9079     0C50  3EFF               	addlw	-1
  9080     0C51  1D03               	skipz
  9081     0C52  2C4E               	goto	u6835
  9082     0C53  0873               	movf	??_pin_Direction,w
  9083     0C54  3AFF               	xorlw	255
  9084     0C55  00FF               	movwf	btemp+1
  9085     0C56  087F               	movf	btemp+1,w
  9086     0C57  1683               	bsf	3,5	;RP0=1, select bank1
  9087     0C58  1303               	bcf	3,6	;RP1=0, select bank1
  9088     0C59  0587               	andwf	7,f	;volatile
  9089     0C5A  2CC0               	goto	l387
  9090     0C5B                     l5684:
  9091                           
  9092                           ;../../Sources/16F887/io.c: 51:                 ANSELbits.ANS2 = 0;
  9093     0C5B  0872               	movf	pin_Direction@var_derection,w
  9094     0C5C  1903               	btfsc	3,2
  9095     0C5D  2C5F               	goto	u6841
  9096     0C5E  2C60               	goto	u6840
  9097     0C5F                     u6841:
  9098     0C5F  2C70               	goto	l5688
  9099     0C60                     u6840:
  9100     0C60                     l5686:
  9101     0C60  3001               	movlw	1
  9102     0C61  00F3               	movwf	??_pin_Direction
  9103     0C62  0A76               	incf	pin_Direction@var_pin,w
  9104     0C63  2C66               	goto	u6854
  9105     0C64                     u6855:
  9106     0C64  1003               	clrc
  9107     0C65  0DF3               	rlf	??_pin_Direction,f
  9108     0C66                     u6854:
  9109     0C66  3EFF               	addlw	-1
  9110     0C67  1D03               	skipz
  9111     0C68  2C64               	goto	u6855
  9112     0C69  0873               	movf	??_pin_Direction,w
  9113     0C6A  00FF               	movwf	btemp+1
  9114     0C6B  087F               	movf	btemp+1,w
  9115     0C6C  1683               	bsf	3,5	;RP0=1, select bank1
  9116     0C6D  1303               	bcf	3,6	;RP1=0, select bank1
  9117     0C6E  0488               	iorwf	8,f	;volatile
  9118     0C6F  2CC0               	goto	l387
  9119     0C70                     l5688:
  9120     0C70  3001               	movlw	1
  9121     0C71  00F3               	movwf	??_pin_Direction
  9122     0C72  0A76               	incf	pin_Direction@var_pin,w
  9123     0C73  2C76               	goto	u6864
  9124     0C74                     u6865:
  9125     0C74  1003               	clrc
  9126     0C75  0DF3               	rlf	??_pin_Direction,f
  9127     0C76                     u6864:
  9128     0C76  3EFF               	addlw	-1
  9129     0C77  1D03               	skipz
  9130     0C78  2C74               	goto	u6865
  9131     0C79  0873               	movf	??_pin_Direction,w
  9132     0C7A  3AFF               	xorlw	255
  9133     0C7B  00FF               	movwf	btemp+1
  9134     0C7C  087F               	movf	btemp+1,w
  9135     0C7D  1683               	bsf	3,5	;RP0=1, select bank1
  9136     0C7E  1303               	bcf	3,6	;RP1=0, select bank1
  9137     0C7F  0588               	andwf	8,f	;volatile
  9138     0C80  2CC0               	goto	l387
  9139     0C81                     l5690:
  9140                           
  9141                           ;../../Sources/16F887/io.c: 54:         case RA_3:
  9142     0C81  0872               	movf	pin_Direction@var_derection,w
  9143     0C82  1903               	btfsc	3,2
  9144     0C83  2C85               	goto	u6871
  9145     0C84  2C86               	goto	u6870
  9146     0C85                     u6871:
  9147     0C85  2C96               	goto	l5694
  9148     0C86                     u6870:
  9149     0C86                     l5692:
  9150     0C86  3001               	movlw	1
  9151     0C87  00F3               	movwf	??_pin_Direction
  9152     0C88  0A76               	incf	pin_Direction@var_pin,w
  9153     0C89  2C8C               	goto	u6884
  9154     0C8A                     u6885:
  9155     0C8A  1003               	clrc
  9156     0C8B  0DF3               	rlf	??_pin_Direction,f
  9157     0C8C                     u6884:
  9158     0C8C  3EFF               	addlw	-1
  9159     0C8D  1D03               	skipz
  9160     0C8E  2C8A               	goto	u6885
  9161     0C8F  0873               	movf	??_pin_Direction,w
  9162     0C90  00FF               	movwf	btemp+1
  9163     0C91  087F               	movf	btemp+1,w
  9164     0C92  1683               	bsf	3,5	;RP0=1, select bank1
  9165     0C93  1303               	bcf	3,6	;RP1=0, select bank1
  9166     0C94  0489               	iorwf	9,f	;volatile
  9167     0C95  2CC0               	goto	l387
  9168     0C96                     l5694:
  9169     0C96  3001               	movlw	1
  9170     0C97  00F3               	movwf	??_pin_Direction
  9171     0C98  0A76               	incf	pin_Direction@var_pin,w
  9172     0C99  2C9C               	goto	u6894
  9173     0C9A                     u6895:
  9174     0C9A  1003               	clrc
  9175     0C9B  0DF3               	rlf	??_pin_Direction,f
  9176     0C9C                     u6894:
  9177     0C9C  3EFF               	addlw	-1
  9178     0C9D  1D03               	skipz
  9179     0C9E  2C9A               	goto	u6895
  9180     0C9F  0873               	movf	??_pin_Direction,w
  9181     0CA0  3AFF               	xorlw	255
  9182     0CA1  00FF               	movwf	btemp+1
  9183     0CA2  087F               	movf	btemp+1,w
  9184     0CA3  1683               	bsf	3,5	;RP0=1, select bank1
  9185     0CA4  1303               	bcf	3,6	;RP1=0, select bank1
  9186     0CA5  0589               	andwf	9,f	;volatile
  9187     0CA6  2CC0               	goto	l387
  9188     0CA7                     l5698:
  9189     0CA7  0875               	movf	pin_Direction@var_PortNumber,w
  9190     0CA8  00F3               	movwf	??_pin_Direction
  9191     0CA9  01F4               	clrf	??_pin_Direction+1
  9192                           
  9193                           ; Switch on 2 bytes has been partitioned into a top level switch of size 1, and 1 sub-sw
      +                          itches
  9194                           ; Switch size 1, requested type "simple"
  9195                           ; Number of cases is 1, Range of values is 0 to 0
  9196                           ; switch strategies available:
  9197                           ; Name         Instructions Cycles
  9198                           ; simple_byte            4     3 (average)
  9199                           ; direct_byte           11     8 (fixed)
  9200                           ; jumptable            260     6 (fixed)
  9201                           ;	Chosen strategy is simple_byte
  9202     0CAA  0874               	movf	??_pin_Direction+1,w
  9203     0CAB  3A00               	xorlw	0	; case 0
  9204     0CAC  1903               	skipnz
  9205     0CAD  2CAF               	goto	l6972
  9206     0CAE  2CC0               	goto	l387
  9207     0CAF                     l6972:
  9208                           
  9209                           ; Switch size 1, requested type "simple"
  9210                           ; Number of cases is 5, Range of values is 0 to 4
  9211                           ; switch strategies available:
  9212                           ; Name         Instructions Cycles
  9213                           ; simple_byte           16     9 (average)
  9214                           ; direct_byte           23     8 (fixed)
  9215                           ; jumptable            260     6 (fixed)
  9216                           ;	Chosen strategy is simple_byte
  9217     0CAF  0873               	movf	??_pin_Direction,w
  9218     0CB0  3A00               	xorlw	0	; case 0
  9219     0CB1  1903               	skipnz
  9220     0CB2  2BE9               	goto	l5666
  9221     0CB3  3A01               	xorlw	1	; case 1
  9222     0CB4  1903               	skipnz
  9223     0CB5  2C0F               	goto	l5672
  9224     0CB6  3A03               	xorlw	3	; case 2
  9225     0CB7  1903               	skipnz
  9226     0CB8  2C35               	goto	l5678
  9227     0CB9  3A01               	xorlw	1	; case 3
  9228     0CBA  1903               	skipnz
  9229     0CBB  2C5B               	goto	l5684
  9230     0CBC  3A07               	xorlw	7	; case 4
  9231     0CBD  1903               	skipnz
  9232     0CBE  2C81               	goto	l5690
  9233     0CBF  2CC0               	goto	l387
  9234     0CC0                     l387:
  9235     0CC0  0008               	return
  9236     0CC1                     __end_of_pin_Direction:
  9237                           
  9238                           	psect	text30
  9239     151B                     __ptext30:	
  9240 ;; *************** function _Delay_ms *****************
  9241 ;; Defined at:
  9242 ;;		line 37 in file "../../Sources/16F887/delay.c"
  9243 ;; Parameters:    Size  Location     Type
  9244 ;;  ms_count        2    4[COMMON] unsigned int 
  9245 ;; Auto vars:     Size  Location     Type
  9246 ;;		None
  9247 ;; Return value:  Size  Location     Type
  9248 ;;                  1    wreg      void 
  9249 ;; Registers used:
  9250 ;;		wreg, status,2, status,0, pclath, cstack
  9251 ;; Tracked objects:
  9252 ;;		On entry : 0/0
  9253 ;;		On exit  : 0/0
  9254 ;;		Unchanged: 0/0
  9255 ;; Data sizes:     COMMON   BANK0   BANK1   BANK3   BANK2
  9256 ;;      Params:         2       0       0       0       0
  9257 ;;      Locals:         0       0       0       0       0
  9258 ;;      Temps:          0       0       0       0       0
  9259 ;;      Totals:         2       0       0       0       0
  9260 ;;Total ram usage:        2 bytes
  9261 ;; Hardware stack levels used: 1
  9262 ;; Hardware stack levels required when called: 2
  9263 ;; This function calls:
  9264 ;;		_Delay_us
  9265 ;; This function is called by:
  9266 ;;		_LCD_Init
  9267 ;;		_lcd_BusyCheck
  9268 ;;		_lcd_Reset
  9269 ;;		_Delay_sec
  9270 ;;		_LCD_ScrollMessage
  9271 ;; This function uses a non-reentrant model
  9272 ;;
  9273                           
  9274     151B                     _Delay_ms:	
  9275                           ;psect for function _Delay_ms
  9276                           
  9277     151B                     l5654:	
  9278                           ;incstack = 0
  9279                           ; Regs used in _Delay_ms: [wreg+status,2+status,0+pclath+cstack]
  9280                           
  9281     151B  2D2B               	goto	l5660
  9282     151C                     l5656:
  9283     151C  302C               	movlw	44
  9284     151D  00F2               	movwf	Delay_us@us_count
  9285     151E  3001               	movlw	1
  9286     151F  00F3               	movwf	Delay_us@us_count+1
  9287     1520  120A  118A  27F1  160A  118A  	fcall	_Delay_us
  9288     1525                     l5658:
  9289     1525  3001               	movlw	1
  9290     1526  02F4               	subwf	Delay_ms@ms_count,f
  9291     1527  3000               	movlw	0
  9292     1528  1C03               	skipc
  9293     1529  03F5               	decf	Delay_ms@ms_count+1,f
  9294     152A  02F5               	subwf	Delay_ms@ms_count+1,f
  9295     152B                     l5660:
  9296     152B  0874               	movf	Delay_ms@ms_count,w
  9297     152C  0475               	iorwf	Delay_ms@ms_count+1,w
  9298     152D  1D03               	btfss	3,2
  9299     152E  2D30               	goto	u6731
  9300     152F  2D31               	goto	u6730
  9301     1530                     u6731:
  9302     1530  2D1C               	goto	l5656
  9303     1531                     u6730:
  9304     1531                     l86:
  9305     1531  0008               	return
  9306     1532                     __end_of_Delay_ms:
  9307                           
  9308                           	psect	text31
  9309     07F1                     __ptext31:	
  9310 ;; *************** function _Delay_us *****************
  9311 ;; Defined at:
  9312 ;;		line 31 in file "../../Sources/16F887/delay.c"
  9313 ;; Parameters:    Size  Location     Type
  9314 ;;  us_count        2    2[COMMON] unsigned int 
  9315 ;; Auto vars:     Size  Location     Type
  9316 ;;		None
  9317 ;; Return value:  Size  Location     Type
  9318 ;;                  1    wreg      void 
  9319 ;; Registers used:
  9320 ;;		wreg, status,2, status,0
  9321 ;; Tracked objects:
  9322 ;;		On entry : 0/0
  9323 ;;		On exit  : 0/0
  9324 ;;		Unchanged: 0/0
  9325 ;; Data sizes:     COMMON   BANK0   BANK1   BANK3   BANK2
  9326 ;;      Params:         2       0       0       0       0
  9327 ;;      Locals:         0       0       0       0       0
  9328 ;;      Temps:          0       0       0       0       0
  9329 ;;      Totals:         2       0       0       0       0
  9330 ;;Total ram usage:        2 bytes
  9331 ;; Hardware stack levels used: 1
  9332 ;; Hardware stack levels required when called: 1
  9333 ;; This function calls:
  9334 ;;		Nothing
  9335 ;; This function is called by:
  9336 ;;		_Delay_ms
  9337 ;;		_lcd_BusyCheck
  9338 ;;		_lcd_Reset
  9339 ;;		_lcd_SendCMDSignlas
  9340 ;;		_lcd_SendDataSignlas
  9341 ;;		_read_Analog
  9342 ;; This function uses a non-reentrant model
  9343 ;;
  9344                           
  9345     07F1                     _Delay_us:	
  9346                           ;psect for function _Delay_us
  9347                           
  9348     07F1                     l5648:	
  9349                           ;incstack = 0
  9350                           ; Regs used in _Delay_us: [wreg+status,2+status,0]
  9351                           
  9352     07F1  2FF8               	goto	l5652
  9353     07F2                     l5650:
  9354     07F2  3001               	movlw	1
  9355     07F3  02F2               	subwf	Delay_us@us_count,f
  9356     07F4  3000               	movlw	0
  9357     07F5  1C03               	skipc
  9358     07F6  03F3               	decf	Delay_us@us_count+1,f
  9359     07F7  02F3               	subwf	Delay_us@us_count+1,f
  9360     07F8                     l5652:
  9361     07F8  0872               	movf	Delay_us@us_count,w
  9362     07F9  0473               	iorwf	Delay_us@us_count+1,w
  9363     07FA  1D03               	btfss	3,2
  9364     07FB  2FFD               	goto	u6721
  9365     07FC  2FFE               	goto	u6720
  9366     07FD                     u6721:
  9367     07FD  2FF2               	goto	l5650
  9368     07FE                     u6720:
  9369     07FE                     l80:
  9370     07FE  0008               	return
  9371     07FF                     __end_of_Delay_us:
  9372                           
  9373                           	psect	text32
  9374     1507                     __ptext32:	
  9375 ;; *************** function _ExternalClock_Init *****************
  9376 ;; Defined at:
  9377 ;;		line 85 in file "../../Sources/16F887/oscillator.c"
  9378 ;; Parameters:    Size  Location     Type
  9379 ;;		None
  9380 ;; Auto vars:     Size  Location     Type
  9381 ;;		None
  9382 ;; Return value:  Size  Location     Type
  9383 ;;                  1    wreg      void 
  9384 ;; Registers used:
  9385 ;;		wreg
  9386 ;; Tracked objects:
  9387 ;;		On entry : 0/0
  9388 ;;		On exit  : 0/0
  9389 ;;		Unchanged: 0/0
  9390 ;; Data sizes:     COMMON   BANK0   BANK1   BANK3   BANK2
  9391 ;;      Params:         0       0       0       0       0
  9392 ;;      Locals:         0       0       0       0       0
  9393 ;;      Temps:          0       0       0       0       0
  9394 ;;      Totals:         0       0       0       0       0
  9395 ;;Total ram usage:        0 bytes
  9396 ;; Hardware stack levels used: 1
  9397 ;; Hardware stack levels required when called: 1
  9398 ;; This function calls:
  9399 ;;		Nothing
  9400 ;; This function is called by:
  9401 ;;		_main
  9402 ;; This function uses a non-reentrant model
  9403 ;;
  9404                           
  9405     1507                     _ExternalClock_Init:	
  9406                           ;psect for function _ExternalClock_Init
  9407                           
  9408     1507                     l2670:	
  9409                           ;incstack = 0
  9410                           ; Regs used in _ExternalClock_Init: [wreg]
  9411                           
  9412                           
  9413                           ;../../Sources/16F887/oscillator.c: 86:     OSCCON = 0x7E;
  9414     1507  307E               	movlw	126
  9415     1508  1683               	bsf	3,5	;RP0=1, select bank1
  9416     1509  1303               	bcf	3,6	;RP1=0, select bank1
  9417     150A  008F               	movwf	15	;volatile
  9418     150B                     l919:
  9419     150B  0008               	return
  9420     150C                     __end_of_ExternalClock_Init:
  9421                           
  9422                           	psect	text33
  9423     150C                     __ptext33:	
  9424 ;; *************** function _IRS *****************
  9425 ;; Defined at:
  9426 ;;		line 21 in file "main.c"
  9427 ;; Parameters:    Size  Location     Type
  9428 ;;		None
  9429 ;; Auto vars:     Size  Location     Type
  9430 ;;		None
  9431 ;; Return value:  Size  Location     Type
  9432 ;;                  1    wreg      void 
  9433 ;; Registers used:
  9434 ;;		None
  9435 ;; Tracked objects:
  9436 ;;		On entry : 0/0
  9437 ;;		On exit  : 0/0
  9438 ;;		Unchanged: 0/0
  9439 ;; Data sizes:     COMMON   BANK0   BANK1   BANK3   BANK2
  9440 ;;      Params:         0       0       0       0       0
  9441 ;;      Locals:         0       0       0       0       0
  9442 ;;      Temps:          2       0       0       0       0
  9443 ;;      Totals:         2       0       0       0       0
  9444 ;;Total ram usage:        2 bytes
  9445 ;; Hardware stack levels used: 1
  9446 ;; This function calls:
  9447 ;;		Nothing
  9448 ;; This function is called by:
  9449 ;;		Interrupt level 1
  9450 ;; This function uses a non-reentrant model
  9451 ;;
  9452                           
  9453     150C                     _IRS:	
  9454                           ;psect for function _IRS
  9455                           
  9456     150C                     i1l3092:
  9457     150C                     i1l17:	
  9458                           ;main.c: 22:     return;
  9459                           
  9460     150C  0871               	movf	??_IRS+1,w
  9461     150D  008A               	movwf	10
  9462     150E  0E70               	swapf	??_IRS,w
  9463     150F  0083               	movwf	3
  9464     1510  0EFE               	swapf	btemp,f
  9465     1511  0E7E               	swapf	btemp,w
  9466     1512  0009               	retfie
  9467     1513                     __end_of_IRS:
  9468     007E                     btemp	set	126	;btemp
  9469     007E                     wtemp0	set	126
  9470                           
  9471                           	psect	intentry
  9472     0004                     __pintentry:	
  9473                           ;incstack = 0
  9474 ;; hardware stack exceeded
  9475                           ; Regs used in _IRS: []
  9476                           
  9477     0004                     interrupt_function:
  9478     007E                     saved_w	set	btemp
  9479     0004  00FE               	movwf	btemp
  9480     0005  0E03               	swapf	3,w
  9481     0006  00F0               	movwf	??_IRS
  9482     0007  080A               	movf	10,w
  9483     0008  00F1               	movwf	??_IRS+1
  9484     0009  160A  118A  2D0C   	ljmp	_IRS
  9485                           
  9486                           	psect	idloc
  9487                           
  9488                           ;Config register IDLOC0 @ 0x2000
  9489                           ;	unspecified, using default values
  9490     2000                     	org	8192
  9491     2000  3FFF               	dw	16383
  9492                           
  9493                           ;Config register IDLOC1 @ 0x2001
  9494                           ;	unspecified, using default values
  9495     2001                     	org	8193
  9496     2001  3FFF               	dw	16383
  9497                           
  9498                           ;Config register IDLOC2 @ 0x2002
  9499                           ;	unspecified, using default values
  9500     2002                     	org	8194
  9501     2002  3FFF               	dw	16383
  9502                           
  9503                           ;Config register IDLOC3 @ 0x2003
  9504                           ;	unspecified, using default values
  9505     2003                     	org	8195
  9506     2003  3FFF               	dw	16383
  9507                           
  9508                           	psect	config
  9509                           
  9510                           ;Config register CONFIG1 @ 0x2007
  9511                           ;	Oscillator Selection bits
  9512                           ;	FOSC = HS, HS oscillator: High-speed crystal/resonator on RA6/OSC2/CLKOUT and RA7/OSC1
      +                          /CLKIN
  9513                           ;	Watchdog Timer Enable bit
  9514                           ;	WDTE = ON, WDT enabled
  9515                           ;	Power-up Timer Enable bit
  9516                           ;	PWRTE = OFF, PWRT disabled
  9517                           ;	RE3/MCLR pin function select bit
  9518                           ;	MCLRE = ON, RE3/MCLR pin function is MCLR
  9519                           ;	Code Protection bit
  9520                           ;	CP = OFF, Program memory code protection is disabled
  9521                           ;	Data Code Protection bit
  9522                           ;	CPD = OFF, Data memory code protection is disabled
  9523                           ;	Brown Out Reset Selection bits
  9524                           ;	BOREN = ON, BOR enabled
  9525                           ;	Internal External Switchover bit
  9526                           ;	IESO = ON, Internal/External Switchover mode is enabled
  9527                           ;	Fail-Safe Clock Monitor Enabled bit
  9528                           ;	FCMEN = OFF, Fail-Safe Clock Monitor is disabled
  9529                           ;	Low Voltage Programming Enable bit
  9530                           ;	LVP = OFF, RB3 pin has digital I/O, HV on MCLR must be used for programming
  9531                           ;	In-Circuit Debugger Mode bit
  9532                           ;	DEBUG = 0x1, unprogrammed default
  9533     2007                     	org	8199
  9534     2007  27FA               	dw	10234
  9535                           
  9536                           ;Config register CONFIG2 @ 0x2008
  9537                           ;	Brown-out Reset Selection bit
  9538                           ;	BOR4V = BOR40V, Brown-out Reset set to 4.0V
  9539                           ;	Flash Program Memory Self Write Enable bits
  9540                           ;	WRT = OFF, Write protection off
  9541     2008                     	org	8200
  9542     2008  3FFF               	dw	16383

Data Sizes:
    Strings     72
    Constant    0
    Data        4
    BSS         26
    Persistent  0
    Stack       0

Auto Spaces:
    Space          Size  Autos    Used
    COMMON           14     10      12
    BANK0            80     53      59
    BANK1            80     22      44
    BANK3            96      0       0
    BANK2            96      0       0

Pointer List with Targets:

    LCD_Printf@str	PTR unsigned char  size(1) Largest target is 1
		 -> ?_LCD_Printf(BANK0[1]), 

    LCD_Printf@argList	PTR const unsigned char  size(1) Largest target is 34
		 -> STR_2(CODE[34]), STR_1(CODE[11]), 

    LCD_Printf@ptr	PTR const unsigned char  size(1) Largest target is 34
		 -> STR_2(CODE[34]), STR_1(CODE[11]), 

    LCD_Printf@argp	PTR void [1] size(1) Largest target is 1
		 -> ?_LCD_Printf(BANK0[1]), 

    LCD_DisplayString@ptr_MessagePointer	PTR const unsigned char  size(1) Largest target is 1
		 -> ?_LCD_Printf(BANK0[1]), 


Critical Paths under _main in COMMON

    _LCD_Setup->_pin_Direction
    _LCD_DisplayFloatNumber->___fltol
    _LCD_DisplayFloatNumber->___xxtofl
    ___flsub->___fladd
    ___flsub->___xxtofl
    ___flmul->__Umul8_16
    _LCD_DisplayNumber->___lldiv
    ___bmul->___lldiv
    _LCD_DisplayChar->_lcd_DataWrite
    _lcd_DataWrite->_lcd_BusyCheck
    _lcd_DataWrite->_lcd_SendHigherData
    _lcd_DataWrite->_lcd_SendLowerData
    _lcd_SendDataSignlas->_write_Digital
    _LCD_GoToNextLine->_LCD_CMD_Write
    _LCD_Init->_LCD_CMD_Write
    _lcd_Reset->_lcd_SendHigherData
    _LCD_Clear->_LCD_CMD_Write
    _LCD_GoToLine->_LCD_CMD_Write
    _LCD_CMD_Write->_lcd_BusyCheck
    _LCD_CMD_Write->_lcd_SendHigherData
    _LCD_CMD_Write->_lcd_SendLowerData
    _lcd_SendLowerData->_write_Digital
    _lcd_SendHigherData->_write_Digital
    _lcd_SendCMDSignlas->_write_Digital
    _lcd_BusyCheck->_pin_Direction
    _lcd_BusyCheck->_read_Digital
    _lcd_BusyCheck->_write_Digital
    _Delay_ms->_Delay_us

Critical Paths under _IRS in COMMON

    None.

Critical Paths under _main in BANK0

    _main->_LCD_Printf
    _LCD_Printf->_LCD_DisplayFloatNumber
    _LCD_DisplayString->_LCD_DisplayChar
    _LCD_DisplayFloatNumber->_LCD_DisplayNumber
    ___fltol->___flmul
    ___flsub->___fladd
    ___flmul->__Umul8_16
    _LCD_DisplayNumber->___bmul
    ___bmul->___lldiv
    _LCD_Clear->_LCD_GoToLine

Critical Paths under _IRS in BANK0

    None.

Critical Paths under _main in BANK1

    _main->_LCD_Printf

Critical Paths under _IRS in BANK1

    None.

Critical Paths under _main in BANK3

    None.

Critical Paths under _IRS in BANK3

    None.

Critical Paths under _main in BANK2

    None.

Critical Paths under _IRS in BANK2

    None.

Call Graph Tables:

 ---------------------------------------------------------------------------------
 (Depth) Function   	        Calls       Base Space   Used Autos Params    Refs
 ---------------------------------------------------------------------------------
 (0) _main                                                 0     0      0  313203
                 _ExternalClock_Init
                          _LCD_Clear
                       _LCD_GoToLine
                           _LCD_Init
                         _LCD_Printf
                          _LCD_Setup
 ---------------------------------------------------------------------------------
 (1) _LCD_Setup                                           11     1     10    4104
                                              7 COMMON     1     1      0
                                              0 BANK0     10     0     10
                      _pin_Direction
 ---------------------------------------------------------------------------------
 (1) _LCD_Printf                                          28    24      4  193311
                                             47 BANK0      6     2      4
                                              0 BANK1     22    22      0
                    _LCD_DisplayChar
             _LCD_DisplayFloatNumber
                  _LCD_DisplayNumber
                  _LCD_DisplayString
                             ___bmul
 ---------------------------------------------------------------------------------
 (2) _LCD_DisplayString                                    1     1      0   35070
                                              1 BANK0      1     1      0
                    _LCD_DisplayChar
 ---------------------------------------------------------------------------------
 (2) _LCD_DisplayFloatNumber                               8     4      4   82230
                                             39 BANK0      8     4      4
                    _LCD_DisplayChar
                  _LCD_DisplayNumber
                            ___flmul
                            ___flsub
                            ___fltol
                           ___xxtofl
 ---------------------------------------------------------------------------------
 (3) ___xxtofl                                            14    10      4     656
                                              2 COMMON     8     4      4
                                              0 BANK0      6     6      0
 ---------------------------------------------------------------------------------
 (3) ___fltol                                             10     6      4     517
                                              6 COMMON     4     4      0
                                             31 BANK0      6     2      4
                            ___flmul (ARG)
 ---------------------------------------------------------------------------------
 (3) ___flsub                                              8     0      8    3367
                                             12 BANK0      8     0      8
                            ___fladd
                           ___xxtofl (ARG)
 ---------------------------------------------------------------------------------
 (4) ___fladd                                             20    12      8    3122
                                              2 COMMON     8     0      8
                                              0 BANK0     12    12      0
 ---------------------------------------------------------------------------------
 (3) ___flmul                                             26    18      8    3533
                                              5 BANK0     26    18      8
                          __Umul8_16
 ---------------------------------------------------------------------------------
 (4) __Umul8_16                                            9     7      2     980
                                              2 COMMON     4     2      2
                                              0 BANK0      5     5      0
 ---------------------------------------------------------------------------------
 (2) _LCD_DisplayNumber                                   30    25      5   38903
                                              9 BANK0     30    25      5
                    _LCD_DisplayChar
                             ___bmul
                            ___lldiv
 ---------------------------------------------------------------------------------
 (3) ___lldiv                                             14     6      8     781
                                              2 COMMON     8     0      8
                                              0 BANK0      6     6      0
 ---------------------------------------------------------------------------------
 (2) ___bmul                                               3     2      1     406
                                              6 BANK0      3     2      1
                            ___lldiv (ARG)
 ---------------------------------------------------------------------------------
 (3) _LCD_DisplayChar                                      1     1      0   34969
                                              0 BANK0      1     1      0
                   _LCD_GoToNextLine
                      _lcd_DataWrite
 ---------------------------------------------------------------------------------
 (4) _lcd_DataWrite                                        2     2      0   17438
                                              8 COMMON     2     2      0
                      _lcd_BusyCheck
                _lcd_SendDataSignlas
                 _lcd_SendHigherData
                  _lcd_SendLowerData
 ---------------------------------------------------------------------------------
 (5) _lcd_SendDataSignlas                                  0     0      0    3748
                           _Delay_us
                      _write_Digital
 ---------------------------------------------------------------------------------
 (4) _LCD_GoToNextLine                                     0     0      0   17438
                      _LCD_CMD_Write
 ---------------------------------------------------------------------------------
 (1) _LCD_Init                                             2     1      1   63288
                                              1 BANK0      2     1      1
                           _Delay_ms
                      _LCD_CMD_Write
                          _LCD_Clear
                          _lcd_Reset
 ---------------------------------------------------------------------------------
 (2) _lcd_Reset                                            0     0      0    9128
                           _Delay_ms
                           _Delay_us
                 _lcd_SendCMDSignlas
                 _lcd_SendHigherData
 ---------------------------------------------------------------------------------
 (2) _LCD_Clear                                            0     0      0   34969
                      _LCD_CMD_Write
                       _LCD_GoToLine
 ---------------------------------------------------------------------------------
 (3) _LCD_GoToLine                                         1     1      0   17531
                                              0 BANK0      1     1      0
                      _LCD_CMD_Write
 ---------------------------------------------------------------------------------
 (5) _LCD_CMD_Write                                        2     2      0   17438
                                              8 COMMON     2     2      0
                      _lcd_BusyCheck
                 _lcd_SendCMDSignlas
                 _lcd_SendHigherData
                  _lcd_SendLowerData
 ---------------------------------------------------------------------------------
 (5) _lcd_SendLowerData                                    1     1      0    2848
                                              7 COMMON     1     1      0
                      _write_Digital
 ---------------------------------------------------------------------------------
 (5) _lcd_SendHigherData                                   1     1      0    2848
                                              7 COMMON     1     1      0
                      _write_Digital
 ---------------------------------------------------------------------------------
 (6) _lcd_SendCMDSignlas                                   0     0      0    3748
                           _Delay_us
                      _write_Digital
 ---------------------------------------------------------------------------------
 (5) _lcd_BusyCheck                                        1     1      0    7867
                                              7 COMMON     1     1      0
                           _Delay_ms
                           _Delay_us
                      _pin_Direction
                       _read_Digital
                      _write_Digital
 ---------------------------------------------------------------------------------
 (6) _write_Digital                                        5     4      1    2724
                                              2 COMMON     5     4      1
 ---------------------------------------------------------------------------------
 (6) _read_Digital                                         5     5      0     303
                                              2 COMMON     5     5      0
 ---------------------------------------------------------------------------------
 (2) _pin_Direction                                        5     4      1    2274
                                              2 COMMON     5     4      1
 ---------------------------------------------------------------------------------
 (6) _Delay_ms                                             2     0      2    1508
                                              4 COMMON     2     0      2
                           _Delay_us
 ---------------------------------------------------------------------------------
 (6) _Delay_us                                             2     0      2    1024
                                              2 COMMON     2     0      2
 ---------------------------------------------------------------------------------
 (1) _ExternalClock_Init                                   0     0      0       0
 ---------------------------------------------------------------------------------
 Estimated maximum stack depth 6
 ---------------------------------------------------------------------------------
 (Depth) Function   	        Calls       Base Space   Used Autos Params    Refs
 ---------------------------------------------------------------------------------
 (10) _IRS                                                 2     2      0       0
                                              0 COMMON     2     2      0
 ---------------------------------------------------------------------------------
 Estimated maximum stack depth 10
 ---------------------------------------------------------------------------------

 Call Graph Graphs:

 _main (ROOT)
   _ExternalClock_Init
   _LCD_Clear
     _LCD_CMD_Write
       _lcd_BusyCheck
         _Delay_ms
           _Delay_us
         _Delay_us
         _pin_Direction
         _read_Digital
         _write_Digital
       _lcd_SendCMDSignlas
         _Delay_us
         _write_Digital
       _lcd_SendHigherData
         _write_Digital
       _lcd_SendLowerData
         _write_Digital
     _LCD_GoToLine
       _LCD_CMD_Write
   _LCD_GoToLine
   _LCD_Init
     _Delay_ms
     _LCD_CMD_Write
     _LCD_Clear
     _lcd_Reset
       _Delay_ms
       _Delay_us
       _lcd_SendCMDSignlas
       _lcd_SendHigherData
   _LCD_Printf
     _LCD_DisplayChar
       _LCD_GoToNextLine
         _LCD_CMD_Write
       _lcd_DataWrite
         _lcd_BusyCheck
         _lcd_SendDataSignlas
           _Delay_us
           _write_Digital
         _lcd_SendHigherData
         _lcd_SendLowerData
     _LCD_DisplayFloatNumber
       _LCD_DisplayChar
       _LCD_DisplayNumber
         _LCD_DisplayChar
         ___bmul
           ___lldiv (ARG)
         ___lldiv
       ___flmul
         __Umul8_16
       ___flsub
         ___fladd
         ___xxtofl (ARG)
       ___fltol
         ___flmul (ARG)
       ___xxtofl
     _LCD_DisplayNumber
     _LCD_DisplayString
       _LCD_DisplayChar
     ___bmul
   _LCD_Setup
     _pin_Direction

 _IRS (ROOT)

 Address spaces:
Name               Size   Autos  Total    Cost      Usage
BANK3               60      0       0       9        0.0%
BITBANK3            60      0       0       8        0.0%
SFR3                 0      0       0       4        0.0%
BITSFR3              0      0       0       4        0.0%
BANK2               60      0       0      11        0.0%
BITBANK2            60      0       0      10        0.0%
SFR2                 0      0       0       5        0.0%
BITSFR2              0      0       0       5        0.0%
BANK1               50     16      2C       7       55.0%
BITBANK1            50      0       0       6        0.0%
SFR1                 0      0       0       2        0.0%
BITSFR1              0      0       0       2        0.0%
BANK0               50     35      3B       5       73.8%
BITBANK0            50      0       0       4        0.0%
SFR0                 0      0       0       1        0.0%
BITSFR0              0      0       0       1        0.0%
COMMON               E      A       C       1       85.7%
BITCOMMON            E      0       0       0        0.0%
CODE                 0      0       0       0        0.0%
DATA                 0      0      73      12        0.0%
ABS                  0      0      73       3        0.0%
NULL                 0      0       0       0        0.0%
STACK                0      0       0       2        0.0%
EEDATA             100      0       0       0        0.0%


Microchip Technology PIC Macro Assembler V2.41 build 20230208172133 
Symbol Table                                                                                   Sat Mar 11 12:40:48 2023

                   _LCD_DisplayFloatNumber 0A55                                          pc 0002  
                           ___bmul@product 0027                                         _BF 04A0  
                                       l80 07FE                                         l86 1531  
                                       _GO 00F9                                         _RD 0C60  
                                       _WR 0C61                                ?_LCD_Printf 004F  
                __end_of_lcd_SendLowerData 175D                    _Array_LCDLineNumAddress 0055  
                                       fsr 0004                              ?_LCD_GoToLine 0070  
                      __Umul8_16@word_mpld 0022                                        l622 0AF3  
                                      l543 17F4                                        l464 0DA7  
                                      l553 16A9                                        l545 17FF  
                                      l561 157E                                        l474 09C0  
                                      l642 0451                                        l634 03DA  
                                      l538 0BD9                                        l387 0CC0  
                                      l619 0736                                        l548 080C  
                                      l572 1613                                        l557 1563  
                                      l680 0A54                                        l672 16E0  
                                      l578 1599                                        l658 0633  
                                      l683 17AD                                        l676 09E3  
                                      l692 171E                                        l686 1642  
                                      l919 150B                                        l695 175C  
                                      l689 1672                                        _GIE 005F  
                                      _PR2 0092                                        _PEN 048A  
                                      _IRS 150C                                        _SEN 0488  
                                      _R_W 04A2                                        fsr0 0004  
                                      indf 0000           LCD_DisplayNumber@numberic_System 0045  
                             ___flmul@aexp 0033                               ___flmul@bexp 0038  
                             ___flmul@sign 0032                               ___flmul@temp 003D  
                             ___flmul@prod 0039                    __end_of_LCD_DisplayChar 1614  
                                     ?_IRS 0070                               ___fltol@exp1 0044  
                                     _C1IF 006D                                       _C2IF 006E  
                                     l1451 0917                                       l1284 1548  
                                     l1444 092C                                       l1294 08B4  
                                     l1454 092C                                       l1551 0E03  
                                     l1704 07BA                                       l1705 07C6  
                                     l1555 0E86                                       l1572 0F4F  
                                     l1564 0FFF                                       l1653 02EC  
                                     l1557 0E5F                                       l1582 0F95  
                                     l1647 037C                                       l1576 0F73  
                                     l6000 0E7A                                       l1666 15D4  
                                     l1594 0FFF                                       l6010 0E98  
                                     l6002 0E7E                                       l1691 075B  
                                     l1668 15E6                                       l6100 0FF5  
                                     l6020 0EC0                                       l6012 0EAF  
                                     l6004 0E8A                                       l1597 15BD  
                                     l1693 07F0                                       l2670 1507  
                                     l6110 15CA                                       l6102 0FFA  
                                     l6030 0EE9                                       l6022 0EC4  
                                     l6014 0EB3                                       l6006 0E8F  
                                     l6120 154C                                       l6112 15CE  
                                     l6104 0FFE                                       l6032 0F27  
                                     l6040 0F41                                       l6024 0EC5  
                                     l6016 0EB7                                       l6200 08F3  
                                     l6122 1556                                       l6130 0637  
                                     l6114 15DD                                       l6106 15C1  
                                     l6050 0F6E                                       l6042 0F57  
                                     l6034 0F2B                                       l6026 0ECE  
                                     l6018 0EBE                                       l6210 090C  
                                     l6202 08FC                                       l6124 1557  
                                     l6140 067B                                       l6116 15E2  
                                     l6108 15C3                                       l6300 024A  
                                     l6060 0F81                                       l6052 0F72  
                                     l6044 0F5C                                       l6036 0F2D  
                                     l6028 0ED3                                       l6212 091C  
                                     l6204 0905                                       l6126 1559  
                                     l6150 069A                                       l6134 063E  
                                     l6142 0681                                       l6310 02B8  
                                     l6302 0270                                       l6230 0046  
                                     l6222 0038                                       l6070 0F92  
                                     l6054 0F77                                       l6062 0F83  
                                     l6038 0F32                                       l6214 0921  
                                     l6160 06F5                                       l6152 06C4  
                                     l6144 0689                                       l6136 0670  
                                     l6128 0637                                       l6320 02D0  
                                     l6312 02BC                                       l6304 0298  
                                     l6240 0062                                       l6232 004B  
                                     l6224 003D                                       l6080 0FB1  
                                     l6056 0F7A                                       l6048 0F65  
                                     l6064 0F87                                       l6216 159A  
                                     l6400 07C8                                       l6170 071C  
                                     l6162 06FA                                       l6154 06E9  
                                     l6146 0690                                       l6138 0677  
                                     l6330 02F1                                       l6322 02D1  
                                     l6314 02BD                                       l6306 02A1  
                                     l6250 0075                                       l6242 0067  
                                     l6234 0050                                       l6226 0041  
                                     l6090 0FE5                                       l6082 0FCF  
                                     l6074 0F9A                                       l6066 0F88  
                                     l6058 0F7C                                       l6218 159E  
                                     l6402 07DE                                       l6412 0800  
                                     l6420 1777                                       l6500 17DC  
                                     l6172 0727                                       l6156 06EE  
                                     l6148 0692                                       l6164 06FE  
                                     l6332 02F6                                       l6340 0327  
                                     l6324 02D5                                       l6316 02C6  
                                     l6308 02AF                                       l6260 0091  
                                     l6252 007A                                       l6244 006B  
                                     l6236 0058                                       l6228 0045  
                                     l6092 0FEA                                       l6076 0F9F  
                                     l6084 0FD3                                       l6068 0F8C  
                                     l6180 08C0                                       l6404 07E3  
                                     l5710 0CD5                                       l6430 17A4  
                                     l6422 177C                                       l6414 175D  
                                     l6502 17E3                                       l6174 072D  
                                     l6166 0705                                       l6350 035A  
                                     l6342 0334                                       l6334 0304  
                                     l6326 02E9                                       l6318 02CC  
                                     l6270 00BA                                       l6262 0096  
                                     l6254 0082                                       l6246 006F  
                                     l6238 005A                                       l6094 0FEB  
                                     l6086 0FD8                                       l6078 0FAD  
                                     l6190 08E5                                       l6406 07E7  
                                     l6510 038D                                       l5720 0D1C  
                                     l5712 0CE5                                       l5704 0CC2  
                                     l5800 16E2                                       l6424 1790  
                                     l6416 1768                                       l6504 17E9  
                                     l6168 0710                                       l6176 0731  
                                     l6360 0374                                       l6352 0366  
                                     l6344 033F                                       l6336 0308  
                                     l6280 0153                                       l6272 00D5  
                                     l6256 0084                                       l6248 0070  
                                     l6096 0FEF                                       l6088 0FDD  
                                     l6192 08E7                                       l6184 08C9  
                                     l6408 07E8                                       l6440 0A55  
                                     l6432 1582                                       l6600 056F  
                                     l6520 03AB                                       l6512 0393  
                                     l5650 07F2                                       l5730 0D57  
                                     l5722 0D21                                       l5714 0CF6  
                                     l5706 0CCC                                       l5802 1614  
                                     l5810 1679                                       l6426 1799  
                                     l6418 1771                                       l6354 036A  
                                     l6346 034E                                       l6338 0321  
                                     l6290 01B2                                       l6282 015C  
                                     l6274 00F1                                       l6266 009F  
                                     l6258 008C                                       l6098 0FF1  
                                     l6194 08EB                                       l6186 08DC  
                                     l6178 08B5                                       l6370 0753  
                                     l6442 0A6E                                       l6434 1583  
                                     l6610 05AD                                       l6602 0574  
                                     l6530 03D0                                       l6522 03AD  
                                     l6514 0397                                       l6506 0380  
                                     l6450 0B35                                       l5652 07F8  
                                     l5660 152B                                       l5732 0D68  
                                     l5724 0D31                                       l5716 0CFB  
                                     l5708 0CD0                                       l5740 0D8E  
                                     l5804 1630                                       l5820 16A4  
                                     l5812 1681                                       l6428 179F  
                                     l5900 08A6                                       l6356 036B  
                                     l6348 0358                                       l6292 01C9  
                                     l6284 016A                                       l6276 011B  
                                     l6268 00AD                                       l6188 08DD  
                                     l6380 0773                                       l6372 0763  
                                     l6364 073A                                       l6444 0A7E  
                                     l6436 158B                                       l6612 05C9  
                                     l6604 0576                                       l6540 03ED  
                                     l6524 03BE                                       l6532 03D7  
                                     l6516 039F                                       l6508 0385  
                                     l6460 0B50                                       l6452 0B3C  
                                     l5654 151B                                       l5670 0BFE  
                                     l5662 0BDB                                       l5750 0939  
                                     l5734 0D6D                                       l5726 0D42  
                                     l5718 0D0B                                       l5806 1639  
                                     l5814 1688                                       l5830 1568  
                                     l5822 1643                                       l5902 08AC  
                                     l6358 0370                                       l6294 01E6  
                                     l6286 0187                                       l6278 0137  
                                     l5910 0DB1                                       l6390 079E  
                                     l6382 077C                                       l6366 073F  
                                     l6446 0AE3                                       l6438 1591  
                                     l6614 05D0                                       l6606 0599  
                                     l6550 040A                                       l6542 03F7  
                                     l6534 03DB                                       l6622 05E2  
                                     l6526 03C2                                       l6518 03A5  
                                     l6462 0B54                                       l6470 0B78  
                                     l6454 0B41                                       l5648 07F1  
                                     l5656 151C                                       l5680 0C3A  
                                     l5672 0C0F                                       l5664 0BE5  
                                     l5760 0991                                       l5752 093D  
                                     l5736 0D7D                                       l5728 0D47  
                                     l5816 1693                                       l5808 1674  
                                     l5832 156B                                       l5824 1660  
                                     l5840 16B0                                       l6296 0211  
                                     l6288 0195                                       l5920 0DC8  
                                     l5912 0DB5                                       l6392 07A5  
                                     l6384 0783                                       l6376 076C  
                                     l6368 0743                                       l6616 05D4  
                                     l6608 05A9                                       l6560 044B  
                                     l6552 0428                                       l6544 03FB  
                                     l6536 03E2                                       l6528 03CA  
                                     l6624 061B                                       l6480 0BA3  
                                     l6472 0B7F                                       l6464 0B5D  
                                     l6456 0B46                                       l6448 0AF5  
                                     _ADIF 0066                                       l5658 1525  
                                     l5690 0C81                                       l5682 0C4A  
                                     l5674 0C14                                       l5666 0BE9  
                                     l5754 0952                                       l5746 092E  
                                     l5818 169E                                       l5834 1573  
                                     l5826 1669                                       l5850 16DB  
                                     l5842 16B8                                       l6298 021F  
                                     l5930 0DDC                                       l5922 0DC9  
                                     l5914 0DB6                                       l5906 0DA8  
                                     l6394 07B0                                       l6386 0787  
                                     l6378 076F                                       l6618 05DB  
                                     l6570 04AD                                       l6562 0476  
                                     l6554 0438                                       l6546 03FF  
                                     l6626 0621                                       l6538 03E6  
                                     l6490 0BD0                                       l6482 0BAC  
                                     l6474 0B88                                       l6466 0B66  
                                     l6458 0B4B                                       l5692 0C86  
                                     l5684 0C5B                                       l5676 0C24  
                                     l5668 0BEE                                       l5756 0967  
                                     l5764 09A6                                       l5748 092F  
                                     l5780 09F5                                       l6492 17B1  
                                     l5836 1574                                       l5828 1564  
                                     l5844 16BF                                       l5860 1607  
                                     l5852 15EA                                       l5940 0DEB  
                                     l5932 0DDD                                       l5916 0DBB  
                                     l5924 0DCB                                       l5908 0DAD  
                                     l6396 07B4                                       l6388 0795  
                                     l6580 04F6                                       l6572 04B1  
                                     l6564 0480                                       l6556 043C  
                                     l6548 0404                                       l6628 0627  
                                     l6484 0BB5                                       l6476 0B91  
                                     l6468 0B6F                                       l5694 0C96  
                                     l5686 0C60                                       l5678 0C35  
                                     l5758 097C                                       l5766 09BF  
                                     l5790 0A29                                       l5782 0A08  
                                     l5774 09C1                                       l6494 17C3  
                                     l5846 16CA                                       l5838 16AB  
                                     l5862 160D                                       l5854 15F4  
                                     l5870 153E                                       l5950 0E09  
                                     l5942 0DF0                                       l5934 0DE1  
                                     l5926 0DD3                                       l5918 0DC0  
                                     l6398 07BE                                       l6590 053B  
                                     l6582 0506                                       l6574 04D4  
                                     l6566 0484                                       l6558 0440  
                                     l6486 0BBE                                       l6478 0B9A  
                                     l5688 0C70                                       l5792 0A3C  
                                     l5784 0A11                                       l5776 09C8  
                                     l6496 17CB                                       l5848 16D5  
                                     l5856 15FA                                       l5872 1540  
                                     l5864 1535                                       l5880 084D  
                                     l5960 0E17                                       l5952 0E0D  
                                     l5944 0DF8                                       l5936 0DE5  
                                     l5928 0DD6                                       l6592 0540  
                                     l6584 050A                                       l6576 04D4  
                                     l6568 049D                                       l6488 0BC7  
                                     l6680 0812                                       l5698 0CA7  
                                     l5794 0A41                                       l5786 0A19  
                                     l5778 09EC                                       l6498 17D4  
                                     l5858 15FF                                       l5874 1542  
                                     l5866 1536                                       l5890 0873  
                                     l5882 085F                                       l5970 0E21  
                                     l5962 0E19                                       l5954 0E11  
                                     l5946 0DF9                                       l5938 0DE6  
                                     l6594 0542                                       l6586 052D  
                                     l6578 04DA                                       l6682 082E  
                                     l5788 0A20                                       l5796 0A4B  
                                     l5876 1547                                       l5868 153A  
                                     l5892 087C                                       l5884 0862  
                                     l5980 0E2B                                       l5972 0E23  
                                     l5964 0E1B                                       l5956 0E13  
                                     l5948 0DFB                                       l6596 055B  
                                     l6588 0537                                       l6684 0838  
                                     l5798 1720                                       l5894 088E  
                                     l5886 086B                                       l5990 0E63  
                                     l5982 0E2D                                       l5974 0E25  
                                     l5966 0E1D                                       l5958 0E15  
                                     l6598 056B                                       l6686 083D  
                                     l6678 080D                                       l5896 089C  
                                     l5888 086F                                       l5992 0E6A  
                                     l5976 0E27                                       l5968 0E1F  
                                     l5984 0E2F                                       l6688 0843  
                                     l6970 09AE                                       l5898 089D  
                                     l5994 0E6C                                       l5986 0E30  
                                     l5978 0E29                                       l6972 0CAF  
                                     l5996 0E70                                       l5988 0E47  
                                     _ADON 00F8                                       l5998 0E71  
                                     l6966 05EC                                       l6968 0D96  
                                     _EEIF 006C                                       STR_1 1028  
                                     STR_2 1006                                       STR_3 1033  
                                     STR_5 1039                                       STR_7 1045  
                          ??_LCD_CMD_Write 0078                                       STR_9 104A  
                                     _T0IF 005A                                       _IOCB 0096  
                                     _PIE1 008C                                       _PIE2 008D  
                                     u7000 0D47                                       u7001 0D46  
                                     u7110 0964                                       u7030 0D6D  
                                     u7014 0D4D                                       _INTF 0059  
                                     u7111 0962                                       u7031 0D6C  
                                     u7015 0D4B                                       u7200 09A3  
                                     u7120 0965                                       u7104 0958  
                                     u7024 0D5D                                       u8000 0FDD  
                                     _RBIF 0058                                       i1l17 150C  
                                     u7201 09A1                                       u7105 0956  
                                     u7025 0D5B                                       u8001 0FDC  
                                     u7210 09A4                                       u8010 0FEA  
                                     u8011 0FE9                                       u7140 0979  
                                     u7044 0D73                                       u7220 09C8  
                                     u7300 1744                                       u8100 066E  
                                     u8020 0FEF                                       _RCEN 048B  
                                     _RCIF 0065                                       u7141 0977  
                                     u7045 0D71                                       u7221 09C7  
                                     u8101 066C                                       u8021 0FEE  
                                     u7150 097A                                       u7134 096D  
                                     u7054 0D83                                       u7230 0A19  
                                     u7310 1752                                       u8110 066F  
                                     u8030 0FFE                                       u7135 096B  
                                     u7055 0D81                                       u7231 0A18  
                                     u7311 1750                                       u8031 0FFD  
                                     u7080 094F                                       u7240 0A41  
                                     u7400 1715                                       u7320 1753  
                                     u8120 0680                                       u8040 15CE  
                                     u8200 08C0                                       _PCON 008E  
                                     u7081 094D                                       u7065 0932  
                                     u7241 0A40                                       u8121 067F  
                                     u8041 15CD                                       u8201 08BF  
                                     _PIR1 000C                                       u7170 098E  
                                     u7090 0950                                       u7074 0943  
                                     u7330 16E7                                       u7250 1725  
                                     u7410 1681                                       u8130 0689  
                                     u8210 08D7                                       _PIR2 000D  
                                     u7171 098C                                       u7075 0941  
                                     u7331 16E5                                       u7251 1723  
                                     u7411 1680                                       u8131 0688  
                                     u7180 098F                                       u7164 0982  
                                     u7340 16E8                                       u7260 1726  
                                     u7500 1547                                       u8140 069A  
                                     u8060 15E2                                       u8300 0045  
                                     u8220 08EB                                       u7165 0980  
                                     u7501 1546                                       u8141 0699  
                                     u8061 15E1                                       u8301 0044  
                                     u8221 08EA                                       u7350 16F6  
                                     u7270 1734                                       u8070 1556  
                                     u7430 1573                                       u7510 085F  
                                     u8150 06EE                                       u8310 004B  
                                     u8230 08F2                                       u7351 16F4  
                                     u7271 1732                                       u8071 1555  
                                     u7431 1572                                       u7511 085E  
                                     u8151 06ED                                       u8055 15D5  
                                     u8311 004A                                       u8231 08F1  
                                     u8215 08D2                                       u6720 07FE  
                                     u7360 16F7                                       u7280 1735  
                                     u7440 16B8                                       u8160 06F4  
                                     u8080 063D                                       u8320 0050  
                                     u7600 0DC0                                       u6721 07FD  
                                     u7425 1696                                       u7441 16B7  
                                     u8161 06F3                                       u8081 063C  
                                     u8401 0129                                       u8321 004F  
                                     u7601 0DBF                                       u6730 1531  
                                     u6810 0C3A                                       u7194 0997  
                                     u7370 1705                                       u7290 1743  
                                     u7530 0873                                       u8170 0704  
                                     u8402 0130                                       u8330 006F  
                                     u7610 0DDC                                       u8250 0904  
                                     u6731 1530                                       u6811 0C39  
                                     u7195 0995                                       u7371 1703  
                                     u7291 1741                                       u7531 0872  
                                     u8171 0703                                       u8411 0145  
                                     u8403 0137                                       u8331 006E  
                                     u7611 0DDB                                       u8251 0903  
                                     u6804 0C2A                                       u7380 1706  
                                     u7460 15F4                                       u8180 0710  
                                     u8412 014C                                       u8340 0075  
                                     u7700 0E63                                       u7620 0DE5  
                                     u8260 090B                                       u6805 0C28  
                                     u7461 15F3                                       u7525 0864  
                                     u8181 070F                                       u8501 0262  
                                     u8413 0153                                       u8341 0074  
                                     u7701 0E62                                       u7621 0DE4  
                                     u8261 090A                                       u8245 08F4  
                                     u6750 0BEE                                       u6910 0CD5  
                                     u7390 1714                                       u7470 15FA  
                                     u7550 088E                                       u8190 0736  
                                     u8094 0652                                       u8510 027E  
                                     u8502 0269                                       u8350 007A  
                                     u7710 0E70                                       u7630 0DEB  
                                     u6751 0BED                                       u6911 0CD4  
                                     u7391 1712                                       u7455 16CD  
                                     u7471 15F9                                       u7551 088D  
                                     u8191 0735                                       u8095 064F  
                                     u8503 0270                                       u8431 0179  
                                     u8351 0079                                       u7711 0E6F  
                                     u7631 0DEA                                       u6840 0C60  
                                     u6824 0C40                                       u7480 1607  
                                     u8600 02F0                                       u8432 0180  
                                     u8360 0091                                       u7640 0DF0  
                                     u8280 091C                                       u6841 0C5F  
                                     u6825 0C3E                                       u6745 0BDE  
                                     u6905 0CC5                                       u7481 1606  
                                     u7545 0875                                       u8601 02EF  
                                     u8521 028A                                       u8441 01A4  
                                     u8433 0187                                       u8425 0155  
                                     u8361 0090                                       u7641 0DEF  
                                     u8281 091B                                       u6834 0C50  
                                     u7490 153A                                       u7570 08AC  
                                     u8610 02F6                                       u8522 0291  
                                     u8442 01AB                                       u8370 0096  
                                     u7810 0EE9                                       u7730 0E86  
                                     u7650 0E09                                       u8290 0921  
                                     u6835 0C4E                                       u7491 1539  
                                     u7571 08AB                                       u7555 088A  
                                     u8611 02F5                                       u8523 0298  
                                     u8515 0279                                       u8443 01B2  
                                     u8371 0095                                       u7811 0EE8  
                                     u7731 0E85                                       u7651 0E08  
                                     u8291 0920                                       u8275 090E  
                                     u6780 0C14                                       u6764 0BF4  
                                     u6940 0CFB                                       u6924 0CDB  
                                     u8620 0308                                       u7900 0F81  
                                     u7740 0E8A                                       u7660 0E0D  
                                     u7580 0DB5                                       u6781 0C13  
                                     u6765 0BF2                                       u6941 0CFA  
                                     u6925 0CD9                                       u7565 089E  
                                     u8621 0307                                       u8461 01D8  
                                     u8381 00E3                                       u7901 0F80  
                                     u7821 0F00                                       u7813 0EE5  
                                     u7805 0EC7                                       u7741 0E89  
                                     u7725 0E73                                       u7661 0E0C  
                                     u7581 0DB4                                       u6870 0C86  
                                     u6854 0C66                                       u6774 0C04  
                                     u6934 0CEB                                       u8630 0317  
                                     u8550 02BC                                       u8462 01DF  
                                     u8382 00EA                                       u7910 0F87  
                                     u7830 0F14                                       u7822 0F01  
                                     u7750 0E8F                                       u7670 0E47  
                                     u7590 0DBB                                       u8710 0782  
                                     u6871 0C85                                       u6855 0C64  
                                     u6775 0C02                                       u6935 0CE9  
                                     u8551 02BB                                       u8535 029A  
                                     u8471 0203                                       u8463 01E6  
                                     u8455 01B4                                       u8391 00FF  
                                     u8383 00F1                                       u7911 0F86  
                                     u7831 0F15                                       u7823 0F06  
                                     u7751 0E8E                                       u7671 0E46  
                                     u7591 0DBA                                       u8711 0781  
                                     u6864 0C76                                       u8640 0334  
                                     u8472 020A                                       u8392 0106  
                                     u7920 0F8C                                       u7840 0F32  
                                     u7832 0F1A                                       u7824 0F07  
                                     u7680 0E50                                       u8800 07E7  
                                     u6865 0C74                                       u8641 0333  
                                     u8545 02B1                                       u8481 022E  
                                     u8473 0211                                       u8393 010D  
                                     u7921 0F8B                                       u7841 0F31  
                                     u7833 0F1B                                       u7825 0F0C  
                                     u7761 0EA1                                       u7681 0E4E  
                                     u8801 07E6                                       u8705 0774  
                                     u6794 0C1A                                       u6970 0D21  
                                     u6954 0D01                                       u8650 034E  
                                     u8570 02D0                                       u8490 0256  
                                     u8482 0235                                       u7930 0F92  
                                     u7850 0F57                                       u7826 0F0D  
                                     u7770 0EB3                                       u7762 0EA8  
                                     u7690 0E51                                       u8730 07A4  
                                     u8810 1599                                       u6795 0C18  
                                     u6971 0D20                                       u6955 0CFF  
                                     u8651 034D                                       u8635 0312  
                                     u8571 02CF                                       u8483 023C  
                                     u7931 0F91                                       u7851 0F56  
                                     u7771 0EB2                                       u7763 0EAF  
                                     u7675 0E43                                       u8731 07A3  
                                     u8811 1598                                       u6884 0C8C  
                                     u6964 0D11                                       u8660 036A  
                                     u8580 02D5                                       u7940 0F99  
                                     u7860 0F5C                                       u7780 0EB7  
                                     u8900 03A5                                       u8820 0B3C  
                                     u6885 0C8A                                       u6965 0D0F  
                                     u8661 0369                                       u8645 0330  
                                     u8581 02D4                                       u8565 02BF  
                                     u7941 0F98                                       u7861 0F5B  
                                     u7781 0EB6                                       u8725 0796  
                                     u8901 03A4                                       u8821 0B3B  
                                     u6894 0C9C                                       u8590 02E9  
                                     u7950 0F9F                                       u7790 0EC4  
                                     u8750 07B4                                       u8670 073F  
                                     u8910 03AB                                       u8830 0B41  
                                     u6895 0C9A                                       u8655 034A  
                                     u8591 02E8                                       u8495 0251  
                                     u7951 0F9E                                       u7791 0EC3  
                                     u8751 07B3                                       u8671 073E  
                                     u8911 03AA                                       u8831 0B40  
                                     u6984 0D27                                       u7960 0FB1  
                                     u7880 0F72                                       u8760 07BA  
                                     u8680 0743                                       u8920 03D0  
                                     u8840 0B46                                       u6985 0D25  
                                     u7961 0FB0                                       u7881 0F71  
                                     u8761 07B9                                       u8745 07A9  
                                     u8681 0742                                       u8921 03CF  
                                     u8841 0B45                                       u6994 0D37  
                                     u7970 0FC0                                       u7890 0F77  
                                     u8770 07BE                                       u8690 0763  
                                     u8930 03D6                                       u8850 0B4B  
                                     u6995 0D35                                       u7891 0F76  
                                     u7875 0F67                                       u8771 07BD  
                                     u8691 0762                                       u8931 03D5  
                                     u8851 0B4A                                       u8860 17C3  
                                     u7980 0FCF                                       u8780 07D3  
                                     u8940 03FF                                       u8861 17C2  
                                     u7981 0FCE                                       u8941 03FE  
                                     u8870 17DC                                       u7990 0FD8  
                                     u8790 07E3                                       u8950 0440  
                                     u8871 17DB                                       u7991 0FD7  
                                     u7975 0FBB                                       u8791 07E2  
                                     u8951 043F                                       u8880 17E9  
                                     u8960 0540                                       u8881 17E8  
                                     u8785 07CE                                       u8961 053F  
                                     u8970 0574                                       u8890 0393  
                                     u8971 0573                                       u8891 0392  
                                     u8980 0633                                       u8981 0632  
                                     _TMR0 0001                                       _TMR2 0011  
                                     _RSEN 0489                                       _WREN 0C62  
                                     _TXIF 0064                                       _WPUB 0095  
                                     _main 080D                                       btemp 007E  
              lcd_SendHigherData@dataFrame 0077                                       start 000C  
                        ___bmul@multiplier 0028                                      ??_IRS 0070  
                           ??_LCD_GoToLine 007A                           __end_of_LCD_Init 1800  
                              LCD_Setup@D0 0022                                LCD_Setup@D1 0023  
                              LCD_Setup@D2 0024                                LCD_Setup@D3 0025  
                              LCD_Setup@D4 0026                                LCD_Setup@D5 0027  
                              LCD_Setup@D6 0028                                LCD_Setup@D7 0029  
                              LCD_Setup@EN 0021                                LCD_Setup@RS 0077  
                              LCD_Setup@RW 0020                              ___fltol@sign1 0043  
                          __end_of___fladd 1000                                      ?_main 0070  
                                    _ACKEN 048C                                      _ACKDT 048D  
                                    _BCLIF 006B                                      _EEADR 010D  
                                    _EEDAT 010C                                      STR_13 103F  
                          __end_of___flmul 037D                            __end_of___flsub 15BE  
                          __end_of___fltol 092D                            _LastSensorFount 007A  
                          __end_of___lldiv 08B5                                      _T1CON 0010  
                                    _T2CON 0012                      _LCD_DisplayNumber$660 0043  
                                    _RCREG 001A                                      _RCSTA 0018  
                                    _OSFIF 006F                                      _TMR1H 000F  
                                    _TMR1L 000E                                      _SPBRG 0099  
                                    _PORTA 0005                                      _PORTB 0006  
                                    _PORTC 0007                                      _PORTD 0008  
                                    _PORTE 0009                                      _TRISA 0085  
                                    _TRISB 0086                                      _TRISC 0087  
                                    _TRISD 0088                                      _TRISE 0089  
                                    _SSPIF 0063                                      _VRCON 0097  
                                    _TXREG 0019                                      _TXSTA 0098  
              pin_Direction@var_PortNumber 0075                                      pclath 000A  
                                    status 0003                                      wtemp0 007E  
                         __end_of_Delay_ms 1532                           __end_of_Delay_us 07FF  
                          __initialization 000F                               __end_of_main 084D  
                                   ??_main 007A                          __end_of_LCD_Clear 080D  
                        __end_of_LCD_Setup 0BDA                              ?_read_Digital 0070  
                    LCD_Printf@var_num_s16 00C6                      LCD_Printf@var_num_s32 00BE  
                    LCD_Printf@var_num_u32 00C2                      LCD_Printf@var_num_u16 00BC  
                                   _ADCON0 001F                                     _ADCON1 009F  
                                   _CCP1IF 0062                                     _CCP2IF 0068  
                         ?_LCD_DisplayChar 0070                               LCD_Printf@ch 00C9  
                                   _ADRESH 001E                                     _EEADRH 010F  
                                   _ADRESL 009E                                     _EEDATA 010C  
                                   _ECCPAS 009C                                     _EEDATH 010E  
                                   _CCPR1L 0015                                     _CCPR2L 001B  
                                   _EECON2 018D                                     i1l3092 150C  
                                   _INTCON 000B                                     _OSCCON 008F  
                                   _TMR0IF 005A                                     _TMR1IF 0060  
                                   _TMR2IF 0061                                     _SPBRGH 009A  
                                   _TMR2ON 0092                                     _WDTCON 0105  
                                   _SSPADD 0093                                     _TRISC3 043B  
                                   _TRISC4 043C                                     _SSPCON 0014  
                                   _SSPBUF 0013                      lcd_BusyCheck@busyFlag 0077  
                                   _SSPMSK 0093                           __end_of___xxtofl 07F1  
                       write_Digital@value 0072                                     ___bmul 1532  
                                ??___fladd 0020                                  ??___flmul 002D  
                                ??___flsub 007A                                  ??___fltol 0076  
                                ??___lldiv 0020                       pin_Direction@var_pin 0076  
                  read_Digital@var_PortNum 0074                             ??_read_Digital 0072  
                                   saved_w 007E                          ?_LCD_GoToNextLine 0070  
                       ??_LCD_GoToNextLine 007A                       __end_of_LCD_GoToLine 1564  
                             ___xxtofl@arg 0022                               ___xxtofl@exp 0021  
                             ___xxtofl@val 0072                    __end_of__initialization 0034  
                                ?_LCD_Init 0021                                 ___fltol@f1 003F  
                  ?_LCD_DisplayFloatNumber 0047                     lcd_DataWrite@dataFrame 0079  
                      ___bmul@multiplicand 0026                             __pcstackCOMMON 0070  
                             __pidataBANK0 1503                      __end_of_lcd_DataWrite 16E1  
               __end_of_lcd_SendCMDSignlas 1643                               ??_LCD_Printf 0053  
                           _Sensor_Address 00AE                    LCD_Init@var_maxLCDChars 0021  
                  LCD_Init@var_maxLCDLines 0022                                  ?_Delay_ms 0074  
                                ?_Delay_us 0072                                 __pbssBANK0 0059  
                               __pbssBANK1 00A0                      __end_of_lcd_BusyCheck 0A55  
                               ??_LCD_Init 007A             __end_of_LCD_DisplayFloatNumber 0AF4  
                       __end_of_LCD_Printf 0634                          __end_of__Umul8_16 15E7  
                               __pmaintext 080D                                    ?___bmul 0026  
                               __pintentry 0004                                    _CM1CON0 0107  
                                  _CM2CON0 0108                                    _CCP1CON 0017  
                                  _CM2CON1 0109                                    _CCP2CON 001D  
          LCD_DisplayFloatNumber@decNumber 004B                              LCD_Printf@ptr 00C8  
                            LCD_Printf@str 00BA                              _write_Digital 0CC1  
                                ?___xxtofl 0072                                    _GO_DONE 00F9  
                               ??_Delay_ms 0076                                 ??_Delay_us 0074  
                                  _OSCTUNE 0090                                    _PWM1CON 009B  
                                  _PSTRCON 009D                                    _SSPCON2 0091  
                                  _ULPWUIF 006A                                    _SSPSTAT 0094  
                               __stringtab 1000                      __end_of_LCD_CMD_Write 16AA  
                  LCD_GoToLine@var_LineNum 0020                       __end_of_read_Digital 09C1  
                        __end_of_lcd_Reset 17AE                                    ___fladd 0DA8  
                                  ___flmul 0038                                    ___flsub 159A  
                                  ___fltol 08B5                                    ___lldiv 084D  
                            _pin_Direction 0BDA                             ?_write_Digital 0072  
                                _ANSELbits 0188                         LCD_DisplayNumber@a 0039  
                       LCD_DisplayNumber@i 0046                                    __ptext1 0AF4  
                                  __ptext2 037D                                    __ptext3 157F  
                                  __ptext4 0A55                                    __ptext5 0737  
                                  __ptext6 08B5                                    __ptext7 159A  
                                  __ptext8 0DA8                                    __ptext9 0038  
                               ??___xxtofl 0076                                  _LCDConfig 00A0  
                                _LCD_Clear 0800                                  _LCD_Setup 0AF4  
                                  clrloop0 1514                       end_of_initialization 0034  
                      read_Digital@var_pin 0076                            ___lldiv@divisor 0072  
                          ___lldiv@counter 0025           LCD_DisplayFloatNumber@var_number 0047  
                           ?_pin_Direction 0072                               _LCD_GoToLine 1549  
                                _PORTAbits 0005                                ___fladd@grs 002B  
                            ___xxtofl@sign 0020                                  _TRISAbits 0085  
                               ?_LCD_Clear 0070                                 ?_LCD_Setup 0020  
                              ___flmul@grs 0034                 lcd_SendLowerData@dataFrame 0077  
     LCD_Printf@NumOfBinDigitsToDisplay_u8 00CA                 __end_of_lcd_SendHigherData 171F  
                      _lcd_SendDataSignlas 1643                            ??_write_Digital 0073  
                 read_Digital@returnStatus 0075                             __end_of___bmul 1549  
               __end_of_ExternalClock_Init 150C                          LCD_Printf@argList 00BB  
                      start_initialization 000F                       ?_lcd_SendDataSignlas 0070  
                              __end_of_IRS 1513                         _lcd_SendCMDSignlas 1614  
                      ?_lcd_SendCMDSignlas 0070                            ??_pin_Direction 0073  
                                 ??___bmul 007A                                  __Umul8_16 15BE  
                              __pdataBANK0 0055                 pin_Direction@var_derection 0072  
                        _LcdTrackCursorPos 005A                       ??_lcd_SendCMDSignlas 0077  
                                ___fladd@a 0076                                  ___fladd@b 0072  
                    ??_lcd_SendDataSignlas 0077                    LCD_Printf@var_float_num 00B6  
                                ___flmul@a 0029                                  ___flmul@b 0025  
                              __pbssCOMMON 007A                               _read_Digital 092D  
                                ___flsub@a 002C                                  ___flsub@b 0030  
                                ___latbits 0002                              __pcstackBANK0 0020  
                            __pcstackBANK1 00B6                                ??_LCD_Clear 007A  
                              ??_LCD_Setup 0077                            _LcdTrackLineNum 007B  
                                 ?___fladd 0072                                   ?___flmul 0025  
                                 ?___flsub 002C                                   ?___fltol 003F  
                                 ?___lldiv 0072                                 ?__Umul8_16 0072  
                                _lcd_Reset 175D                          ??_LCD_DisplayChar 007A  
                                __pstrings 1000                          _LCD_DisplayNumber 0634  
                           LCD_Printf@argp 00CB                          _LCD_DisplayString 157F  
                       ?_LCD_DisplayNumber 0029                         ?_LCD_DisplayString 0070  
                      ??_LCD_DisplayNumber 002E                          interrupt_function 0004  
                                 _LCD_Init 17AE        LCD_DisplayString@ptr_MessagePointer 0021  
                      ??_LCD_DisplayString 007A                           Delay_ms@ms_count 0074  
                                clear_ram0 1513                                   _PIE1bits 008C  
                         _LCD_GoToNextLine 1564                                   _PIR1bits 000C  
                               ?_lcd_Reset 0070                              _lcd_DataWrite 16AA  
                    LCD_CMD_Write@CMDFrame 0079                  __end_of_LCD_DisplayNumber 0737  
                               _ADCON0bits 001F                                __stringbase 1005  
                               _ADCON1bits 009F                  __end_of_LCD_DisplayString 159A  
                                 _Delay_ms 151B                       write_Digital@var_pin 0076  
                                 _Delay_us 07F1                                   _DoneFlag 0059  
                 ??_LCD_DisplayFloatNumber 007A                              _lcd_BusyCheck 09C1  
                           ?_lcd_DataWrite 0070                                ??__Umul8_16 0074  
                       __end_of__stringtab 1006                         _lcd_SendHigherData 16E1  
                               _ANSELHbits 0189                                   ___xxtofl 0737  
                      ?_lcd_SendHigherData 0070                                   __ptext10 15BE  
                                 __ptext11 0634                                   __ptext20 0800  
                                 __ptext12 084D                                   __ptext21 1549  
                                 __ptext13 1532                                   __ptext30 151B  
                                 __ptext22 1673                                   __ptext14 15E7  
                                 __ptext31 07F1                                   __ptext23 171F  
                                 __ptext15 16AA                                   __ptext32 1507  
                                 __ptext24 16E1                                   __ptext16 1643  
                                 __ptext33 150C                                   __ptext25 1614  
                                 __ptext17 1564                                   __ptext26 09C1  
                                 __ptext18 17AE                                   __ptext27 0CC1  
                                 __ptext19 175D                                   __ptext28 092D  
                                 __ptext29 0BDA                         _ExternalClock_Init 1507  
                           ?_lcd_BusyCheck 0070                write_Digital@var_PortNumber 0075  
                            _LCD_CMD_Write 1673                        ?_ExternalClock_Init 0070  
                     ??_lcd_SendHigherData 0077                           Delay_us@us_count 0072  
                              ??_lcd_Reset 0078                                 _LCD_Printf 037D  
                    __end_of_write_Digital 0DA8                       ??_ExternalClock_Init 0072  
LCD_DisplayNumber@var_numOfDigitsToDisplay 002D                                 _INTCONbits 000B  
                 LCD_DisplayChar@dataFrame 0020                                   intlevel1 0000  
                           ?_LCD_CMD_Write 0070                           ___lldiv@dividend 0076  
                          _LCD_DisplayChar 15E7                                  stringcode 1000  
                          ??_lcd_DataWrite 0078                      __end_of_pin_Direction 0CC1  
              __end_of_lcd_SendDataSignlas 1673                          _lcd_SendLowerData 171F  
                   __Umul8_16@multiplicand 0072                                 _OPTION_REG 0081  
                         ___lldiv@quotient 0021                   __end_of_LCD_GoToNextLine 157F  
                       ?_lcd_SendLowerData 0070                                   stringdir 1000  
                                 stringtab 1000                            ??_lcd_BusyCheck 0077  
                            ___fladd@signs 0028                        ??_lcd_SendLowerData 0077  
                             ___fladd@aexp 0029                               ___fladd@bexp 002A  
                     __Umul8_16@multiplier 0024              LCD_DisplayNumber@var_number32 0029  
                        __Umul8_16@product 0020  
